Component: ARM Compiler 5.06 update 4 (build 422) Tool: armlink [4d35d2]

==============================================================================

Section Cross References

    system_stm32f4xx.o(i.SystemCoreClockUpdate) refers to system_stm32f4xx.o(.data) for .data
    system_stm32f4xx.o(i.SystemInit) refers to system_stm32f4xx.o(i._ZN40_INTERNAL_18_system_stm32f4xx_c_5d646a6711SetSysClockEv) for [local to system_stm32f4xx_c]::SetSysClock()
    system_stm32f4xx.o(.ARM.exidx) refers to system_stm32f4xx.o(i._ZN40_INTERNAL_18_system_stm32f4xx_c_5d646a6711SetSysClockEv) for i._ZN40_INTERNAL_18_system_stm32f4xx_c_5d646a6711SetSysClockEv
    system_stm32f4xx.o(.ARM.exidx) refers to system_stm32f4xx.o(i.SystemInit) for i.SystemInit
    system_stm32f4xx.o(.ARM.exidx) refers to system_stm32f4xx.o(i.SystemCoreClockUpdate) for i.SystemCoreClockUpdate
    startup_stm32f40_41xxx.o(STACK) refers (Special) to heapauxi.o(.text) for __use_two_region_memory
    startup_stm32f40_41xxx.o(HEAP) refers (Special) to heapauxi.o(.text) for __use_two_region_memory
    startup_stm32f40_41xxx.o(RESET) refers (Special) to heapauxi.o(.text) for __use_two_region_memory
    startup_stm32f40_41xxx.o(RESET) refers to startup_stm32f40_41xxx.o(STACK) for __initial_sp
    startup_stm32f40_41xxx.o(RESET) refers to startup_stm32f40_41xxx.o(.text) for Reset_Handler
    startup_stm32f40_41xxx.o(RESET) refers to irq_cm4f.o(.text) for SVC_Handler
    startup_stm32f40_41xxx.o(RESET) refers to dexuart.o(i.USART2_IRQHandler) for USART2_IRQHandler
    startup_stm32f40_41xxx.o(RESET) refers to loguart.o(i.USART3_IRQHandler) for USART3_IRQHandler
    startup_stm32f40_41xxx.o(RESET) refers to keyuart.o(i.UART4_IRQHandler) for UART4_IRQHandler
    startup_stm32f40_41xxx.o(RESET) refers to deliveruart.o(i.UART5_IRQHandler) for UART5_IRQHandler
    startup_stm32f40_41xxx.o(.text) refers (Special) to heapauxi.o(.text) for __use_two_region_memory
    startup_stm32f40_41xxx.o(.text) refers to system_stm32f4xx.o(i.SystemInit) for SystemInit
    startup_stm32f40_41xxx.o(.text) refers to __main.o(!!!main) for __main
    startup_stm32f40_41xxx.o(.text) refers to startup_stm32f40_41xxx.o(HEAP) for Heap_Mem
    startup_stm32f40_41xxx.o(.text) refers to startup_stm32f40_41xxx.o(STACK) for Stack_Mem
    main.o(i.main) refers to rtx_kernel.o(.text.osKernelInitialize) for osKernelInitialize
    main.o(i.main) refers to cxa_guard_acquire.o(i.__cxa_guard_acquire) for __cxa_guard_acquire
    main.o(i.main) refers to bootmaintask.o(i._ZN12BootMainTaskC1Ev) for BootMainTask::BootMainTask()
    main.o(i.main) refers to task.o(i._ZN4Task5startEv) for Task::start()
    main.o(i.main) refers to rtx_kernel.o(.text.osKernelStart) for osKernelStart
    main.o(i.main) refers to main.o(.data__ZZN12BootMainTask8instanceEvE4task) for guard variable for BootMainTask::instance()::task
    main.o(i.main) refers to main.o(.bss__ZZN12BootMainTask8instanceEvE4task) for BootMainTask::instance()::task
    main.o(.ARM.exidx) refers to main.o(i.main) for i.main
    task.o(i._ZN4Task13startFunctionEPv) refers to rtx_thread.o(.text.osThreadExit) for osThreadExit
    task.o(i._ZN4Task4stopEv) refers to rtx_thread.o(.text.osThreadTerminate) for osThreadTerminate
    task.o(i._ZN4Task5startEv) refers to rtx_thread.o(.text.osThreadTerminate) for osThreadTerminate
    task.o(i._ZN4Task5startEv) refers to rtx_thread.o(.text.osThreadNew) for osThreadNew
    task.o(i._ZN4Task5startEv) refers to task.o(i._ZN4Task13startFunctionEPv) for Task::startFunction(void*)
    task.o(i._ZN4TaskC2EPKcPyj12osPriority_t) refers to task.o(.constdata__ZTV4Task) for vtable for Task
    task.o(.ARM.exidx) refers to task.o(i._ZN4Task13startFunctionEPv) for i._ZN4Task13startFunctionEPv
    task.o(.ARM.exidx) refers to task.o(i._ZN4Task5startEv) for i._ZN4Task5startEv
    task.o(.ARM.exidx) refers to task.o(i._ZN4Task4stopEv) for i._ZN4Task4stopEv
    task.o(.ARM.exidx) refers to task.o(i._ZN4TaskC2EPKcPyj12osPriority_t) for i._ZN4TaskC2EPKcPyj12osPriority_t
    guitask.o(i._ZN7GUITask3runEv) refers to gui_core.o(i.GUI_Init) for GUI_Init
    guitask.o(i._ZN7GUITask3runEv) refers to guitask.o(i._ZN16BackgroundWindow8instanceEv) for BackgroundWindow::instance()
    guitask.o(i._ZN7GUITask3runEv) refers to gui_common.o(i.GUI_Exec) for GUI_Exec
    guitask.o(i._ZN7GUITask3runEv) refers to rtx_msgqueue.o(.text.osMessageQueueGet) for osMessageQueueGet
    guitask.o(i._ZN7GUITask3runEv) refers to cxa_guard_acquire.o(i.__cxa_guard_acquire) for __cxa_guard_acquire
    guitask.o(i._ZN7GUITask3runEv) refers to windowmanager.o(i._ZN13WindowManagerC1Ev) for WindowManager::WindowManager()
    guitask.o(i._ZN7GUITask3runEv) refers to windowmanager.o(i._ZN13WindowManager17onMessageReceiverE9MessageId) for WindowManager::onMessageReceiver(MessageId)
    guitask.o(i._ZN7GUITask3runEv) refers to guitask.o(.data__ZZN13WindowManager8instanceEvE7manager) for guard variable for WindowManager::instance()::manager
    guitask.o(i._ZN7GUITaskC1Ev) refers to task.o(i._ZN4TaskC2EPKcPyj12osPriority_t) for Task::Task__sub_object(const char*, unsigned long long*, unsigned, osPriority_t)
    guitask.o(i._ZN7GUITaskC1Ev) refers to receiver.o(i._ZN8ReceiverC1EPKcPyjj) for Receiver::Receiver(const char*, unsigned long long*, unsigned, unsigned)
    guitask.o(i._ZN7GUITaskC1Ev) refers to guitask.o(.constdata__ZTV7GUITask) for vtable for GUITask
    guitask.o(.ARM.exidx) refers to guitask.o(i._ZN7GUITask3runEv) for i._ZN7GUITask3runEv
    guitask.o(.ARM.exidx) refers to guitask.o(i._ZN7GUITaskC1Ev) for i._ZN7GUITaskC1Ev
    bootmaintask.o(i._ZN12BootMainTask3runEv) refers to lcd.o(i.vLcdInit) for vLcdInit
    bootmaintask.o(i._ZN12BootMainTask3runEv) refers to bootmaintask.o(i._ZN7KeyUart8instanceEv) for KeyUart::instance()
    bootmaintask.o(i._ZN12BootMainTask3runEv) refers to bootmaintask.o(i._ZN7LogUart8instanceEv) for LogUart::instance()
    bootmaintask.o(i._ZN12BootMainTask3runEv) refers to bootmaintask.o(i._ZN11DeliverUart8instanceEv) for DeliverUart::instance()
    bootmaintask.o(i._ZN12BootMainTask3runEv) refers to bootmaintask.o(i._ZN11FlashMemory8instanceEv) for FlashMemory::instance()
    bootmaintask.o(i._ZN12BootMainTask3runEv) refers to cxa_guard_acquire.o(i.__cxa_guard_acquire) for __cxa_guard_acquire
    bootmaintask.o(i._ZN12BootMainTask3runEv) refers to dexuart.o(i._ZN7DexUartC1Ev) for DexUart::DexUart()
    bootmaintask.o(i._ZN12BootMainTask3runEv) refers to dextask.o(i._ZN7DexTaskC1Ev) for DexTask::DexTask()
    bootmaintask.o(i._ZN12BootMainTask3runEv) refers to task.o(i._ZN4Task5startEv) for Task::start()
    bootmaintask.o(i._ZN12BootMainTask3runEv) refers to guitask.o(i._ZN7GUITaskC1Ev) for GUITask::GUITask()
    bootmaintask.o(i._ZN12BootMainTask3runEv) refers to event.o(i._ZN5EventC1Ev) for Event::Event()
    bootmaintask.o(i._ZN12BootMainTask3runEv) refers to keyevent.o(i._ZN8KeyEventC1Ev) for KeyEvent::KeyEvent()
    bootmaintask.o(i._ZN12BootMainTask3runEv) refers to bootmaintask.o(i._ZN8Receiver4recvEP5Eventj) for Receiver::recv(Event*, unsigned)
    bootmaintask.o(i._ZN12BootMainTask3runEv) refers to logevent.o(i._ZN8LogEvent4execEv) for LogEvent::exec()
    bootmaintask.o(i._ZN12BootMainTask3runEv) refers to deliverevent.o(i._ZN12DeliverEvent4execEv) for DeliverEvent::exec()
    bootmaintask.o(i._ZN12BootMainTask3runEv) refers to rtx_msgqueue.o(.text.osMessageQueueGet) for osMessageQueueGet
    bootmaintask.o(i._ZN12BootMainTask3runEv) refers to keyevent.o(i._ZN8KeyEvent4execEv) for KeyEvent::exec()
    bootmaintask.o(i._ZN12BootMainTask3runEv) refers to bootmaintask.o(.data__ZZN7DexUart8instanceEvE4uart) for guard variable for DexUart::instance()::uart
    bootmaintask.o(i._ZN12BootMainTask3runEv) refers to bootmaintask.o(.bss__ZZN7DexUart8instanceEvE4uart) for DexUart::instance()::uart
    bootmaintask.o(i._ZN12BootMainTask3runEv) refers to deliverwindow.o(.bss__ZZN12WaresManager8instanceEvE3man) for WaresManager::instance()::man
    bootmaintask.o(i._ZN12BootMainTask3runEv) refers to bootmaintask.o(.data__ZZN7DexTask8instanceEvE4task) for guard variable for DexTask::instance()::task
    bootmaintask.o(i._ZN12BootMainTask3runEv) refers to bootmaintask.o(.bss__ZZN7DexTask8instanceEvE4task) for DexTask::instance()::task
    bootmaintask.o(i._ZN12BootMainTask3runEv) refers to bootmaintask.o(.data__ZZN7GUITask8instanceEvE4task) for guard variable for GUITask::instance()::task
    bootmaintask.o(i._ZN12BootMainTask3runEv) refers to bootmaintask.o(.bss__ZZN7GUITask8instanceEvE4task) for GUITask::instance()::task
    bootmaintask.o(i._ZN12BootMainTaskC1Ev) refers to task.o(i._ZN4TaskC2EPKcPyj12osPriority_t) for Task::Task__sub_object(const char*, unsigned long long*, unsigned, osPriority_t)
    bootmaintask.o(i._ZN12BootMainTaskC1Ev) refers to bootmaintask.o(.constdata__ZTV12BootMainTask) for vtable for BootMainTask
    bootmaintask.o(.ARM.exidx) refers to bootmaintask.o(i._ZN12BootMainTask3runEv) for i._ZN12BootMainTask3runEv
    bootmaintask.o(.ARM.exidx) refers to bootmaintask.o(i._ZN12BootMainTaskC1Ev) for i._ZN12BootMainTaskC1Ev
    dextask.o(i._ZN7DexTask3runEv) refers to cxa_guard_acquire.o(i.__cxa_guard_acquire) for __cxa_guard_acquire
    dextask.o(i._ZN7DexTask3runEv) refers to dexuart.o(i._ZN7DexUartC1Ev) for DexUart::DexUart()
    dextask.o(i._ZN7DexTask3runEv) refers to dexevent.o(i._ZN8DexEventC1Ev) for DexEvent::DexEvent()
    dextask.o(i._ZN7DexTask3runEv) refers to rtx_msgqueue.o(.text.osMessageQueueGet) for osMessageQueueGet
    dextask.o(i._ZN7DexTask3runEv) refers to dexevent.o(i._ZN8DexEvent4execEv) for DexEvent::exec()
    dextask.o(i._ZN7DexTask3runEv) refers to bootmaintask.o(.data__ZZN7DexUart8instanceEvE4uart) for guard variable for DexUart::instance()::uart
    dextask.o(i._ZN7DexTask3runEv) refers to bootmaintask.o(.bss__ZZN7DexUart8instanceEvE4uart) for DexUart::instance()::uart
    dextask.o(i._ZN7DexTaskC1Ev) refers to task.o(i._ZN4TaskC2EPKcPyj12osPriority_t) for Task::Task__sub_object(const char*, unsigned long long*, unsigned, osPriority_t)
    dextask.o(i._ZN7DexTaskC1Ev) refers to dextask.o(.constdata__ZTV7DexTask) for vtable for DexTask
    dextask.o(.ARM.exidx) refers to dextask.o(i._ZN7DexTask3runEv) for i._ZN7DexTask3runEv
    dextask.o(.ARM.exidx) refers to dextask.o(i._ZN7DexTaskC1Ev) for i._ZN7DexTaskC1Ev
    loguart.o(i.USART3_IRQHandler) refers to cxa_guard_acquire.o(i.__cxa_guard_acquire) for __cxa_guard_acquire
    loguart.o(i.USART3_IRQHandler) refers to loguart.o(i._ZN7LogUartC1Ev) for LogUart::LogUart()
    loguart.o(i.USART3_IRQHandler) refers to rtx_msgqueue.o(.text.osMessageQueuePut) for osMessageQueuePut
    loguart.o(i.USART3_IRQHandler) refers to loguart.o(.data) for .data
    loguart.o(i.USART3_IRQHandler) refers to loguart.o(.bss) for .bss
    loguart.o(i.USART3_IRQHandler) refers to bootmaintask.o(.data__ZZN7LogUart8instanceEvE4uart) for guard variable for LogUart::instance()::uart
    loguart.o(i.USART3_IRQHandler) refers to bootmaintask.o(.bss__ZZN7LogUart8instanceEvE4uart) for LogUart::instance()::uart
    loguart.o(i._ZN7LogUart5writeEPKht) refers to rtx_mutex.o(.text.osMutexAcquire) for osMutexAcquire
    loguart.o(i._ZN7LogUart5writeEPKht) refers to loguart.o(i._ZN7LogUart5writeEh) for LogUart::write(unsigned char)
    loguart.o(i._ZN7LogUart5writeEPKht) refers to rtx_mutex.o(.text.osMutexRelease) for osMutexRelease
    loguart.o(i._ZN7LogUartC1Ev) refers to sender.o(i._ZN6SenderC1EPKc) for Sender::Sender(const char*)
    loguart.o(i._ZN7LogUartC1Ev) refers to receiver.o(i._ZN8ReceiverC1EPKcPyjj) for Receiver::Receiver(const char*, unsigned long long*, unsigned, unsigned)
    loguart.o(i._ZN7LogUartC1Ev) refers to loguart.o(.constdata__ZTV7LogUart) for vtable for LogUart
    loguart.o(i._ZN7LogUartC1Ev) refers to loguart.o(.bss) for .bss
    loguart.o(i.__sti___11_LogUart_cpp_f947086d) refers to event.o(i._ZN5EventC1Ev) for Event::Event()
    loguart.o(i.__sti___11_LogUart_cpp_f947086d) refers to loguart.o(.data) for .data
    loguart.o(.ARM.exidx) refers to loguart.o(i._ZN7LogUartC1Ev) for i._ZN7LogUartC1Ev
    loguart.o(.ARM.exidx) refers to loguart.o(i.USART3_IRQHandler) for i.USART3_IRQHandler
    loguart.o(.ARM.exidx) refers to loguart.o(i._ZN7LogUart5writeEh) for i._ZN7LogUart5writeEh
    loguart.o(.ARM.exidx) refers to loguart.o(i._ZN7LogUart5writeEPKht) for i._ZN7LogUart5writeEPKht
    loguart.o(.ARM.exidx) refers to loguart.o(i.__sti___11_LogUart_cpp_f947086d) for i.__sti___11_LogUart_cpp_f947086d
    loguart.o(.init_array) refers to loguart.o(i.__sti___11_LogUart_cpp_f947086d) for __sti___11_LogUart_cpp_f947086d
    loguart.o(.init_array) refers to init_aeabi.o(.text) for __cpp_initialize__aeabi_
    keyuart.o(i.UART4_IRQHandler) refers to cxa_guard_acquire.o(i.__cxa_guard_acquire) for __cxa_guard_acquire
    keyuart.o(i.UART4_IRQHandler) refers to keyuart.o(i._ZN7KeyUartC1Ev) for KeyUart::KeyUart()
    keyuart.o(i.UART4_IRQHandler) refers to rtx_msgqueue.o(.text.osMessageQueuePut) for osMessageQueuePut
    keyuart.o(i.UART4_IRQHandler) refers to keyuart.o(.data) for .data
    keyuart.o(i.UART4_IRQHandler) refers to bootmaintask.o(.data__ZZN7KeyUart8instanceEvE1k) for guard variable for KeyUart::instance()::k
    keyuart.o(i.UART4_IRQHandler) refers to bootmaintask.o(.bss__ZZN7KeyUart8instanceEvE1k) for KeyUart::instance()::k
    keyuart.o(i._ZN7KeyUartC1Ev) refers to receiver.o(i._ZN8ReceiverC1EPKcPyjj) for Receiver::Receiver(const char*, unsigned long long*, unsigned, unsigned)
    keyuart.o(i.__sti___11_KeyUart_cpp_a35c14c4) refers to keyevent.o(i._ZN8KeyEventC1Ev) for KeyEvent::KeyEvent()
    keyuart.o(i.__sti___11_KeyUart_cpp_a35c14c4) refers to keyuart.o(.data) for .data
    keyuart.o(.ARM.exidx) refers to keyuart.o(i._ZN7KeyUartC1Ev) for i._ZN7KeyUartC1Ev
    keyuart.o(.ARM.exidx) refers to keyuart.o(i.UART4_IRQHandler) for i.UART4_IRQHandler
    keyuart.o(.ARM.exidx) refers to keyuart.o(i.__sti___11_KeyUart_cpp_a35c14c4) for i.__sti___11_KeyUart_cpp_a35c14c4
    keyuart.o(.init_array) refers to keyuart.o(i.__sti___11_KeyUart_cpp_a35c14c4) for __sti___11_KeyUart_cpp_a35c14c4
    keyuart.o(.init_array) refers to init_aeabi.o(.text) for __cpp_initialize__aeabi_
    lcd.o(i._ZN26_INTERNAL_5_Lcd_c_3f75a81e11vInitDriverEv) refers to rtx_delay.o(.text.osDelay) for osDelay
    lcd.o(i.vLcdClear) refers to lcd.o(i._ZN26_INTERNAL_5_Lcd_c_3f75a81e14vLcdOpenWindowEtttt) for [local to Lcd_c]::vLcdOpenWindow(unsigned short, unsigned short, unsigned short, unsigned short)
    lcd.o(i.vLcdDrawRect) refers to lcd.o(i._ZN26_INTERNAL_5_Lcd_c_3f75a81e14vLcdOpenWindowEtttt) for [local to Lcd_c]::vLcdOpenWindow(unsigned short, unsigned short, unsigned short, unsigned short)
    lcd.o(i.vLcdDrawRectColor) refers to lcd.o(i._ZN26_INTERNAL_5_Lcd_c_3f75a81e14vLcdOpenWindowEtttt) for [local to Lcd_c]::vLcdOpenWindow(unsigned short, unsigned short, unsigned short, unsigned short)
    lcd.o(i.vLcdInit) refers to lcd.o(i._ZN26_INTERNAL_5_Lcd_c_3f75a81e9vInitGpioEv) for [local to Lcd_c]::vInitGpio()
    lcd.o(i.vLcdInit) refers to rtx_delay.o(.text.osDelay) for osDelay
    lcd.o(i.vLcdInit) refers to lcd.o(i._ZN26_INTERNAL_5_Lcd_c_3f75a81e11vInitDriverEv) for [local to Lcd_c]::vInitDriver()
    lcd.o(.ARM.exidx) refers to lcd.o(i._ZN26_INTERNAL_5_Lcd_c_3f75a81e14vLcdOpenWindowEtttt) for i._ZN26_INTERNAL_5_Lcd_c_3f75a81e14vLcdOpenWindowEtttt
    lcd.o(.ARM.exidx) refers to lcd.o(i.vLcdDrawRect) for i.vLcdDrawRect
    lcd.o(.ARM.exidx) refers to lcd.o(i.vLcdDrawRectColor) for i.vLcdDrawRectColor
    lcd.o(.ARM.exidx) refers to lcd.o(i.vLcdClear) for i.vLcdClear
    lcd.o(.ARM.exidx) refers to lcd.o(i.xLcdGetPixel) for i.xLcdGetPixel
    lcd.o(.ARM.exidx) refers to lcd.o(i.vLcdDrawPixel) for i.vLcdDrawPixel
    lcd.o(.ARM.exidx) refers to lcd.o(i._ZN26_INTERNAL_5_Lcd_c_3f75a81e11vInitDriverEv) for i._ZN26_INTERNAL_5_Lcd_c_3f75a81e11vInitDriverEv
    lcd.o(.ARM.exidx) refers to lcd.o(i._ZN26_INTERNAL_5_Lcd_c_3f75a81e9vInitGpioEv) for i._ZN26_INTERNAL_5_Lcd_c_3f75a81e9vInitGpioEv
    lcd.o(.ARM.exidx) refers to lcd.o(i.vLcdInit) for i.vLcdInit
    deliveruart.o(i.UART5_IRQHandler) refers to cxa_guard_acquire.o(i.__cxa_guard_acquire) for __cxa_guard_acquire
    deliveruart.o(i.UART5_IRQHandler) refers to deliveruart.o(i._ZN11DeliverUartC1Ev) for DeliverUart::DeliverUart()
    deliveruart.o(i.UART5_IRQHandler) refers to rtx_msgqueue.o(.text.osMessageQueuePut) for osMessageQueuePut
    deliveruart.o(i.UART5_IRQHandler) refers to deliveruart.o(.data) for .data
    deliveruart.o(i.UART5_IRQHandler) refers to deliveruart.o(.bss) for .bss
    deliveruart.o(i.UART5_IRQHandler) refers to bootmaintask.o(.data__ZZN11DeliverUart8instanceEvE4uart) for guard variable for DeliverUart::instance()::uart
    deliveruart.o(i.UART5_IRQHandler) refers to bootmaintask.o(.bss__ZZN11DeliverUart8instanceEvE4uart) for DeliverUart::instance()::uart
    deliveruart.o(i._ZN11DeliverUart5writeEPKht) refers to rtx_mutex.o(.text.osMutexAcquire) for osMutexAcquire
    deliveruart.o(i._ZN11DeliverUart5writeEPKht) refers to deliveruart.o(i._ZN11DeliverUart5writeEh) for DeliverUart::write(unsigned char)
    deliveruart.o(i._ZN11DeliverUart5writeEPKht) refers to rtx_mutex.o(.text.osMutexRelease) for osMutexRelease
    deliveruart.o(i._ZN11DeliverUartC1Ev) refers to sender.o(i._ZN6SenderC1EPKc) for Sender::Sender(const char*)
    deliveruart.o(i._ZN11DeliverUartC1Ev) refers to receiver.o(i._ZN8ReceiverC1EPKcPyjj) for Receiver::Receiver(const char*, unsigned long long*, unsigned, unsigned)
    deliveruart.o(i._ZN11DeliverUartC1Ev) refers to deliveruart.o(.constdata__ZTV11DeliverUart) for vtable for DeliverUart
    deliveruart.o(i._ZN11DeliverUartC1Ev) refers to deliveruart.o(.bss) for .bss
    deliveruart.o(i.__sti___15_DeliverUart_cpp_b337cb2c) refers to event.o(i._ZN5EventC1Ev) for Event::Event()
    deliveruart.o(i.__sti___15_DeliverUart_cpp_b337cb2c) refers to deliveruart.o(.data) for .data
    deliveruart.o(.ARM.exidx) refers to deliveruart.o(i._ZN11DeliverUartC1Ev) for i._ZN11DeliverUartC1Ev
    deliveruart.o(.ARM.exidx) refers to deliveruart.o(i.UART5_IRQHandler) for i.UART5_IRQHandler
    deliveruart.o(.ARM.exidx) refers to deliveruart.o(i._ZN11DeliverUart5writeEh) for i._ZN11DeliverUart5writeEh
    deliveruart.o(.ARM.exidx) refers to deliveruart.o(i._ZN11DeliverUart5writeEPKht) for i._ZN11DeliverUart5writeEPKht
    deliveruart.o(.ARM.exidx) refers to deliveruart.o(i.__sti___15_DeliverUart_cpp_b337cb2c) for i.__sti___15_DeliverUart_cpp_b337cb2c
    deliveruart.o(.init_array) refers to deliveruart.o(i.__sti___15_DeliverUart_cpp_b337cb2c) for __sti___15_DeliverUart_cpp_b337cb2c
    deliveruart.o(.init_array) refers to init_aeabi.o(.text) for __cpp_initialize__aeabi_
    flashmemory.o(i._ZN11FlashMemory12vPageProgramEjPKhj) refers to flashmemory.o(i._ZN11FlashMemory12vWriteEnableEv) for FlashMemory::vWriteEnable()
    flashmemory.o(i._ZN11FlashMemory12vPageProgramEjPKhj) refers to flashmemory.o(i._ZN11FlashMemory14xTranslateByteEh) for FlashMemory::xTranslateByte(unsigned char)
    flashmemory.o(i._ZN11FlashMemory12vPageProgramEjPKhj) refers to rtx_delay.o(.text.osDelay) for osDelay
    flashmemory.o(i._ZN11FlashMemory12vPageProgramEjPKhj) refers to flashmemory.o(i._ZN11FlashMemory12xQueryStatusEv) for FlashMemory::xQueryStatus()
    flashmemory.o(i._ZN11FlashMemory12vWriteEnableEv) refers to flashmemory.o(i._ZN11FlashMemory14xTranslateByteEh) for FlashMemory::xTranslateByte(unsigned char)
    flashmemory.o(i._ZN11FlashMemory12xQueryStatusEv) refers to flashmemory.o(i._ZN11FlashMemory14xTranslateByteEh) for FlashMemory::xTranslateByte(unsigned char)
    flashmemory.o(i._ZN11FlashMemory4readEjPhj) refers to flashmemory.o(i._ZN11FlashMemory14xTranslateByteEh) for FlashMemory::xTranslateByte(unsigned char)
    flashmemory.o(i._ZN11FlashMemory5earseEj) refers to flashmemory.o(i._ZN11FlashMemory12vWriteEnableEv) for FlashMemory::vWriteEnable()
    flashmemory.o(i._ZN11FlashMemory5earseEj) refers to flashmemory.o(i._ZN11FlashMemory14xTranslateByteEh) for FlashMemory::xTranslateByte(unsigned char)
    flashmemory.o(i._ZN11FlashMemory5earseEj) refers to rtx_delay.o(.text.osDelay) for osDelay
    flashmemory.o(i._ZN11FlashMemory5earseEj) refers to flashmemory.o(i._ZN11FlashMemory12xQueryStatusEv) for FlashMemory::xQueryStatus()
    flashmemory.o(i._ZN11FlashMemory5writeEjPKhj) refers to flashmemory.o(i._ZN11FlashMemory12vPageProgramEjPKhj) for FlashMemory::vPageProgram(unsigned, const unsigned char*, unsigned)
    flashmemory.o(i._ZN11FlashMemory6xGetIdEv) refers to flashmemory.o(i._ZN11FlashMemory14xTranslateByteEh) for FlashMemory::xTranslateByte(unsigned char)
    flashmemory.o(i._ZN11FlashMemoryC1Ev) refers to basebuffer.o(i._ZN10BaseBufferC2Ev) for BaseBuffer::BaseBuffer__sub_object()
    flashmemory.o(i._ZN11FlashMemoryC1Ev) refers to flashmemory.o(i._ZN11FlashMemory16initSpiInterfaceEv) for FlashMemory::initSpiInterface()
    flashmemory.o(i._ZN11FlashMemoryC1Ev) refers to flashmemory.o(.constdata__ZTV11FlashMemory) for vtable for FlashMemory
    flashmemory.o(.ARM.exidx) refers to flashmemory.o(i._ZN11FlashMemory14xTranslateByteEh) for i._ZN11FlashMemory14xTranslateByteEh
    flashmemory.o(.ARM.exidx) refers to flashmemory.o(i._ZN11FlashMemory4readEjPhj) for i._ZN11FlashMemory4readEjPhj
    flashmemory.o(.ARM.exidx) refers to flashmemory.o(i._ZN11FlashMemory12xQueryStatusEv) for i._ZN11FlashMemory12xQueryStatusEv
    flashmemory.o(.ARM.exidx) refers to flashmemory.o(i._ZN11FlashMemory12vWriteEnableEv) for i._ZN11FlashMemory12vWriteEnableEv
    flashmemory.o(.ARM.exidx) refers to flashmemory.o(i._ZN11FlashMemory12vPageProgramEjPKhj) for i._ZN11FlashMemory12vPageProgramEjPKhj
    flashmemory.o(.ARM.exidx) refers to flashmemory.o(i._ZN11FlashMemory5writeEjPKhj) for i._ZN11FlashMemory5writeEjPKhj
    flashmemory.o(.ARM.exidx) refers to flashmemory.o(i._ZN11FlashMemory5earseEj) for i._ZN11FlashMemory5earseEj
    flashmemory.o(.ARM.exidx) refers to flashmemory.o(i._ZN11FlashMemory6xGetIdEv) for i._ZN11FlashMemory6xGetIdEv
    flashmemory.o(.ARM.exidx) refers to flashmemory.o(i._ZN11FlashMemory16initSpiInterfaceEv) for i._ZN11FlashMemory16initSpiInterfaceEv
    flashmemory.o(.ARM.exidx) refers to flashmemory.o(i._ZN11FlashMemoryC1Ev) for i._ZN11FlashMemoryC1Ev
    dexuart.o(i.USART2_IRQHandler) refers to cxa_guard_acquire.o(i.__cxa_guard_acquire) for __cxa_guard_acquire
    dexuart.o(i.USART2_IRQHandler) refers to dexuart.o(i._ZN7DexUartC1Ev) for DexUart::DexUart()
    dexuart.o(i.USART2_IRQHandler) refers to rtx_msgqueue.o(.text.osMessageQueuePut) for osMessageQueuePut
    dexuart.o(i.USART2_IRQHandler) refers to dexuart.o(.data) for .data
    dexuart.o(i.USART2_IRQHandler) refers to dexuart.o(.bss) for .bss
    dexuart.o(i.USART2_IRQHandler) refers to bootmaintask.o(.data__ZZN7DexUart8instanceEvE4uart) for guard variable for DexUart::instance()::uart
    dexuart.o(i.USART2_IRQHandler) refers to bootmaintask.o(.bss__ZZN7DexUart8instanceEvE4uart) for DexUart::instance()::uart
    dexuart.o(i._ZN33_INTERNAL_11_DexUart_cpp_27dff44110DriverInitEv) refers to dexuart.o(.bss) for .bss
    dexuart.o(i._ZN7DexUartC1Ev) refers to dexoutput.o(i._ZN9DexOutputC2EPh) for DexOutput::DexOutput__sub_object(unsigned char*)
    dexuart.o(i._ZN7DexUartC1Ev) refers to receiver.o(i._ZN8ReceiverC1EPKcPyjj) for Receiver::Receiver(const char*, unsigned long long*, unsigned, unsigned)
    dexuart.o(i._ZN7DexUartC1Ev) refers to dexuart.o(i._ZN33_INTERNAL_11_DexUart_cpp_27dff44110DriverInitEv) for [local to DexUart_cpp]::DriverInit()
    dexuart.o(i._ZN7DexUartC1Ev) refers to dexuart.o(.constdata__ZTV7DexUart) for vtable for DexUart
    dexuart.o(i.__sti___11_DexUart_cpp_27dff441) refers to dexevent.o(i._ZN8DexEventC1Ev) for DexEvent::DexEvent()
    dexuart.o(i.__sti___11_DexUart_cpp_27dff441) refers to dexuart.o(.data) for .data
    dexuart.o(.ARM.exidx) refers to dexuart.o(i._ZN33_INTERNAL_11_DexUart_cpp_27dff44110DriverInitEv) for i._ZN33_INTERNAL_11_DexUart_cpp_27dff44110DriverInitEv
    dexuart.o(.ARM.exidx) refers to dexuart.o(i._ZN7DexUartC1Ev) for i._ZN7DexUartC1Ev
    dexuart.o(.ARM.exidx) refers to dexuart.o(i.USART2_IRQHandler) for i.USART2_IRQHandler
    dexuart.o(.ARM.exidx) refers to dexuart.o(i._ZN7DexUart5writeEPKhj) for i._ZN7DexUart5writeEPKhj
    dexuart.o(.ARM.exidx) refers to dexuart.o(i.__sti___11_DexUart_cpp_27dff441) for i.__sti___11_DexUart_cpp_27dff441
    dexuart.o(.init_array) refers to dexuart.o(i.__sti___11_DexUart_cpp_27dff441) for __sti___11_DexUart_cpp_27dff441
    dexuart.o(.init_array) refers to init_aeabi.o(.text) for __cpp_initialize__aeabi_
    event.o(i._ZN5Event9isCorrectEv) refers to event.o(i._ZN5Event11xorCheckSumEv) for Event::xorCheckSum()
    event.o(.ARM.exidx) refers to event.o(i._ZN5EventC1Ev) for i._ZN5EventC1Ev
    event.o(.ARM.exidx) refers to event.o(i._ZN5EventC1EPKhj) for i._ZN5EventC1EPKhj
    event.o(.ARM.exidx) refers to event.o(i._ZN5Event11xorCheckSumEv) for i._ZN5Event11xorCheckSumEv
    event.o(.ARM.exidx) refers to event.o(i._ZN5Event6getAckEPh) for i._ZN5Event6getAckEPh
    event.o(.ARM.exidx) refers to event.o(i._ZN5Event9isCorrectEv) for i._ZN5Event9isCorrectEv
    receiver.o(i._ZN8ReceiverC1EPKcPyjj) refers to rtx_msgqueue.o(.text.osMessageQueueNew) for osMessageQueueNew
    receiver.o(.ARM.exidx) refers to receiver.o(i._ZN8ReceiverC1EPKcPyjj) for i._ZN8ReceiverC1EPKcPyjj
    sender.o(i._ZN6SenderC1EPKc) refers to rtx_mutex.o(.text.osMutexNew) for osMutexNew
    sender.o(.ARM.exidx) refers to sender.o(i._ZN6SenderC1EPKc) for i._ZN6SenderC1EPKc
    logevent.o(i._ZN8LogEvent4execEv) refers to event.o(i._ZN5Event9isCorrectEv) for Event::isCorrect()
    logevent.o(i._ZN8LogEvent4execEv) refers to logevent.o(i._ZN9PayWindow8instanceEv) for PayWindow::instance()
    logevent.o(i._ZN8LogEvent4execEv) refers to logevent.o(i._ZN10MDBManager8instanceEv) for MDBManager::instance()
    logevent.o(i._ZN8LogEvent4execEv) refers to mdbmanager.o(i._ZN10MDBManager13onCashCheckedEj) for MDBManager::onCashChecked(unsigned)
    logevent.o(i._ZN8LogEvent4execEv) refers to logevent.o(i._ZN7GUITask8instanceEv) for GUITask::instance()
    logevent.o(i._ZN8LogEvent4execEv) refers to logevent.o(i._ZN10MDBManager10giveChangeEj) for MDBManager::giveChange(unsigned)
    logevent.o(i._ZN8LogEvent4execEv) refers to bootmaintask.o(i._ZN7LogUart8instanceEv) for LogUart::instance()
    logevent.o(i._ZN8LogEvent4execEv) refers to logevent.o(i._ZN10BaseOutput9setActionEh) for BaseOutput::setAction(unsigned char)
    logevent.o(i._ZN8LogEvent4execEv) refers to baseoutput.o(i._ZN10BaseOutput13buildAndWriteEv) for BaseOutput::buildAndWrite()
    logevent.o(i._ZN8LogEvent4execEv) refers to mdbmanager.o(i._ZN10MDBManager13onVposCheckedEv) for MDBManager::onVposChecked()
    logevent.o(i._ZN8LogEvent4execEv) refers to logevent.o(i._ZN7GUITask11sendMessageE9MessageId) for GUITask::sendMessage(MessageId)
    logevent.o(i._ZN8LogEvent4execEv) refers to logevent.o(i._ZN10BaseOutput7append1Eh) for BaseOutput::append1(unsigned char)
    logevent.o(.ARM.exidx) refers to logevent.o(i._ZN8LogEvent4execEv) for i._ZN8LogEvent4execEv
    keyevent.o(i._ZN8KeyEvent4execEv) refers to logevent.o(i._ZN7GUITask8instanceEv) for GUITask::instance()
    keyevent.o(i._ZN8KeyEvent4execEv) refers to logevent.o(i._ZN7GUITask11sendMessageE9MessageId) for GUITask::sendMessage(MessageId)
    keyevent.o(i._ZN8KeyEvent4execEv) refers to cxa_guard_acquire.o(i.__cxa_guard_acquire) for __cxa_guard_acquire
    keyevent.o(i._ZN8KeyEvent4execEv) refers to keyqueue.o(i._ZN8KeyQueueC1Ev) for KeyQueue::KeyQueue()
    keyevent.o(i._ZN8KeyEvent4execEv) refers to keyqueue.o(i._ZN8KeyQueue12pushAndCheckEt) for KeyQueue::pushAndCheck(unsigned short)
    keyevent.o(i._ZN8KeyEvent4execEv) refers to keyevent.o(.data__ZZN8KeyQueue8instanceEvE5queue) for guard variable for KeyQueue::instance()::queue
    keyevent.o(i._ZN8KeyEvent4execEv) refers to keyevent.o(.bss__ZZN8KeyQueue8instanceEvE5queue) for KeyQueue::instance()::queue
    keyevent.o(.ARM.exidx) refers to keyevent.o(i._ZN8KeyEventC1Ev) for i._ZN8KeyEventC1Ev
    keyevent.o(.ARM.exidx) refers to keyevent.o(i._ZN8KeyEventC1E8KeyValue) for i._ZN8KeyEventC1E8KeyValue
    keyevent.o(.ARM.exidx) refers to keyevent.o(i._ZN8KeyEvent4execEv) for i._ZN8KeyEvent4execEv
    deliverevent.o(i._ZN12DeliverEvent4execEv) refers to event.o(i._ZN5Event9isCorrectEv) for Event::isCorrect()
    deliverevent.o(i._ZN12DeliverEvent4execEv) refers to cxa_guard_acquire.o(i.__cxa_guard_acquire) for __cxa_guard_acquire
    deliverevent.o(i._ZN12DeliverEvent4execEv) refers to faultmanager.o(i._ZN12FaultManagerC1Ev) for FaultManager::FaultManager()
    deliverevent.o(i._ZN12DeliverEvent4execEv) refers to logevent.o(i._ZN7GUITask8instanceEv) for GUITask::instance()
    deliverevent.o(i._ZN12DeliverEvent4execEv) refers to logevent.o(i._ZN7GUITask11sendMessageE9MessageId) for GUITask::sendMessage(MessageId)
    deliverevent.o(i._ZN12DeliverEvent4execEv) refers to deliverevent.o(.data__ZZN12FaultManager8instanceEvE7manager) for guard variable for FaultManager::instance()::manager
    deliverevent.o(.ARM.exidx) refers to deliverevent.o(i._ZN12DeliverEvent4execEv) for i._ZN12DeliverEvent4execEv
    timer.o(i._ZN5TimerC2EPKc13osTimerType_t) refers to rtx_timer.o(.text.osTimerNew) for osTimerNew
    timer.o(i._ZN5TimerC2EPKc13osTimerType_t) refers to timer.o(.constdata__ZTV5Timer) for vtable for Timer
    timer.o(i._ZN5TimerC2EPKc13osTimerType_t) refers to timer.o(i._ZN5Timer13timerCallbackEPv) for Timer::timerCallback(void*)
    timer.o(.ARM.exidx) refers to timer.o(i._ZN5Timer13timerCallbackEPv) for i._ZN5Timer13timerCallbackEPv
    timer.o(.ARM.exidx) refers to timer.o(i._ZN5TimerC2EPKc13osTimerType_t) for i._ZN5TimerC2EPKc13osTimerType_t
    dexevent.o(i._ZN8DexEvent18onHandleHandShake1Ev) refers to dexevent.o(i._ZN7DexUart8instanceEv) for DexUart::instance()
    dexevent.o(i._ZN8DexEvent18onHandleHandShake1Ev) refers to dexoutput.o(i._ZN9DexOutput6appendEh) for DexOutput::append(unsigned char)
    dexevent.o(i._ZN8DexEvent18onHandleHandShake1Ev) refers to dexoutput.o(i._ZN9DexOutput13buildAndWriteEv) for DexOutput::buildAndWrite()
    dexevent.o(i._ZN8DexEvent18onHandleHandShake1Ev) refers to dexevent.o(.data) for .data
    dexevent.o(i._ZN8DexEvent18onHandleHandShake2Ev) refers to dexevent.o(i._ZN8DexEvent6isDLE0Ev) for DexEvent::isDLE0()
    dexevent.o(i._ZN8DexEvent18onHandleHandShake2Ev) refers to dexevent.o(i._ZN7DexUart8instanceEv) for DexUart::instance()
    dexevent.o(i._ZN8DexEvent18onHandleHandShake2Ev) refers to dexoutput.o(i._ZN9DexOutput6appendEh) for DexOutput::append(unsigned char)
    dexevent.o(i._ZN8DexEvent18onHandleHandShake2Ev) refers to dexoutput.o(i._ZN9DexOutput6appendEPKc) for DexOutput::append(const char*)
    dexevent.o(i._ZN8DexEvent18onHandleHandShake2Ev) refers to dexoutput.o(i._ZN9DexOutput16buildAndCRCWriteEv) for DexOutput::buildAndCRCWrite()
    dexevent.o(i._ZN8DexEvent18onHandleHandShake2Ev) refers to dexevent.o(i._ZN8DexEvent6isDLE1Ev) for DexEvent::isDLE1()
    dexevent.o(i._ZN8DexEvent18onHandleHandShake2Ev) refers to dexoutput.o(i._ZN9DexOutput13buildAndWriteEv) for DexOutput::buildAndWrite()
    dexevent.o(i._ZN8DexEvent18onHandleHandShake2Ev) refers to rtx_delay.o(.text.osDelay) for osDelay
    dexevent.o(i._ZN8DexEvent18onHandleHandShake2Ev) refers to dexevent.o(.data) for .data
    dexevent.o(i._ZN8DexEvent18onHandleHandShake3Ev) refers to dexevent.o(i._ZN14DexFileBuilder8instanceEv) for DexFileBuilder::instance()
    dexevent.o(i._ZN8DexEvent18onHandleHandShake3Ev) refers to dexevent.o(i._ZN8DexEvent6isDLE0Ev) for DexEvent::isDLE0()
    dexevent.o(i._ZN8DexEvent18onHandleHandShake3Ev) refers to dexevent.o(i._ZN8DexEvent6isDLE1Ev) for DexEvent::isDLE1()
    dexevent.o(i._ZN8DexEvent18onHandleHandShake3Ev) refers to dexevent.o(i._ZN7DexUart8instanceEv) for DexUart::instance()
    dexevent.o(i._ZN8DexEvent18onHandleHandShake3Ev) refers to dexoutput.o(i._ZN9DexOutput6appendEh) for DexOutput::append(unsigned char)
    dexevent.o(i._ZN8DexEvent18onHandleHandShake3Ev) refers to dexoutput.o(i._ZN9DexOutput13buildAndWriteEv) for DexOutput::buildAndWrite()
    dexevent.o(i._ZN8DexEvent18onHandleHandShake3Ev) refers to dexoutput.o(i._ZN9DexOutput6appendEPKhj) for DexOutput::append(const unsigned char*, unsigned)
    dexevent.o(i._ZN8DexEvent18onHandleHandShake3Ev) refers to dexoutput.o(i._ZN9DexOutput16buildAndCRCWriteEv) for DexOutput::buildAndCRCWrite()
    dexevent.o(i._ZN8DexEvent18onHandleHandShake3Ev) refers to dexevent.o(.data) for .data
    dexevent.o(i._ZN8DexEvent4execEv) refers to dexevent.o(i._ZN8DexEvent18onHandleHandShake3Ev) for DexEvent::onHandleHandShake3()
    dexevent.o(i._ZN8DexEvent4execEv) refers to cxa_guard_acquire.o(i.__cxa_guard_acquire) for __cxa_guard_acquire
    dexevent.o(i._ZN8DexEvent4execEv) refers to faultmanager.o(i._ZN12FaultManagerC1Ev) for FaultManager::FaultManager()
    dexevent.o(i._ZN8DexEvent4execEv) refers to dexevent.o(i._ZN14DexFileBuilder8instanceEv) for DexFileBuilder::instance()
    dexevent.o(i._ZN8DexEvent4execEv) refers to dexfilebuilder.o(i._ZN14DexFileBuilder4initEv) for DexFileBuilder::init()
    dexevent.o(i._ZN8DexEvent4execEv) refers to dexfilebuilder.o(i._ZN14DexFileBuilder6appendEPKcS1_z) for DexFileBuilder::append(const char*, const char*, ...)
    dexevent.o(i._ZN8DexEvent4execEv) refers to dexfilebuilder.o(i._ZN14DexFileBuilder5buildEv) for DexFileBuilder::build()
    dexevent.o(i._ZN8DexEvent4execEv) refers to dexevent.o(i._ZN7DexUart8instanceEv) for DexUart::instance()
    dexevent.o(i._ZN8DexEvent4execEv) refers to dexoutput.o(i._ZN9DexOutput6appendEh) for DexOutput::append(unsigned char)
    dexevent.o(i._ZN8DexEvent4execEv) refers to dexoutput.o(i._ZN9DexOutput13buildAndWriteEv) for DexOutput::buildAndWrite()
    dexevent.o(i._ZN8DexEvent4execEv) refers to dexevent.o(i._ZN8DexEvent18onHandleHandShake1Ev) for DexEvent::onHandleHandShake1()
    dexevent.o(i._ZN8DexEvent4execEv) refers to dexevent.o(i._ZN8DexEvent18onHandleHandShake2Ev) for DexEvent::onHandleHandShake2()
    dexevent.o(i._ZN8DexEvent4execEv) refers to dexevent.o(.data) for .data
    dexevent.o(i._ZN8DexEvent4execEv) refers to deliverwindow.o(.bss__ZZN12WaresManager8instanceEvE3man) for WaresManager::instance()::man
    dexevent.o(i._ZN8DexEvent4execEv) refers to deliverevent.o(.data__ZZN12FaultManager8instanceEvE7manager) for guard variable for FaultManager::instance()::manager
    dexevent.o(.ARM.exidx) refers to dexevent.o(i._ZN8DexEventC1Ev) for i._ZN8DexEventC1Ev
    dexevent.o(.ARM.exidx) refers to dexevent.o(i._ZN8DexEvent18onHandleHandShake3Ev) for i._ZN8DexEvent18onHandleHandShake3Ev
    dexevent.o(.ARM.exidx) refers to dexevent.o(i._ZN8DexEvent18onHandleHandShake2Ev) for i._ZN8DexEvent18onHandleHandShake2Ev
    dexevent.o(.ARM.exidx) refers to dexevent.o(i._ZN8DexEvent18onHandleHandShake1Ev) for i._ZN8DexEvent18onHandleHandShake1Ev
    dexevent.o(.ARM.exidx) refers to dexevent.o(i._ZN8DexEvent4execEv) for i._ZN8DexEvent4execEv
    basewindow.o(i._ZN10BaseWindow4showEl) refers to basewindow.o(i._ZN13WindowManager8instanceEv) for WindowManager::instance()
    basewindow.o(i._ZN10BaseWindow7dismissEv) refers to basewindow.o(i._ZN13WindowManager8instanceEv) for WindowManager::instance()
    basewindow.o(.ARM.exidx) refers to basewindow.o(i._ZN10BaseWindow4showEl) for i._ZN10BaseWindow4showEl
    basewindow.o(.ARM.exidx) refers to basewindow.o(i._ZN10BaseWindow7dismissEv) for i._ZN10BaseWindow7dismissEv
    pricewindow.o(i._ZN11PriceWindow12notifyUpdateEv) refers to _printf_pad.o(.text) for _printf_pre_padding
    pricewindow.o(i._ZN11PriceWindow12notifyUpdateEv) refers to _printf_percent.o(.ARM.Collect$$_printf_percent$$00000000) for _printf_percent
    pricewindow.o(i._ZN11PriceWindow12notifyUpdateEv) refers to _printf_d.o(.ARM.Collect$$_printf_percent$$00000009) for _printf_d
    pricewindow.o(i._ZN11PriceWindow12notifyUpdateEv) refers to _printf_dec.o(.text) for _printf_int_dec
    pricewindow.o(i._ZN11PriceWindow12notifyUpdateEv) refers to wm_lib.o(i.WM_GetDesktopWindow) for WM_GetDesktopWindow
    pricewindow.o(i._ZN11PriceWindow12notifyUpdateEv) refers to basewindow.o(i._ZN10BaseWindow4showEl) for BaseWindow::show(long)
    pricewindow.o(i._ZN11PriceWindow12notifyUpdateEv) refers to __2sprintf.o(.text) for __2sprintf
    pricewindow.o(i._ZN11PriceWindow12notifyUpdateEv) refers to edit.o(i.EDIT_SetText) for EDIT_SetText
    pricewindow.o(i._ZN11PriceWindow12notifyUpdateEv) refers to deliverwindow.o(.bss__ZZN12WaresManager8instanceEvE3man) for WaresManager::instance()::man
    pricewindow.o(i._ZN11PriceWindow15onHandleMessageE9MessageId) refers to pricewindow.o(i._ZN11PriceWindow8setStateEj) for PriceWindow::setState(unsigned)
    pricewindow.o(i._ZN11PriceWindow15onHandleMessageE9MessageId) refers to pricewindow.o(i._ZN18SettingPriceWindow8instanceEv) for SettingPriceWindow::instance()
    pricewindow.o(i._ZN11PriceWindow15onHandleMessageE9MessageId) refers to settingpricewindow.o(i._ZN18SettingPriceWindow10showWithIdElj) for SettingPriceWindow::showWithId(long, unsigned)
    pricewindow.o(i._ZN11PriceWindow4drawEv) refers to gui_common.o(i.GUI_SetColor) for GUI_SetColor
    pricewindow.o(i._ZN11PriceWindow4drawEv) refers to gui_circ.o(i.GUI_FillCircle) for GUI_FillCircle
    pricewindow.o(i._ZN11PriceWindow4drawEv) refers to gui_common.o(i.GUI_SetTextMode) for GUI_SetTextMode
    pricewindow.o(i._ZN11PriceWindow4drawEv) refers to gui_common.o(i.GUI_SetFont) for GUI_SetFont
    pricewindow.o(i._ZN11PriceWindow4drawEv) refers to gui_common.o(i.GUI_SetTextAlign) for GUI_SetTextAlign
    pricewindow.o(i._ZN11PriceWindow4drawEv) refers to gui_dispstring.o(i.GUI_DispStringHCenterAt) for GUI_DispStringHCenterAt
    pricewindow.o(i._ZN11PriceWindow4drawEv) refers to f32_1.o(.constdata) for GUI_Font32_1
    pricewindow.o(i._ZN11PriceWindow4showEl) refers to window.o(i.WINDOW_CreateUser) for WINDOW_CreateUser
    pricewindow.o(i._ZN11PriceWindow4showEl) refers to window.o(i.WINDOW_SetUserData) for WINDOW_SetUserData
    pricewindow.o(i._ZN11PriceWindow4showEl) refers to edit.o(i.EDIT_CreateEx) for EDIT_CreateEx
    pricewindow.o(i._ZN11PriceWindow4showEl) refers to edit.o(i.EDIT_SetTextAlign) for EDIT_SetTextAlign
    pricewindow.o(i._ZN11PriceWindow4showEl) refers to edit.o(i.EDIT_SetFont) for EDIT_SetFont
    pricewindow.o(i._ZN11PriceWindow4showEl) refers to pricewindow.o(i._ZN11PriceWindow12notifyUpdateEv) for PriceWindow::notifyUpdate()
    pricewindow.o(i._ZN11PriceWindow4showEl) refers to pricewindow.o(i._ZN37_INTERNAL_15_PriceWindow_cpp_8ebedba410_aCallbackEP10WM_MESSAGE) for [local to PriceWindow_cpp]::_aCallback(WM_MESSAGE*)
    pricewindow.o(i._ZN11PriceWindow4showEl) refers to f32_1.o(.constdata) for GUI_Font32_1
    pricewindow.o(i._ZN11PriceWindow7dismissEv) refers to basewindow.o(i._ZN10BaseWindow7dismissEv) for BaseWindow::dismiss()
    pricewindow.o(i._ZN11PriceWindow7dismissEv) refers to wm.o(i.WM_DeleteWindow) for WM_DeleteWindow
    pricewindow.o(i._ZN11PriceWindow8setStateEj) refers to edit.o(i.EDIT_SetBkColor) for EDIT_SetBkColor
    pricewindow.o(i._ZN11PriceWindow8setStateEj) refers to gui_time.o(i.GUI_Delay) for GUI_Delay
    pricewindow.o(i._ZN11PriceWindowC1Ev) refers to pricewindow.o(.constdata__ZTV11PriceWindow) for vtable for PriceWindow
    pricewindow.o(i._ZN37_INTERNAL_15_PriceWindow_cpp_8ebedba410_aCallbackEP10WM_MESSAGE) refers to window.o(i.WINDOW_GetUserData) for WINDOW_GetUserData
    pricewindow.o(i._ZN37_INTERNAL_15_PriceWindow_cpp_8ebedba410_aCallbackEP10WM_MESSAGE) refers to pricewindow.o(i._ZN11PriceWindow4drawEv) for PriceWindow::draw()
    pricewindow.o(.ARM.exidx) refers to pricewindow.o(i._ZN11PriceWindow4drawEv) for i._ZN11PriceWindow4drawEv
    pricewindow.o(.ARM.exidx) refers to pricewindow.o(i._ZN37_INTERNAL_15_PriceWindow_cpp_8ebedba410_aCallbackEP10WM_MESSAGE) for i._ZN37_INTERNAL_15_PriceWindow_cpp_8ebedba410_aCallbackEP10WM_MESSAGE
    pricewindow.o(.ARM.exidx) refers to pricewindow.o(i._ZN11PriceWindow12notifyUpdateEv) for i._ZN11PriceWindow12notifyUpdateEv
    pricewindow.o(.ARM.exidx) refers to pricewindow.o(i._ZN11PriceWindow4showEl) for i._ZN11PriceWindow4showEl
    pricewindow.o(.ARM.exidx) refers to pricewindow.o(i._ZN11PriceWindow7dismissEv) for i._ZN11PriceWindow7dismissEv
    pricewindow.o(.ARM.exidx) refers to pricewindow.o(i._ZN11PriceWindow8setStateEj) for i._ZN11PriceWindow8setStateEj
    pricewindow.o(.ARM.exidx) refers to pricewindow.o(i._ZN11PriceWindow15onHandleMessageE9MessageId) for i._ZN11PriceWindow15onHandleMessageE9MessageId
    pricewindow.o(.ARM.exidx) refers to pricewindow.o(i._ZN11PriceWindowC1Ev) for i._ZN11PriceWindowC1Ev
    paywindow.o(i._ZN35_INTERNAL_13_PayWindow_cpp_7653801810_aCallbackEP10WM_MESSAGE) refers to gui_common.o(i.GUI_SetBkColor) for GUI_SetBkColor
    paywindow.o(i._ZN35_INTERNAL_13_PayWindow_cpp_7653801810_aCallbackEP10WM_MESSAGE) refers to gui_core.o(i.GUI_Clear) for GUI_Clear
    paywindow.o(i._ZN9PayWindow12onCashUpdateEv) refers to _printf_percent.o(.ARM.Collect$$_printf_percent$$00000000) for _printf_percent
    paywindow.o(i._ZN9PayWindow12onCashUpdateEv) refers to _printf_f.o(.ARM.Collect$$_printf_percent$$00000003) for _printf_f
    paywindow.o(i._ZN9PayWindow12onCashUpdateEv) refers to printf1.o(x$fpl$printf1) for _printf_fp_dec
    paywindow.o(i._ZN9PayWindow12onCashUpdateEv) refers to logevent.o(i._ZN10MDBManager8instanceEv) for MDBManager::instance()
    paywindow.o(i._ZN9PayWindow12onCashUpdateEv) refers to f2d.o(x$fpl$f2d) for __aeabi_f2d
    paywindow.o(i._ZN9PayWindow12onCashUpdateEv) refers to __2sprintf.o(.text) for __2sprintf
    paywindow.o(i._ZN9PayWindow12onCashUpdateEv) refers to text.o(i.TEXT_SetText) for TEXT_SetText
    paywindow.o(i._ZN9PayWindow12onCashUpdateEv) refers to gui_time.o(i.GUI_Delay) for GUI_Delay
    paywindow.o(i._ZN9PayWindow12onCashUpdateEv) refers to guitask.o(i._ZN16BackgroundWindow8instanceEv) for BackgroundWindow::instance()
    paywindow.o(i._ZN9PayWindow12onCashUpdateEv) refers to backgroundwindow.o(i._ZN16BackgroundWindow7deliverEv) for BackgroundWindow::deliver()
    paywindow.o(i._ZN9PayWindow12onCashUpdateEv) refers to wm_lib.o(i.WM_GetDesktopWindow) for WM_GetDesktopWindow
    paywindow.o(i._ZN9PayWindow12onCashUpdateEv) refers to paywindow.o(i._ZN13DeliverWindow8instanceEv) for DeliverWindow::instance()
    paywindow.o(i._ZN9PayWindow12onCashUpdateEv) refers to deliverwindow.o(i._ZN13DeliverWindow15showWithTimeOutElj) for DeliverWindow::showWithTimeOut(long, unsigned)
    paywindow.o(i._ZN9PayWindow12onTimerEventEv) refers to cxa_guard_acquire.o(i.__cxa_guard_acquire) for __cxa_guard_acquire
    paywindow.o(i._ZN9PayWindow12onTimerEventEv) refers to guitask.o(i._ZN7GUITaskC1Ev) for GUITask::GUITask()
    paywindow.o(i._ZN9PayWindow12onTimerEventEv) refers to rtx_msgqueue.o(.text.osMessageQueuePut) for osMessageQueuePut
    paywindow.o(i._ZN9PayWindow12onTimerEventEv) refers to bootmaintask.o(.data__ZZN7GUITask8instanceEvE4task) for guard variable for GUITask::instance()::task
    paywindow.o(i._ZN9PayWindow12onTimerEventEv) refers to bootmaintask.o(.bss__ZZN7GUITask8instanceEvE4task) for GUITask::instance()::task
    paywindow.o(i._ZN9PayWindow12onVposUpdateEv) refers to __2sprintf.o(.text) for __2sprintf
    paywindow.o(i._ZN9PayWindow12onVposUpdateEv) refers to text.o(i.TEXT_SetText) for TEXT_SetText
    paywindow.o(i._ZN9PayWindow12onVposUpdateEv) refers to logevent.o(i._ZN10MDBManager8instanceEv) for MDBManager::instance()
    paywindow.o(i._ZN9PayWindow12onVposUpdateEv) refers to gui_time.o(i.GUI_Delay) for GUI_Delay
    paywindow.o(i._ZN9PayWindow12onVposUpdateEv) refers to guitask.o(i._ZN16BackgroundWindow8instanceEv) for BackgroundWindow::instance()
    paywindow.o(i._ZN9PayWindow12onVposUpdateEv) refers to backgroundwindow.o(i._ZN16BackgroundWindow7deliverEv) for BackgroundWindow::deliver()
    paywindow.o(i._ZN9PayWindow12onVposUpdateEv) refers to wm_lib.o(i.WM_GetDesktopWindow) for WM_GetDesktopWindow
    paywindow.o(i._ZN9PayWindow12onVposUpdateEv) refers to paywindow.o(i._ZN13DeliverWindow8instanceEv) for DeliverWindow::instance()
    paywindow.o(i._ZN9PayWindow12onVposUpdateEv) refers to deliverwindow.o(i._ZN13DeliverWindow15showWithTimeOutElj) for DeliverWindow::showWithTimeOut(long, unsigned)
    paywindow.o(i._ZN9PayWindow13showWithPriceElj) refers to _printf_percent.o(.ARM.Collect$$_printf_percent$$00000000) for _printf_percent
    paywindow.o(i._ZN9PayWindow13showWithPriceElj) refers to _printf_f.o(.ARM.Collect$$_printf_percent$$00000003) for _printf_f
    paywindow.o(i._ZN9PayWindow13showWithPriceElj) refers to printf1.o(x$fpl$printf1) for _printf_fp_dec
    paywindow.o(i._ZN9PayWindow13showWithPriceElj) refers to basewindow.o(i._ZN10BaseWindow4showEl) for BaseWindow::show(long)
    paywindow.o(i._ZN9PayWindow13showWithPriceElj) refers to window.o(i.WINDOW_CreateUser) for WINDOW_CreateUser
    paywindow.o(i._ZN9PayWindow13showWithPriceElj) refers to text.o(i.TEXT_CreateEx) for TEXT_CreateEx
    paywindow.o(i._ZN9PayWindow13showWithPriceElj) refers to text.o(i.TEXT_SetFont) for TEXT_SetFont
    paywindow.o(i._ZN9PayWindow13showWithPriceElj) refers to text.o(i.TEXT_SetTextColor) for TEXT_SetTextColor
    paywindow.o(i._ZN9PayWindow13showWithPriceElj) refers to text.o(i.TEXT_SetTextAlign) for TEXT_SetTextAlign
    paywindow.o(i._ZN9PayWindow13showWithPriceElj) refers to f2d.o(x$fpl$f2d) for __aeabi_f2d
    paywindow.o(i._ZN9PayWindow13showWithPriceElj) refers to __2sprintf.o(.text) for __2sprintf
    paywindow.o(i._ZN9PayWindow13showWithPriceElj) refers to text.o(i.TEXT_SetText) for TEXT_SetText
    paywindow.o(i._ZN9PayWindow13showWithPriceElj) refers to logevent.o(i._ZN10MDBManager8instanceEv) for MDBManager::instance()
    paywindow.o(i._ZN9PayWindow13showWithPriceElj) refers to mdbmanager.o(i._ZN10MDBManager10onPayStartEj) for MDBManager::onPayStart(unsigned)
    paywindow.o(i._ZN9PayWindow13showWithPriceElj) refers to rtx_timer.o(.text.osTimerStart) for osTimerStart
    paywindow.o(i._ZN9PayWindow13showWithPriceElj) refers to paywindow.o(i._ZN35_INTERNAL_13_PayWindow_cpp_7653801810_aCallbackEP10WM_MESSAGE) for [local to PayWindow_cpp]::_aCallback(WM_MESSAGE*)
    paywindow.o(i._ZN9PayWindow13showWithPriceElj) refers to f32_ascii.o(.constdata) for GUI_Font32_ASCII
    paywindow.o(i._ZN9PayWindow13showWithPriceElj) refers to f24_ascii.o(.constdata) for GUI_Font24_ASCII
    paywindow.o(i._ZN9PayWindow15onHandleMessageE9MessageId) refers to paywindow.o(i._ZN9PayWindow12onVposUpdateEv) for PayWindow::onVposUpdate()
    paywindow.o(i._ZN9PayWindow15onHandleMessageE9MessageId) refers to paywindow.o(i._ZN9PayWindow12onCashUpdateEv) for PayWindow::onCashUpdate()
    paywindow.o(i._ZN9PayWindow7dismissEv) refers to basewindow.o(i._ZN10BaseWindow7dismissEv) for BaseWindow::dismiss()
    paywindow.o(i._ZN9PayWindow7dismissEv) refers to wm.o(i.WM_DeleteWindow) for WM_DeleteWindow
    paywindow.o(i._ZN9PayWindow7dismissEv) refers to rtx_timer.o(.text.osTimerStop) for osTimerStop
    paywindow.o(i._ZN9PayWindow7dismissEv) refers to guitask.o(i._ZN16BackgroundWindow8instanceEv) for BackgroundWindow::instance()
    paywindow.o(i._ZN9PayWindow7dismissEv) refers to logevent.o(i._ZN10MDBManager8instanceEv) for MDBManager::instance()
    paywindow.o(i._ZN9PayWindow7dismissEv) refers to mdbmanager.o(i._ZN10MDBManager9onPayStopEv) for MDBManager::onPayStop()
    paywindow.o(i._ZN9PayWindowC1Ev) refers to timer.o(i._ZN5TimerC2EPKc13osTimerType_t) for Timer::Timer__sub_object(const char*, osTimerType_t)
    paywindow.o(i._ZN9PayWindowC1Ev) refers to paywindow.o(.constdata__ZTV9PayWindow) for vtable for PayWindow
    paywindow.o(i._ZThn8_N9PayWindow12onTimerEventEv) refers to paywindow.o(i._ZN9PayWindow12onTimerEventEv) for PayWindow::onTimerEvent()
    paywindow.o(.ARM.exidx) refers to paywindow.o(i._ZN35_INTERNAL_13_PayWindow_cpp_7653801810_aCallbackEP10WM_MESSAGE) for i._ZN35_INTERNAL_13_PayWindow_cpp_7653801810_aCallbackEP10WM_MESSAGE
    paywindow.o(.ARM.exidx) refers to paywindow.o(i._ZN9PayWindowC1Ev) for i._ZN9PayWindowC1Ev
    paywindow.o(.ARM.exidx) refers to paywindow.o(i._ZN9PayWindow13showWithPriceElj) for i._ZN9PayWindow13showWithPriceElj
    paywindow.o(.ARM.exidx) refers to paywindow.o(i._ZN9PayWindow12onVposUpdateEv) for i._ZN9PayWindow12onVposUpdateEv
    paywindow.o(.ARM.exidx) refers to paywindow.o(i._ZN9PayWindow12onCashUpdateEv) for i._ZN9PayWindow12onCashUpdateEv
    paywindow.o(.ARM.exidx) refers to paywindow.o(i._ZN9PayWindow15onHandleMessageE9MessageId) for i._ZN9PayWindow15onHandleMessageE9MessageId
    paywindow.o(.ARM.exidx) refers to paywindow.o(i._ZN9PayWindow12onTimerEventEv) for i._ZN9PayWindow12onTimerEventEv
    paywindow.o(.ARM.exidx) refers to paywindow.o(i._ZThn8_N9PayWindow12onTimerEventEv) for i._ZThn8_N9PayWindow12onTimerEventEv
    paywindow.o(.ARM.exidx) refers to paywindow.o(i._ZN9PayWindow7dismissEv) for i._ZN9PayWindow7dismissEv
    backgroundwindow.o(i._Z17displayTrapezoid1j) refers to gui_common.o(i.GUI_SetColor) for GUI_SetColor
    backgroundwindow.o(i._Z17displayTrapezoid1j) refers to backgroundwindow.o(i._ZN9UiPolygon8instanceEv) for UiPolygon::instance()
    backgroundwindow.o(i._Z17displayTrapezoid1j) refers to backgroundwindow.o(i._ZN9UiPolygon6appendEss) for UiPolygon::append(short, short)
    backgroundwindow.o(i._Z17displayTrapezoid1j) refers to backgroundwindow.o(i._ZN9UiPolygon4fillEii) for UiPolygon::fill(int, int)
    backgroundwindow.o(i._Z17displayTrapezoid2j) refers to gui_common.o(i.GUI_SetColor) for GUI_SetColor
    backgroundwindow.o(i._Z17displayTrapezoid2j) refers to backgroundwindow.o(i._ZN9UiPolygon8instanceEv) for UiPolygon::instance()
    backgroundwindow.o(i._Z17displayTrapezoid2j) refers to backgroundwindow.o(i._ZN9UiPolygon6appendEss) for UiPolygon::append(short, short)
    backgroundwindow.o(i._Z17displayTrapezoid2j) refers to backgroundwindow.o(i._ZN9UiPolygon4fillEii) for UiPolygon::fill(int, int)
    backgroundwindow.o(i._Z17displayTrapezoid3j) refers to gui_common.o(i.GUI_SetColor) for GUI_SetColor
    backgroundwindow.o(i._Z17displayTrapezoid3j) refers to backgroundwindow.o(i._ZN9UiPolygon8instanceEv) for UiPolygon::instance()
    backgroundwindow.o(i._Z17displayTrapezoid3j) refers to backgroundwindow.o(i._ZN9UiPolygon6appendEss) for UiPolygon::append(short, short)
    backgroundwindow.o(i._Z17displayTrapezoid3j) refers to backgroundwindow.o(i._ZN9UiPolygon4fillEii) for UiPolygon::fill(int, int)
    backgroundwindow.o(i._Z17displayTrapezoid4j) refers to gui_common.o(i.GUI_SetColor) for GUI_SetColor
    backgroundwindow.o(i._Z17displayTrapezoid4j) refers to backgroundwindow.o(i._ZN9UiPolygon8instanceEv) for UiPolygon::instance()
    backgroundwindow.o(i._Z17displayTrapezoid4j) refers to backgroundwindow.o(i._ZN9UiPolygon6appendEss) for UiPolygon::append(short, short)
    backgroundwindow.o(i._Z17displayTrapezoid4j) refers to backgroundwindow.o(i._ZN9UiPolygon4fillEii) for UiPolygon::fill(int, int)
    backgroundwindow.o(i._Z17displayTrapezoid5j) refers to gui_common.o(i.GUI_SetColor) for GUI_SetColor
    backgroundwindow.o(i._Z17displayTrapezoid5j) refers to backgroundwindow.o(i._ZN9UiPolygon8instanceEv) for UiPolygon::instance()
    backgroundwindow.o(i._Z17displayTrapezoid5j) refers to backgroundwindow.o(i._ZN9UiPolygon6appendEss) for UiPolygon::append(short, short)
    backgroundwindow.o(i._Z17displayTrapezoid5j) refers to backgroundwindow.o(i._ZN9UiPolygon4fillEii) for UiPolygon::fill(int, int)
    backgroundwindow.o(i._ZN16BackgroundWindow10onCallbackEP10WM_MESSAGE) refers to wm.o(i.WM_DefaultProc) for WM_DefaultProc
    backgroundwindow.o(i._ZN16BackgroundWindow10onCallbackEP10WM_MESSAGE) refers to guitask.o(i._ZN16BackgroundWindow8instanceEv) for BackgroundWindow::instance()
    backgroundwindow.o(i._ZN16BackgroundWindow10onCallbackEP10WM_MESSAGE) refers to backgroundwindow.o(i._ZN16BackgroundWindow4drawEv) for BackgroundWindow::draw()
    backgroundwindow.o(i._ZN16BackgroundWindow11getAllPriceEv) refers to deliverwindow.o(.bss__ZZN12WaresManager8instanceEvE3man) for WaresManager::instance()::man
    backgroundwindow.o(i._ZN16BackgroundWindow12drawForAndToEttj) refers to backgroundwindow.o(.data) for .data
    backgroundwindow.o(i._ZN16BackgroundWindow15onHandleMessageE9MessageId) refers to backgroundwindow.o(i._ZN16BackgroundWindow11getAllCountEv) for BackgroundWindow::getAllCount()
    backgroundwindow.o(i._ZN16BackgroundWindow15onHandleMessageE9MessageId) refers to backgroundwindow.o(i._ZN16BackgroundWindow13clearAllCountEv) for BackgroundWindow::clearAllCount()
    backgroundwindow.o(i._ZN16BackgroundWindow15onHandleMessageE9MessageId) refers to wm_lib.o(i.WM_GetDesktopWindow) for WM_GetDesktopWindow
    backgroundwindow.o(i._ZN16BackgroundWindow15onHandleMessageE9MessageId) refers to wm.o(i.WM_InvalidateWindow) for WM_InvalidateWindow
    backgroundwindow.o(i._ZN16BackgroundWindow15onHandleMessageE9MessageId) refers to cxa_guard_acquire.o(i.__cxa_guard_acquire) for __cxa_guard_acquire
    backgroundwindow.o(i._ZN16BackgroundWindow15onHandleMessageE9MessageId) refers to passwordwindow.o(i._ZN14PasswordWindowC1Ev) for PasswordWindow::PasswordWindow()
    backgroundwindow.o(i._ZN16BackgroundWindow15onHandleMessageE9MessageId) refers to waresmanager.o(i._ZN12WaresManager15setSelectNumberEPKt) for WaresManager::setSelectNumber(const unsigned short*)
    backgroundwindow.o(i._ZN16BackgroundWindow15onHandleMessageE9MessageId) refers to backgroundwindow.o(i._ZN16BackgroundWindow11getAllPriceEv) for BackgroundWindow::getAllPrice()
    backgroundwindow.o(i._ZN16BackgroundWindow15onHandleMessageE9MessageId) refers to paywindow.o(i._ZN9PayWindowC1Ev) for PayWindow::PayWindow()
    backgroundwindow.o(i._ZN16BackgroundWindow15onHandleMessageE9MessageId) refers to paywindow.o(i._ZN9PayWindow13showWithPriceElj) for PayWindow::showWithPrice(long, unsigned)
    backgroundwindow.o(i._ZN16BackgroundWindow15onHandleMessageE9MessageId) refers to backgroundwindow.o(.data__ZZN14PasswordWindow8instanceEvE3win) for guard variable for PasswordWindow::instance()::win
    backgroundwindow.o(i._ZN16BackgroundWindow15onHandleMessageE9MessageId) refers to backgroundwindow.o(.bss__ZZN14PasswordWindow8instanceEvE3win) for PasswordWindow::instance()::win
    backgroundwindow.o(i._ZN16BackgroundWindow15onHandleMessageE9MessageId) refers to deliverwindow.o(.bss__ZZN12WaresManager8instanceEvE3man) for WaresManager::instance()::man
    backgroundwindow.o(i._ZN16BackgroundWindow15onHandleMessageE9MessageId) refers to logevent.o(.data__ZZN9PayWindow8instanceEvE7hWindow) for guard variable for PayWindow::instance()::hWindow
    backgroundwindow.o(i._ZN16BackgroundWindow15onHandleMessageE9MessageId) refers to logevent.o(.bss__ZZN9PayWindow8instanceEvE7hWindow) for PayWindow::instance()::hWindow
    backgroundwindow.o(i._ZN16BackgroundWindow4drawEv) refers to _printf_pad.o(.text) for _printf_pre_padding
    backgroundwindow.o(i._ZN16BackgroundWindow4drawEv) refers to _printf_percent.o(.ARM.Collect$$_printf_percent$$00000000) for _printf_percent
    backgroundwindow.o(i._ZN16BackgroundWindow4drawEv) refers to _printf_d.o(.ARM.Collect$$_printf_percent$$00000009) for _printf_d
    backgroundwindow.o(i._ZN16BackgroundWindow4drawEv) refers to _printf_dec.o(.text) for _printf_int_dec
    backgroundwindow.o(i._ZN16BackgroundWindow4drawEv) refers to gui_common.o(i.GUI_SetBkColor) for GUI_SetBkColor
    backgroundwindow.o(i._ZN16BackgroundWindow4drawEv) refers to gui_core.o(i.GUI_Clear) for GUI_Clear
    backgroundwindow.o(i._ZN16BackgroundWindow4drawEv) refers to gui_common.o(i.GUI_SetColor) for GUI_SetColor
    backgroundwindow.o(i._ZN16BackgroundWindow4drawEv) refers to gui_drawlib.o(i.GUI_FillRect) for GUI_FillRect
    backgroundwindow.o(i._ZN16BackgroundWindow4drawEv) refers to backgroundwindow.o(i._ZN9UiPolygon8instanceEv) for UiPolygon::instance()
    backgroundwindow.o(i._ZN16BackgroundWindow4drawEv) refers to backgroundwindow.o(i._ZN9UiPolygon6appendEss) for UiPolygon::append(short, short)
    backgroundwindow.o(i._ZN16BackgroundWindow4drawEv) refers to backgroundwindow.o(i._ZN9UiPolygon4fillEii) for UiPolygon::fill(int, int)
    backgroundwindow.o(i._ZN16BackgroundWindow4drawEv) refers to gui_common.o(i.GUI_SetPenSize) for GUI_SetPenSize
    backgroundwindow.o(i._ZN16BackgroundWindow4drawEv) refers to gui_arc.o(i.GUI_DrawArc) for GUI_DrawArc
    backgroundwindow.o(i._ZN16BackgroundWindow4drawEv) refers to gui_common.o(i.GUI_SetTextAlign) for GUI_SetTextAlign
    backgroundwindow.o(i._ZN16BackgroundWindow4drawEv) refers to gui_common.o(i.GUI_SetTextMode) for GUI_SetTextMode
    backgroundwindow.o(i._ZN16BackgroundWindow4drawEv) refers to gui_common.o(i.GUI_SetFont) for GUI_SetFont
    backgroundwindow.o(i._ZN16BackgroundWindow4drawEv) refers to gui_dispstring.o(i.GUI_DispStringHCenterAt) for GUI_DispStringHCenterAt
    backgroundwindow.o(i._ZN16BackgroundWindow4drawEv) refers to backgroundwindow.o(i._ZN16BackgroundWindow11getAllCountEv) for BackgroundWindow::getAllCount()
    backgroundwindow.o(i._ZN16BackgroundWindow4drawEv) refers to backgroundwindow.o(i._ZN16BackgroundWindow11getAllPriceEv) for BackgroundWindow::getAllPrice()
    backgroundwindow.o(i._ZN16BackgroundWindow4drawEv) refers to backgroundwindow.o(i._ZN16BackgroundWindow12drawForAndToEttj) for BackgroundWindow::drawForAndTo(unsigned short, unsigned short, unsigned)
    backgroundwindow.o(i._ZN16BackgroundWindow4drawEv) refers to __2sprintf.o(.text) for __2sprintf
    backgroundwindow.o(i._ZN16BackgroundWindow4drawEv) refers to f32b_1.o(.constdata) for GUI_Font32B_1
    backgroundwindow.o(i._ZN16BackgroundWindow4drawEv) refers to backgroundwindow.o(.data) for .data
    backgroundwindow.o(i._ZN16BackgroundWindow4drawEv) refers to f32_1.o(.constdata) for GUI_Font32_1
    backgroundwindow.o(i._ZN16BackgroundWindow7deliverEv) refers to cxa_guard_acquire.o(i.__cxa_guard_acquire) for __cxa_guard_acquire
    backgroundwindow.o(i._ZN16BackgroundWindow7deliverEv) refers to deliveruart.o(i._ZN11DeliverUartC1Ev) for DeliverUart::DeliverUart()
    backgroundwindow.o(i._ZN16BackgroundWindow7deliverEv) refers to logevent.o(i._ZN10BaseOutput7append1Eh) for BaseOutput::append1(unsigned char)
    backgroundwindow.o(i._ZN16BackgroundWindow7deliverEv) refers to baseoutput.o(i._ZN10BaseOutput13buildAndWriteEv) for BaseOutput::buildAndWrite()
    backgroundwindow.o(i._ZN16BackgroundWindow7deliverEv) refers to bootmaintask.o(.data__ZZN11DeliverUart8instanceEvE4uart) for guard variable for DeliverUart::instance()::uart
    backgroundwindow.o(i._ZN16BackgroundWindow7deliverEv) refers to bootmaintask.o(.bss__ZZN11DeliverUart8instanceEvE4uart) for DeliverUart::instance()::uart
    backgroundwindow.o(i._ZN16BackgroundWindowC1Ev) refers to wm_lib.o(i.WM_GetDesktopWindow) for WM_GetDesktopWindow
    backgroundwindow.o(i._ZN16BackgroundWindowC1Ev) refers to wm_lib.o(i.WM_SetCallback) for WM_SetCallback
    backgroundwindow.o(i._ZN16BackgroundWindowC1Ev) refers to backgroundwindow.o(i._ZN16BackgroundWindow13clearAllCountEv) for BackgroundWindow::clearAllCount()
    backgroundwindow.o(i._ZN16BackgroundWindowC1Ev) refers to backgroundwindow.o(.constdata__ZTV16BackgroundWindow) for vtable for BackgroundWindow
    backgroundwindow.o(i._ZN16BackgroundWindowC1Ev) refers to backgroundwindow.o(i._ZN42_INTERNAL_20_BackgroundWindow_cpp_0f62893c25aBackgroundWindowCallbackEP10WM_MESSAGE) for [local to BackgroundWindow_cpp]::aBackgroundWindowCallback(WM_MESSAGE*)
    backgroundwindow.o(i._ZN42_INTERNAL_20_BackgroundWindow_cpp_0f62893c25aBackgroundWindowCallbackEP10WM_MESSAGE) refers to guitask.o(i._ZN16BackgroundWindow8instanceEv) for BackgroundWindow::instance()
    backgroundwindow.o(i._ZN42_INTERNAL_20_BackgroundWindow_cpp_0f62893c25aBackgroundWindowCallbackEP10WM_MESSAGE) refers to backgroundwindow.o(i._ZN16BackgroundWindow10onCallbackEP10WM_MESSAGE) for BackgroundWindow::onCallback(WM_MESSAGE*)
    backgroundwindow.o(.ARM.exidx) refers to backgroundwindow.o(i._ZN16BackgroundWindowC1Ev) for i._ZN16BackgroundWindowC1Ev
    backgroundwindow.o(.ARM.exidx) refers to backgroundwindow.o(i._ZN16BackgroundWindow12drawForAndToEttj) for i._ZN16BackgroundWindow12drawForAndToEttj
    backgroundwindow.o(.ARM.exidx) refers to backgroundwindow.o(i._ZN16BackgroundWindow11getAllPriceEv) for i._ZN16BackgroundWindow11getAllPriceEv
    backgroundwindow.o(.ARM.exidx) refers to backgroundwindow.o(i._ZN16BackgroundWindow4drawEv) for i._ZN16BackgroundWindow4drawEv
    backgroundwindow.o(.ARM.exidx) refers to backgroundwindow.o(i._ZN16BackgroundWindow10onCallbackEP10WM_MESSAGE) for i._ZN16BackgroundWindow10onCallbackEP10WM_MESSAGE
    backgroundwindow.o(.ARM.exidx) refers to backgroundwindow.o(i._ZN42_INTERNAL_20_BackgroundWindow_cpp_0f62893c25aBackgroundWindowCallbackEP10WM_MESSAGE) for i._ZN42_INTERNAL_20_BackgroundWindow_cpp_0f62893c25aBackgroundWindowCallbackEP10WM_MESSAGE
    backgroundwindow.o(.ARM.exidx) refers to backgroundwindow.o(i._Z17displayTrapezoid1j) for i._Z17displayTrapezoid1j
    backgroundwindow.o(.ARM.exidx) refers to backgroundwindow.o(i._Z17displayTrapezoid2j) for i._Z17displayTrapezoid2j
    backgroundwindow.o(.ARM.exidx) refers to backgroundwindow.o(i._Z17displayTrapezoid3j) for i._Z17displayTrapezoid3j
    backgroundwindow.o(.ARM.exidx) refers to backgroundwindow.o(i._Z17displayTrapezoid4j) for i._Z17displayTrapezoid4j
    backgroundwindow.o(.ARM.exidx) refers to backgroundwindow.o(i._Z17displayTrapezoid5j) for i._Z17displayTrapezoid5j
    backgroundwindow.o(.ARM.exidx) refers to backgroundwindow.o(i._ZN16BackgroundWindow15onHandleMessageE9MessageId) for i._ZN16BackgroundWindow15onHandleMessageE9MessageId
    backgroundwindow.o(.ARM.exidx) refers to backgroundwindow.o(i._ZN16BackgroundWindow4showEl) for i._ZN16BackgroundWindow4showEl
    backgroundwindow.o(.ARM.exidx) refers to backgroundwindow.o(i._ZN16BackgroundWindow7deliverEv) for i._ZN16BackgroundWindow7deliverEv
    backgroundwindow.o(.data) refers to backgroundwindow.o(i._Z17displayTrapezoid5j) for displayTrapezoid5(unsigned)
    backgroundwindow.o(.data) refers to backgroundwindow.o(i._Z17displayTrapezoid4j) for displayTrapezoid4(unsigned)
    backgroundwindow.o(.data) refers to backgroundwindow.o(i._Z17displayTrapezoid3j) for displayTrapezoid3(unsigned)
    backgroundwindow.o(.data) refers to backgroundwindow.o(i._Z17displayTrapezoid2j) for displayTrapezoid2(unsigned)
    backgroundwindow.o(.data) refers to backgroundwindow.o(i._Z17displayTrapezoid1j) for displayTrapezoid1(unsigned)
    backgroundwindow.o(.data) refers to backgroundwindow.o(.conststring) for .conststring
    changepinwindow.o(i._ZN15ChangePINWindow10appendTextEc) refers to edit.o(i.EDIT_SetText) for EDIT_SetText
    changepinwindow.o(i._ZN15ChangePINWindow15onHandleMessageE9MessageId) refers to changepinwindow.o(i._ZN15ChangePINWindow10appendTextEc) for ChangePINWindow::appendText(char)
    changepinwindow.o(i._ZN15ChangePINWindow15onHandleMessageE9MessageId) refers to changepinwindow.o(i._ZN15ChangePINWindow5enterEv) for ChangePINWindow::enter()
    changepinwindow.o(i._ZN15ChangePINWindow4drawEv) refers to gui_common.o(i.GUI_SetBkColor) for GUI_SetBkColor
    changepinwindow.o(i._ZN15ChangePINWindow4drawEv) refers to gui_core.o(i.GUI_Clear) for GUI_Clear
    changepinwindow.o(i._ZN15ChangePINWindow4drawEv) refers to gui_common.o(i.GUI_SetColor) for GUI_SetColor
    changepinwindow.o(i._ZN15ChangePINWindow4drawEv) refers to gui_common.o(i.GUI_SetFont) for GUI_SetFont
    changepinwindow.o(i._ZN15ChangePINWindow4drawEv) refers to gui_circ.o(i.GUI_FillCircle) for GUI_FillCircle
    changepinwindow.o(i._ZN15ChangePINWindow4drawEv) refers to gui_common.o(i.GUI_SetTextAlign) for GUI_SetTextAlign
    changepinwindow.o(i._ZN15ChangePINWindow4drawEv) refers to gui_common.o(i.GUI_SetTextMode) for GUI_SetTextMode
    changepinwindow.o(i._ZN15ChangePINWindow4drawEv) refers to gui_dispstring.o(i.GUI_DispStringHCenterAt) for GUI_DispStringHCenterAt
    changepinwindow.o(i._ZN15ChangePINWindow4drawEv) refers to f24_1.o(.constdata) for GUI_Font24_1
    changepinwindow.o(i._ZN15ChangePINWindow4showEl) refers to basewindow.o(i._ZN10BaseWindow4showEl) for BaseWindow::show(long)
    changepinwindow.o(i._ZN15ChangePINWindow4showEl) refers to window.o(i.WINDOW_CreateUser) for WINDOW_CreateUser
    changepinwindow.o(i._ZN15ChangePINWindow4showEl) refers to window.o(i.WINDOW_SetUserData) for WINDOW_SetUserData
    changepinwindow.o(i._ZN15ChangePINWindow4showEl) refers to edit.o(i.EDIT_CreateEx) for EDIT_CreateEx
    changepinwindow.o(i._ZN15ChangePINWindow4showEl) refers to edit.o(i.EDIT_SetTextAlign) for EDIT_SetTextAlign
    changepinwindow.o(i._ZN15ChangePINWindow4showEl) refers to edit.o(i.EDIT_SetFont) for EDIT_SetFont
    changepinwindow.o(i._ZN15ChangePINWindow4showEl) refers to text.o(i.TEXT_CreateEx) for TEXT_CreateEx
    changepinwindow.o(i._ZN15ChangePINWindow4showEl) refers to text.o(i.TEXT_SetFont) for TEXT_SetFont
    changepinwindow.o(i._ZN15ChangePINWindow4showEl) refers to text.o(i.TEXT_SetTextAlign) for TEXT_SetTextAlign
    changepinwindow.o(i._ZN15ChangePINWindow4showEl) refers to uistatus.o(i._ZN8UiStatus4showEl) for UiStatus::show(long)
    changepinwindow.o(i._ZN15ChangePINWindow4showEl) refers to edit.o(i.EDIT_SetBkColor) for EDIT_SetBkColor
    changepinwindow.o(i._ZN15ChangePINWindow4showEl) refers to changepinwindow.o(i._ZN41_INTERNAL_19_ChangePINWindow_cpp_5a95a52a10_aCallbackEP10WM_MESSAGE) for [local to ChangePINWindow_cpp]::_aCallback(WM_MESSAGE*)
    changepinwindow.o(i._ZN15ChangePINWindow4showEl) refers to f32_1.o(.constdata) for GUI_Font32_1
    changepinwindow.o(i._ZN15ChangePINWindow4showEl) refers to f24_1.o(.constdata) for GUI_Font24_1
    changepinwindow.o(i._ZN15ChangePINWindow5enterEv) refers to waresmanager.o(i._ZN12WaresManager11setPasswordEPKc) for WaresManager::setPassword(const char*)
    changepinwindow.o(i._ZN15ChangePINWindow5enterEv) refers to uistatus.o(i._ZN8UiStatus9setStatusENS_6StatusE) for UiStatus::setStatus(UiStatus::Status)
    changepinwindow.o(i._ZN15ChangePINWindow5enterEv) refers to gui_time.o(i.GUI_Delay) for GUI_Delay
    changepinwindow.o(i._ZN15ChangePINWindow5enterEv) refers to waresmanager.o(i._ZN12WaresManager16isPasswordEqualsEPKc) for WaresManager::isPasswordEquals(const char*)
    changepinwindow.o(i._ZN15ChangePINWindow5enterEv) refers to edit.o(i.EDIT_SetBkColor) for EDIT_SetBkColor
    changepinwindow.o(i._ZN15ChangePINWindow5enterEv) refers to waresmanager.o(i._ZN12WaresManager23isPasswordDefaultEqualsEPKc) for WaresManager::isPasswordDefaultEquals(const char*)
    changepinwindow.o(i._ZN15ChangePINWindow5enterEv) refers to deliverwindow.o(.bss__ZZN12WaresManager8instanceEvE3man) for WaresManager::instance()::man
    changepinwindow.o(i._ZN15ChangePINWindow7dismissEv) refers to basewindow.o(i._ZN10BaseWindow7dismissEv) for BaseWindow::dismiss()
    changepinwindow.o(i._ZN15ChangePINWindow7dismissEv) refers to uistatus.o(i._ZN8UiStatus7dismissEv) for UiStatus::dismiss()
    changepinwindow.o(i._ZN15ChangePINWindow7dismissEv) refers to wm.o(i.WM_DeleteWindow) for WM_DeleteWindow
    changepinwindow.o(i._ZN15ChangePINWindowC1Ev) refers to uistatus.o(i._ZN8UiStatusC1Etttt) for UiStatus::UiStatus(unsigned short, unsigned short, unsigned short, unsigned short)
    changepinwindow.o(i._ZN15ChangePINWindowC1Ev) refers to changepinwindow.o(.constdata__ZTV15ChangePINWindow) for vtable for ChangePINWindow
    changepinwindow.o(i._ZN41_INTERNAL_19_ChangePINWindow_cpp_5a95a52a10_aCallbackEP10WM_MESSAGE) refers to window.o(i.WINDOW_GetUserData) for WINDOW_GetUserData
    changepinwindow.o(i._ZN41_INTERNAL_19_ChangePINWindow_cpp_5a95a52a10_aCallbackEP10WM_MESSAGE) refers to changepinwindow.o(i._ZN15ChangePINWindow4drawEv) for ChangePINWindow::draw()
    changepinwindow.o(.ARM.exidx) refers to changepinwindow.o(i._ZN15ChangePINWindow4drawEv) for i._ZN15ChangePINWindow4drawEv
    changepinwindow.o(.ARM.exidx) refers to changepinwindow.o(i._ZN41_INTERNAL_19_ChangePINWindow_cpp_5a95a52a10_aCallbackEP10WM_MESSAGE) for i._ZN41_INTERNAL_19_ChangePINWindow_cpp_5a95a52a10_aCallbackEP10WM_MESSAGE
    changepinwindow.o(.ARM.exidx) refers to changepinwindow.o(i._ZN15ChangePINWindow4showEl) for i._ZN15ChangePINWindow4showEl
    changepinwindow.o(.ARM.exidx) refers to changepinwindow.o(i._ZN15ChangePINWindow7dismissEv) for i._ZN15ChangePINWindow7dismissEv
    changepinwindow.o(.ARM.exidx) refers to changepinwindow.o(i._ZN15ChangePINWindow10appendTextEc) for i._ZN15ChangePINWindow10appendTextEc
    changepinwindow.o(.ARM.exidx) refers to changepinwindow.o(i._ZN15ChangePINWindow5enterEv) for i._ZN15ChangePINWindow5enterEv
    changepinwindow.o(.ARM.exidx) refers to changepinwindow.o(i._ZN15ChangePINWindow15onHandleMessageE9MessageId) for i._ZN15ChangePINWindow15onHandleMessageE9MessageId
    changepinwindow.o(.ARM.exidx) refers to changepinwindow.o(i._ZN15ChangePINWindowC1Ev) for i._ZN15ChangePINWindowC1Ev
    passwordwindow.o(i._ZN14PasswordWindow15onHandleMessageE9MessageId) refers to passwordwindow.o(i._ZN14PasswordWindow6appendEc) for PasswordWindow::append(char)
    passwordwindow.o(i._ZN14PasswordWindow15onHandleMessageE9MessageId) refers to passwordwindow.o(i._ZN14PasswordWindow9isCheckedEv) for PasswordWindow::isChecked()
    passwordwindow.o(i._ZN14PasswordWindow15onHandleMessageE9MessageId) refers to cxa_guard_acquire.o(i.__cxa_guard_acquire) for __cxa_guard_acquire
    passwordwindow.o(i._ZN14PasswordWindow15onHandleMessageE9MessageId) refers to systemconfigwindow.o(i._ZN18SystemConfigWindowC1Ev) for SystemConfigWindow::SystemConfigWindow()
    passwordwindow.o(i._ZN14PasswordWindow15onHandleMessageE9MessageId) refers to wm_lib.o(i.WM_GetDesktopWindow) for WM_GetDesktopWindow
    passwordwindow.o(i._ZN14PasswordWindow15onHandleMessageE9MessageId) refers to passwordwindow.o(.data__ZZN18SystemConfigWindow8instanceEvE3win) for guard variable for SystemConfigWindow::instance()::win
    passwordwindow.o(i._ZN14PasswordWindow15onHandleMessageE9MessageId) refers to passwordwindow.o(.bss__ZZN18SystemConfigWindow8instanceEvE3win) for SystemConfigWindow::instance()::win
    passwordwindow.o(i._ZN14PasswordWindow4drawEv) refers to gui_common.o(i.GUI_SetBkColor) for GUI_SetBkColor
    passwordwindow.o(i._ZN14PasswordWindow4drawEv) refers to gui_core.o(i.GUI_Clear) for GUI_Clear
    passwordwindow.o(i._ZN14PasswordWindow4drawEv) refers to gui_common.o(i.GUI_SetColor) for GUI_SetColor
    passwordwindow.o(i._ZN14PasswordWindow4drawEv) refers to gui_circ.o(i.GUI_FillCircle) for GUI_FillCircle
    passwordwindow.o(i._ZN14PasswordWindow4drawEv) refers to gui_common.o(i.GUI_SetTextMode) for GUI_SetTextMode
    passwordwindow.o(i._ZN14PasswordWindow4drawEv) refers to gui_common.o(i.GUI_SetFont) for GUI_SetFont
    passwordwindow.o(i._ZN14PasswordWindow4drawEv) refers to gui_common.o(i.GUI_SetTextAlign) for GUI_SetTextAlign
    passwordwindow.o(i._ZN14PasswordWindow4drawEv) refers to gui_dispstring.o(i.GUI_DispStringHCenterAt) for GUI_DispStringHCenterAt
    passwordwindow.o(i._ZN14PasswordWindow4drawEv) refers to f24_1.o(.constdata) for GUI_Font24_1
    passwordwindow.o(i._ZN14PasswordWindow4drawEv) refers to f16_1.o(.constdata) for GUI_Font16_1
    passwordwindow.o(i._ZN14PasswordWindow4showEl) refers to basewindow.o(i._ZN10BaseWindow4showEl) for BaseWindow::show(long)
    passwordwindow.o(i._ZN14PasswordWindow4showEl) refers to window.o(i.WINDOW_CreateUser) for WINDOW_CreateUser
    passwordwindow.o(i._ZN14PasswordWindow4showEl) refers to window.o(i.WINDOW_SetUserData) for WINDOW_SetUserData
    passwordwindow.o(i._ZN14PasswordWindow4showEl) refers to edit.o(i.EDIT_CreateEx) for EDIT_CreateEx
    passwordwindow.o(i._ZN14PasswordWindow4showEl) refers to edit.o(i.EDIT_SetTextAlign) for EDIT_SetTextAlign
    passwordwindow.o(i._ZN14PasswordWindow4showEl) refers to edit.o(i.EDIT_SetFont) for EDIT_SetFont
    passwordwindow.o(i._ZN14PasswordWindow4showEl) refers to edit.o(i.EDIT_SetText) for EDIT_SetText
    passwordwindow.o(i._ZN14PasswordWindow4showEl) refers to passwordwindow.o(i._ZN40_INTERNAL_18_PasswordWindow_cpp_a4702a8b10_aCallbackEP10WM_MESSAGE) for [local to PasswordWindow_cpp]::_aCallback(WM_MESSAGE*)
    passwordwindow.o(i._ZN14PasswordWindow4showEl) refers to fd48.o(.constdata) for GUI_FontD48
    passwordwindow.o(i._ZN14PasswordWindow5clearEv) refers to edit.o(i.EDIT_SetText) for EDIT_SetText
    passwordwindow.o(i._ZN14PasswordWindow6appendEc) refers to edit.o(i.EDIT_SetText) for EDIT_SetText
    passwordwindow.o(i._ZN14PasswordWindow7dismissEv) refers to basewindow.o(i._ZN10BaseWindow7dismissEv) for BaseWindow::dismiss()
    passwordwindow.o(i._ZN14PasswordWindow7dismissEv) refers to wm.o(i.WM_DeleteWindow) for WM_DeleteWindow
    passwordwindow.o(i._ZN14PasswordWindow9isCheckedEv) refers to waresmanager.o(i._ZN12WaresManager16isPasswordEqualsEPKc) for WaresManager::isPasswordEquals(const char*)
    passwordwindow.o(i._ZN14PasswordWindow9isCheckedEv) refers to waresmanager.o(i._ZN12WaresManager23isPasswordDefaultEqualsEPKc) for WaresManager::isPasswordDefaultEquals(const char*)
    passwordwindow.o(i._ZN14PasswordWindow9isCheckedEv) refers to deliverwindow.o(.bss__ZZN12WaresManager8instanceEvE3man) for WaresManager::instance()::man
    passwordwindow.o(i._ZN14PasswordWindowC1Ev) refers to passwordwindow.o(.constdata__ZTV14PasswordWindow) for vtable for PasswordWindow
    passwordwindow.o(i._ZN40_INTERNAL_18_PasswordWindow_cpp_a4702a8b10_aCallbackEP10WM_MESSAGE) refers to window.o(i.WINDOW_GetUserData) for WINDOW_GetUserData
    passwordwindow.o(i._ZN40_INTERNAL_18_PasswordWindow_cpp_a4702a8b10_aCallbackEP10WM_MESSAGE) refers to passwordwindow.o(i._ZN14PasswordWindow4drawEv) for PasswordWindow::draw()
    passwordwindow.o(.ARM.exidx) refers to passwordwindow.o(i._ZN14PasswordWindow4drawEv) for i._ZN14PasswordWindow4drawEv
    passwordwindow.o(.ARM.exidx) refers to passwordwindow.o(i._ZN40_INTERNAL_18_PasswordWindow_cpp_a4702a8b10_aCallbackEP10WM_MESSAGE) for i._ZN40_INTERNAL_18_PasswordWindow_cpp_a4702a8b10_aCallbackEP10WM_MESSAGE
    passwordwindow.o(.ARM.exidx) refers to passwordwindow.o(i._ZN14PasswordWindow4showEl) for i._ZN14PasswordWindow4showEl
    passwordwindow.o(.ARM.exidx) refers to passwordwindow.o(i._ZN14PasswordWindow7dismissEv) for i._ZN14PasswordWindow7dismissEv
    passwordwindow.o(.ARM.exidx) refers to passwordwindow.o(i._ZN14PasswordWindow6appendEc) for i._ZN14PasswordWindow6appendEc
    passwordwindow.o(.ARM.exidx) refers to passwordwindow.o(i._ZN14PasswordWindow9isCheckedEv) for i._ZN14PasswordWindow9isCheckedEv
    passwordwindow.o(.ARM.exidx) refers to passwordwindow.o(i._ZN14PasswordWindow15onHandleMessageE9MessageId) for i._ZN14PasswordWindow15onHandleMessageE9MessageId
    passwordwindow.o(.ARM.exidx) refers to passwordwindow.o(i._ZN14PasswordWindow5clearEv) for i._ZN14PasswordWindow5clearEv
    passwordwindow.o(.ARM.exidx) refers to passwordwindow.o(i._ZN14PasswordWindowC1Ev) for i._ZN14PasswordWindowC1Ev
    settingpricewindow.o(i._ZN18SettingPriceWindow10appendTextEc) refers to edit.o(i.EDIT_SetText) for EDIT_SetText
    settingpricewindow.o(i._ZN18SettingPriceWindow10showWithIdElj) refers to _printf_percent.o(.ARM.Collect$$_printf_percent$$00000000) for _printf_percent
    settingpricewindow.o(i._ZN18SettingPriceWindow10showWithIdElj) refers to _printf_f.o(.ARM.Collect$$_printf_percent$$00000003) for _printf_f
    settingpricewindow.o(i._ZN18SettingPriceWindow10showWithIdElj) refers to printf1.o(x$fpl$printf1) for _printf_fp_dec
    settingpricewindow.o(i._ZN18SettingPriceWindow10showWithIdElj) refers to basewindow.o(i._ZN10BaseWindow4showEl) for BaseWindow::show(long)
    settingpricewindow.o(i._ZN18SettingPriceWindow10showWithIdElj) refers to window.o(i.WINDOW_CreateUser) for WINDOW_CreateUser
    settingpricewindow.o(i._ZN18SettingPriceWindow10showWithIdElj) refers to window.o(i.WINDOW_SetUserData) for WINDOW_SetUserData
    settingpricewindow.o(i._ZN18SettingPriceWindow10showWithIdElj) refers to text.o(i.TEXT_CreateEx) for TEXT_CreateEx
    settingpricewindow.o(i._ZN18SettingPriceWindow10showWithIdElj) refers to text.o(i.TEXT_SetFont) for TEXT_SetFont
    settingpricewindow.o(i._ZN18SettingPriceWindow10showWithIdElj) refers to text.o(i.TEXT_SetTextAlign) for TEXT_SetTextAlign
    settingpricewindow.o(i._ZN18SettingPriceWindow10showWithIdElj) refers to edit.o(i.EDIT_CreateEx) for EDIT_CreateEx
    settingpricewindow.o(i._ZN18SettingPriceWindow10showWithIdElj) refers to edit.o(i.EDIT_SetFont) for EDIT_SetFont
    settingpricewindow.o(i._ZN18SettingPriceWindow10showWithIdElj) refers to edit.o(i.EDIT_SetTextAlign) for EDIT_SetTextAlign
    settingpricewindow.o(i._ZN18SettingPriceWindow10showWithIdElj) refers to f2d.o(x$fpl$f2d) for __aeabi_f2d
    settingpricewindow.o(i._ZN18SettingPriceWindow10showWithIdElj) refers to __2sprintf.o(.text) for __2sprintf
    settingpricewindow.o(i._ZN18SettingPriceWindow10showWithIdElj) refers to edit.o(i.EDIT_SetText) for EDIT_SetText
    settingpricewindow.o(i._ZN18SettingPriceWindow10showWithIdElj) refers to edit.o(i.EDIT_SetBkColor) for EDIT_SetBkColor
    settingpricewindow.o(i._ZN18SettingPriceWindow10showWithIdElj) refers to edit.o(i.EDIT_SetTextColor) for EDIT_SetTextColor
    settingpricewindow.o(i._ZN18SettingPriceWindow10showWithIdElj) refers to uistatus.o(i._ZN8UiStatus4showEl) for UiStatus::show(long)
    settingpricewindow.o(i._ZN18SettingPriceWindow10showWithIdElj) refers to settingpricewindow.o(i._ZN44_INTERNAL_22_SettingPriceWindow_cpp_23b8cd9710_aCallbackEP10WM_MESSAGE) for [local to SettingPriceWindow_cpp]::_aCallback(WM_MESSAGE*)
    settingpricewindow.o(i._ZN18SettingPriceWindow10showWithIdElj) refers to f24_1.o(.constdata) for GUI_Font24_1
    settingpricewindow.o(i._ZN18SettingPriceWindow10showWithIdElj) refers to deliverwindow.o(.bss__ZZN12WaresManager8instanceEvE3man) for WaresManager::instance()::man
    settingpricewindow.o(i._ZN18SettingPriceWindow15onHandleMessageE9MessageId) refers to settingpricewindow.o(i._ZN18SettingPriceWindow10appendTextEc) for SettingPriceWindow::appendText(char)
    settingpricewindow.o(i._ZN18SettingPriceWindow15onHandleMessageE9MessageId) refers to settingpricewindow.o(i._ZN18SettingPriceWindow9savePriceEv) for SettingPriceWindow::savePrice()
    settingpricewindow.o(i._ZN18SettingPriceWindow4drawEv) refers to gui_common.o(i.GUI_SetColor) for GUI_SetColor
    settingpricewindow.o(i._ZN18SettingPriceWindow4drawEv) refers to gui_circ.o(i.GUI_FillCircle) for GUI_FillCircle
    settingpricewindow.o(i._ZN18SettingPriceWindow4drawEv) refers to gui_common.o(i.GUI_SetTextMode) for GUI_SetTextMode
    settingpricewindow.o(i._ZN18SettingPriceWindow4drawEv) refers to gui_common.o(i.GUI_SetTextAlign) for GUI_SetTextAlign
    settingpricewindow.o(i._ZN18SettingPriceWindow4drawEv) refers to gui_common.o(i.GUI_SetFont) for GUI_SetFont
    settingpricewindow.o(i._ZN18SettingPriceWindow4drawEv) refers to gui_dispstring.o(i.GUI_DispStringHCenterAt) for GUI_DispStringHCenterAt
    settingpricewindow.o(i._ZN18SettingPriceWindow4drawEv) refers to f32_1.o(.constdata) for GUI_Font32_1
    settingpricewindow.o(i._ZN18SettingPriceWindow4drawEv) refers to stringresources.o(.data) for Strings
    settingpricewindow.o(i._ZN18SettingPriceWindow7dismissEv) refers to basewindow.o(i._ZN10BaseWindow7dismissEv) for BaseWindow::dismiss()
    settingpricewindow.o(i._ZN18SettingPriceWindow7dismissEv) refers to wm.o(i.WM_DeleteWindow) for WM_DeleteWindow
    settingpricewindow.o(i._ZN18SettingPriceWindow7dismissEv) refers to cxa_guard_acquire.o(i.__cxa_guard_acquire) for __cxa_guard_acquire
    settingpricewindow.o(i._ZN18SettingPriceWindow7dismissEv) refers to pricewindow.o(i._ZN11PriceWindowC1Ev) for PriceWindow::PriceWindow()
    settingpricewindow.o(i._ZN18SettingPriceWindow7dismissEv) refers to pricewindow.o(i._ZN11PriceWindow12notifyUpdateEv) for PriceWindow::notifyUpdate()
    settingpricewindow.o(i._ZN18SettingPriceWindow7dismissEv) refers to settingpricewindow.o(.data__ZZN11PriceWindow8instanceEvE3win) for guard variable for PriceWindow::instance()::win
    settingpricewindow.o(i._ZN18SettingPriceWindow7dismissEv) refers to settingpricewindow.o(.bss__ZZN11PriceWindow8instanceEvE3win) for PriceWindow::instance()::win
    settingpricewindow.o(i._ZN18SettingPriceWindow9savePriceEv) refers to _scanf_int.o(.text) for _scanf_int
    settingpricewindow.o(i._ZN18SettingPriceWindow9savePriceEv) refers to __0sscanf.o(.text) for __0sscanf
    settingpricewindow.o(i._ZN18SettingPriceWindow9savePriceEv) refers to uistatus.o(i._ZN8UiStatus9setStatusENS_6StatusE) for UiStatus::setStatus(UiStatus::Status)
    settingpricewindow.o(i._ZN18SettingPriceWindow9savePriceEv) refers to gui_time.o(i.GUI_Delay) for GUI_Delay
    settingpricewindow.o(i._ZN18SettingPriceWindow9savePriceEv) refers to cxa_guard_acquire.o(i.__cxa_guard_acquire) for __cxa_guard_acquire
    settingpricewindow.o(i._ZN18SettingPriceWindow9savePriceEv) refers to flashmemory.o(i._ZN11FlashMemoryC1Ev) for FlashMemory::FlashMemory()
    settingpricewindow.o(i._ZN18SettingPriceWindow9savePriceEv) refers to basebuffer.o(i._ZN10BaseBuffer14writeByteArrayEjPKhj) for BaseBuffer::writeByteArray(unsigned, const unsigned char*, unsigned)
    settingpricewindow.o(i._ZN18SettingPriceWindow9savePriceEv) refers to text.o(i.TEXT_SetText) for TEXT_SetText
    settingpricewindow.o(i._ZN18SettingPriceWindow9savePriceEv) refers to deliverwindow.o(.bss__ZZN12WaresManager8instanceEvE3man) for WaresManager::instance()::man
    settingpricewindow.o(i._ZN18SettingPriceWindow9savePriceEv) refers to bootmaintask.o(.data__ZZN11FlashMemory8instanceEvE1m) for guard variable for FlashMemory::instance()::m
    settingpricewindow.o(i._ZN18SettingPriceWindow9savePriceEv) refers to bootmaintask.o(.bss__ZZN11FlashMemory8instanceEvE1m) for FlashMemory::instance()::m
    settingpricewindow.o(i._ZN18SettingPriceWindowC1Ev) refers to uistatus.o(i._ZN8UiStatusC1Etttt) for UiStatus::UiStatus(unsigned short, unsigned short, unsigned short, unsigned short)
    settingpricewindow.o(i._ZN18SettingPriceWindowC1Ev) refers to settingpricewindow.o(.constdata__ZTV18SettingPriceWindow) for vtable for SettingPriceWindow
    settingpricewindow.o(i._ZN44_INTERNAL_22_SettingPriceWindow_cpp_23b8cd9710_aCallbackEP10WM_MESSAGE) refers to window.o(i.WINDOW_GetUserData) for WINDOW_GetUserData
    settingpricewindow.o(i._ZN44_INTERNAL_22_SettingPriceWindow_cpp_23b8cd9710_aCallbackEP10WM_MESSAGE) refers to settingpricewindow.o(i._ZN18SettingPriceWindow4drawEv) for SettingPriceWindow::draw()
    settingpricewindow.o(.ARM.exidx) refers to settingpricewindow.o(i._ZN18SettingPriceWindow4drawEv) for i._ZN18SettingPriceWindow4drawEv
    settingpricewindow.o(.ARM.exidx) refers to settingpricewindow.o(i._ZN44_INTERNAL_22_SettingPriceWindow_cpp_23b8cd9710_aCallbackEP10WM_MESSAGE) for i._ZN44_INTERNAL_22_SettingPriceWindow_cpp_23b8cd9710_aCallbackEP10WM_MESSAGE
    settingpricewindow.o(.ARM.exidx) refers to settingpricewindow.o(i._ZN18SettingPriceWindow10showWithIdElj) for i._ZN18SettingPriceWindow10showWithIdElj
    settingpricewindow.o(.ARM.exidx) refers to settingpricewindow.o(i._ZN18SettingPriceWindow7dismissEv) for i._ZN18SettingPriceWindow7dismissEv
    settingpricewindow.o(.ARM.exidx) refers to settingpricewindow.o(i._ZN18SettingPriceWindow10appendTextEc) for i._ZN18SettingPriceWindow10appendTextEc
    settingpricewindow.o(.ARM.exidx) refers to settingpricewindow.o(i._ZN18SettingPriceWindow9savePriceEv) for i._ZN18SettingPriceWindow9savePriceEv
    settingpricewindow.o(.ARM.exidx) refers to settingpricewindow.o(i._ZN18SettingPriceWindow15onHandleMessageE9MessageId) for i._ZN18SettingPriceWindow15onHandleMessageE9MessageId
    settingpricewindow.o(.ARM.exidx) refers to settingpricewindow.o(i._ZN18SettingPriceWindowC1Ev) for i._ZN18SettingPriceWindowC1Ev
    statuswindow.o(i._ZN12StatusWindow15onHandleMessageE9MessageId) refers to statuswindow.o(i._ZN12StatusWindow6updateEv) for StatusWindow::update()
    statuswindow.o(i._ZN12StatusWindow4showEl) refers to basewindow.o(i._ZN10BaseWindow4showEl) for BaseWindow::show(long)
    statuswindow.o(i._ZN12StatusWindow4showEl) refers to window.o(i.WINDOW_CreateEx) for WINDOW_CreateEx
    statuswindow.o(i._ZN12StatusWindow4showEl) refers to checkbox.o(i.CHECKBOX_CreateEx) for CHECKBOX_CreateEx
    statuswindow.o(i._ZN12StatusWindow4showEl) refers to checkbox.o(i.CHECKBOX_SetFont) for CHECKBOX_SetFont
    statuswindow.o(i._ZN12StatusWindow4showEl) refers to checkbox.o(i.CHECKBOX_SetText) for CHECKBOX_SetText
    statuswindow.o(i._ZN12StatusWindow4showEl) refers to f16_ascii.o(.constdata) for GUI_Font16_ASCII
    statuswindow.o(i._ZN12StatusWindow6updateEv) refers to cxa_guard_acquire.o(i.__cxa_guard_acquire) for __cxa_guard_acquire
    statuswindow.o(i._ZN12StatusWindow6updateEv) refers to faultmanager.o(i._ZN12FaultManagerC1Ev) for FaultManager::FaultManager()
    statuswindow.o(i._ZN12StatusWindow6updateEv) refers to checkbox.o(i.CHECKBOX_SetState) for CHECKBOX_SetState
    statuswindow.o(i._ZN12StatusWindow6updateEv) refers to deliverevent.o(.data__ZZN12FaultManager8instanceEvE7manager) for guard variable for FaultManager::instance()::manager
    statuswindow.o(i._ZN12StatusWindow7dismissEv) refers to basewindow.o(i._ZN10BaseWindow7dismissEv) for BaseWindow::dismiss()
    statuswindow.o(i._ZN12StatusWindow7dismissEv) refers to wm.o(i.WM_DeleteWindow) for WM_DeleteWindow
    statuswindow.o(i._ZN12StatusWindowC1Ev) refers to statuswindow.o(.constdata__ZTV12StatusWindow) for vtable for StatusWindow
    statuswindow.o(.ARM.exidx) refers to statuswindow.o(i._ZN12StatusWindow4showEl) for i._ZN12StatusWindow4showEl
    statuswindow.o(.ARM.exidx) refers to statuswindow.o(i._ZN12StatusWindow6updateEv) for i._ZN12StatusWindow6updateEv
    statuswindow.o(.ARM.exidx) refers to statuswindow.o(i._ZN12StatusWindow15onHandleMessageE9MessageId) for i._ZN12StatusWindow15onHandleMessageE9MessageId
    statuswindow.o(.ARM.exidx) refers to statuswindow.o(i._ZN12StatusWindow7dismissEv) for i._ZN12StatusWindow7dismissEv
    statuswindow.o(.ARM.exidx) refers to statuswindow.o(i._ZN12StatusWindowC1Ev) for i._ZN12StatusWindowC1Ev
    systemconfigwindow.o(i._ZN18SystemConfigWindow15onHandleMessageE9MessageId) refers to systemconfigwindow.o(i._ZN18SystemConfigWindow6unLockEv) for SystemConfigWindow::unLock()
    systemconfigwindow.o(i._ZN18SystemConfigWindow15onHandleMessageE9MessageId) refers to cxa_guard_acquire.o(i.__cxa_guard_acquire) for __cxa_guard_acquire
    systemconfigwindow.o(i._ZN18SystemConfigWindow15onHandleMessageE9MessageId) refers to changepinwindow.o(i._ZN15ChangePINWindowC1Ev) for ChangePINWindow::ChangePINWindow()
    systemconfigwindow.o(i._ZN18SystemConfigWindow15onHandleMessageE9MessageId) refers to pricewindow.o(i._ZN11PriceWindowC1Ev) for PriceWindow::PriceWindow()
    systemconfigwindow.o(i._ZN18SystemConfigWindow15onHandleMessageE9MessageId) refers to statuswindow.o(i._ZN12StatusWindowC1Ev) for StatusWindow::StatusWindow()
    systemconfigwindow.o(i._ZN18SystemConfigWindow15onHandleMessageE9MessageId) refers to wm_lib.o(i.WM_GetDesktopWindow) for WM_GetDesktopWindow
    systemconfigwindow.o(i._ZN18SystemConfigWindow15onHandleMessageE9MessageId) refers to systemconfigwindow.o(.data__ZZN12StatusWindow8instanceEvE8INSTANCE) for guard variable for StatusWindow::instance()::INSTANCE
    systemconfigwindow.o(i._ZN18SystemConfigWindow15onHandleMessageE9MessageId) refers to systemconfigwindow.o(.data__ZZN15ChangePINWindow8instanceEvE3win) for guard variable for ChangePINWindow::instance()::win
    systemconfigwindow.o(i._ZN18SystemConfigWindow15onHandleMessageE9MessageId) refers to systemconfigwindow.o(.bss__ZZN15ChangePINWindow8instanceEvE3win) for ChangePINWindow::instance()::win
    systemconfigwindow.o(i._ZN18SystemConfigWindow15onHandleMessageE9MessageId) refers to settingpricewindow.o(.data__ZZN11PriceWindow8instanceEvE3win) for guard variable for PriceWindow::instance()::win
    systemconfigwindow.o(i._ZN18SystemConfigWindow15onHandleMessageE9MessageId) refers to settingpricewindow.o(.bss__ZZN11PriceWindow8instanceEvE3win) for PriceWindow::instance()::win
    systemconfigwindow.o(i._ZN18SystemConfigWindow15onHandleMessageE9MessageId) refers to systemconfigwindow.o(.bss__ZZN12StatusWindow8instanceEvE8INSTANCE) for StatusWindow::instance()::INSTANCE
    systemconfigwindow.o(i._ZN18SystemConfigWindow4drawEv) refers to gui_common.o(i.GUI_SetColor) for GUI_SetColor
    systemconfigwindow.o(i._ZN18SystemConfigWindow4drawEv) refers to gui_circ.o(i.GUI_FillCircle) for GUI_FillCircle
    systemconfigwindow.o(i._ZN18SystemConfigWindow4drawEv) refers to gui_common.o(i.GUI_SetTextMode) for GUI_SetTextMode
    systemconfigwindow.o(i._ZN18SystemConfigWindow4drawEv) refers to gui_common.o(i.GUI_SetFont) for GUI_SetFont
    systemconfigwindow.o(i._ZN18SystemConfigWindow4drawEv) refers to gui_common.o(i.GUI_SetTextAlign) for GUI_SetTextAlign
    systemconfigwindow.o(i._ZN18SystemConfigWindow4drawEv) refers to gui_dispstring.o(i.GUI_DispStringHCenterAt) for GUI_DispStringHCenterAt
    systemconfigwindow.o(i._ZN18SystemConfigWindow4drawEv) refers to f32_1.o(.constdata) for GUI_Font32_1
    systemconfigwindow.o(i._ZN18SystemConfigWindow4showEl) refers to basewindow.o(i._ZN10BaseWindow4showEl) for BaseWindow::show(long)
    systemconfigwindow.o(i._ZN18SystemConfigWindow4showEl) refers to window.o(i.WINDOW_CreateUser) for WINDOW_CreateUser
    systemconfigwindow.o(i._ZN18SystemConfigWindow4showEl) refers to window.o(i.WINDOW_SetUserData) for WINDOW_SetUserData
    systemconfigwindow.o(i._ZN18SystemConfigWindow4showEl) refers to text.o(i.TEXT_CreateEx) for TEXT_CreateEx
    systemconfigwindow.o(i._ZN18SystemConfigWindow4showEl) refers to text.o(i.TEXT_SetFont) for TEXT_SetFont
    systemconfigwindow.o(i._ZN18SystemConfigWindow4showEl) refers to text.o(i.TEXT_SetTextAlign) for TEXT_SetTextAlign
    systemconfigwindow.o(i._ZN18SystemConfigWindow4showEl) refers to text.o(i.TEXT_SetTextColor) for TEXT_SetTextColor
    systemconfigwindow.o(i._ZN18SystemConfigWindow4showEl) refers to systemconfigwindow.o(i._ZN44_INTERNAL_22_SystemConfigWindow_cpp_733d2ac910_aCallbackEP10WM_MESSAGE) for [local to SystemConfigWindow_cpp]::_aCallback(WM_MESSAGE*)
    systemconfigwindow.o(i._ZN18SystemConfigWindow4showEl) refers to f32_1.o(.constdata) for GUI_Font32_1
    systemconfigwindow.o(i._ZN18SystemConfigWindow6unLockEv) refers to cxa_guard_acquire.o(i.__cxa_guard_acquire) for __cxa_guard_acquire
    systemconfigwindow.o(i._ZN18SystemConfigWindow6unLockEv) refers to deliveruart.o(i._ZN11DeliverUartC1Ev) for DeliverUart::DeliverUart()
    systemconfigwindow.o(i._ZN18SystemConfigWindow6unLockEv) refers to baseoutput.o(i._ZN10BaseOutput13buildAndWriteEv) for BaseOutput::buildAndWrite()
    systemconfigwindow.o(i._ZN18SystemConfigWindow6unLockEv) refers to bootmaintask.o(.data__ZZN11DeliverUart8instanceEvE4uart) for guard variable for DeliverUart::instance()::uart
    systemconfigwindow.o(i._ZN18SystemConfigWindow6unLockEv) refers to bootmaintask.o(.bss__ZZN11DeliverUart8instanceEvE4uart) for DeliverUart::instance()::uart
    systemconfigwindow.o(i._ZN18SystemConfigWindow7dismissEv) refers to basewindow.o(i._ZN10BaseWindow7dismissEv) for BaseWindow::dismiss()
    systemconfigwindow.o(i._ZN18SystemConfigWindow7dismissEv) refers to wm.o(i.WM_DeleteWindow) for WM_DeleteWindow
    systemconfigwindow.o(i._ZN18SystemConfigWindowC1Ev) refers to systemconfigwindow.o(.constdata__ZTV18SystemConfigWindow) for vtable for SystemConfigWindow
    systemconfigwindow.o(i._ZN44_INTERNAL_22_SystemConfigWindow_cpp_733d2ac910_aCallbackEP10WM_MESSAGE) refers to window.o(i.WINDOW_GetUserData) for WINDOW_GetUserData
    systemconfigwindow.o(i._ZN44_INTERNAL_22_SystemConfigWindow_cpp_733d2ac910_aCallbackEP10WM_MESSAGE) refers to systemconfigwindow.o(i._ZN18SystemConfigWindow4drawEv) for SystemConfigWindow::draw()
    systemconfigwindow.o(.ARM.exidx) refers to systemconfigwindow.o(i._ZN18SystemConfigWindow4drawEv) for i._ZN18SystemConfigWindow4drawEv
    systemconfigwindow.o(.ARM.exidx) refers to systemconfigwindow.o(i._ZN44_INTERNAL_22_SystemConfigWindow_cpp_733d2ac910_aCallbackEP10WM_MESSAGE) for i._ZN44_INTERNAL_22_SystemConfigWindow_cpp_733d2ac910_aCallbackEP10WM_MESSAGE
    systemconfigwindow.o(.ARM.exidx) refers to systemconfigwindow.o(i._ZN18SystemConfigWindowC1Ev) for i._ZN18SystemConfigWindowC1Ev
    systemconfigwindow.o(.ARM.exidx) refers to systemconfigwindow.o(i._ZN18SystemConfigWindow4showEl) for i._ZN18SystemConfigWindow4showEl
    systemconfigwindow.o(.ARM.exidx) refers to systemconfigwindow.o(i._ZN18SystemConfigWindow7dismissEv) for i._ZN18SystemConfigWindow7dismissEv
    systemconfigwindow.o(.ARM.exidx) refers to systemconfigwindow.o(i._ZN18SystemConfigWindow6unLockEv) for i._ZN18SystemConfigWindow6unLockEv
    systemconfigwindow.o(.ARM.exidx) refers to systemconfigwindow.o(i._ZN18SystemConfigWindow15onHandleMessageE9MessageId) for i._ZN18SystemConfigWindow15onHandleMessageE9MessageId
    deliverwindow.o(i._ZN13DeliverWindow12onTimerEventEv) refers to cxa_guard_acquire.o(i.__cxa_guard_acquire) for __cxa_guard_acquire
    deliverwindow.o(i._ZN13DeliverWindow12onTimerEventEv) refers to guitask.o(i._ZN7GUITaskC1Ev) for GUITask::GUITask()
    deliverwindow.o(i._ZN13DeliverWindow12onTimerEventEv) refers to rtx_msgqueue.o(.text.osMessageQueuePut) for osMessageQueuePut
    deliverwindow.o(i._ZN13DeliverWindow12onTimerEventEv) refers to bootmaintask.o(.data__ZZN7GUITask8instanceEvE4task) for guard variable for GUITask::instance()::task
    deliverwindow.o(i._ZN13DeliverWindow12onTimerEventEv) refers to bootmaintask.o(.bss__ZZN7GUITask8instanceEvE4task) for GUITask::instance()::task
    deliverwindow.o(i._ZN13DeliverWindow15onHandleMessageE9MessageId) refers to deliverwindow.o(i._ZN13DeliverWindow6updateEv) for DeliverWindow::update()
    deliverwindow.o(i._ZN13DeliverWindow15onHandleMessageE9MessageId) refers to deliverwindow.o(i._ZN13DeliverWindow5errorEv) for DeliverWindow::error()
    deliverwindow.o(i._ZN13DeliverWindow15onHandleMessageE9MessageId) refers to deliverwindow.o(i._ZN13DeliverWindow7successEv) for DeliverWindow::success()
    deliverwindow.o(i._ZN13DeliverWindow15showWithTimeOutElj) refers to basewindow.o(i._ZN10BaseWindow4showEl) for BaseWindow::show(long)
    deliverwindow.o(i._ZN13DeliverWindow15showWithTimeOutElj) refers to window.o(i.WINDOW_CreateEx) for WINDOW_CreateEx
    deliverwindow.o(i._ZN13DeliverWindow15showWithTimeOutElj) refers to uistatus.o(i._ZN8UiStatus4showEl) for UiStatus::show(long)
    deliverwindow.o(i._ZN13DeliverWindow15showWithTimeOutElj) refers to text.o(i.TEXT_CreateEx) for TEXT_CreateEx
    deliverwindow.o(i._ZN13DeliverWindow15showWithTimeOutElj) refers to text.o(i.TEXT_SetFont) for TEXT_SetFont
    deliverwindow.o(i._ZN13DeliverWindow15showWithTimeOutElj) refers to text.o(i.TEXT_SetTextColor) for TEXT_SetTextColor
    deliverwindow.o(i._ZN13DeliverWindow15showWithTimeOutElj) refers to text.o(i.TEXT_SetTextAlign) for TEXT_SetTextAlign
    deliverwindow.o(i._ZN13DeliverWindow15showWithTimeOutElj) refers to wm_memdev.o(i.WM_EnableMemdev) for WM_EnableMemdev
    deliverwindow.o(i._ZN13DeliverWindow15showWithTimeOutElj) refers to rtx_timer.o(.text.osTimerStart) for osTimerStart
    deliverwindow.o(i._ZN13DeliverWindow15showWithTimeOutElj) refers to deliverwindow.o(.data) for .data
    deliverwindow.o(i._ZN13DeliverWindow15showWithTimeOutElj) refers to deliverwindow.o(i._ZN39_INTERNAL_17_DeliverWindow_cpp_4166b32616_aWindowCallbackEP10WM_MESSAGE) for [local to DeliverWindow_cpp]::_aWindowCallback(WM_MESSAGE*)
    deliverwindow.o(i._ZN13DeliverWindow15showWithTimeOutElj) refers to f32b_ascii.o(.constdata) for GUI_Font32B_ASCII
    deliverwindow.o(i._ZN13DeliverWindow15showWithTimeOutElj) refers to deliverwindow.o(i._ZN39_INTERNAL_17_DeliverWindow_cpp_4166b32617_aProgBarCallbackEP10WM_MESSAGE) for [local to DeliverWindow_cpp]::_aProgBarCallback(WM_MESSAGE*)
    deliverwindow.o(i._ZN13DeliverWindow5errorEv) refers to uistatus.o(i._ZN8UiStatus9setStatusENS_6StatusE) for UiStatus::setStatus(UiStatus::Status)
    deliverwindow.o(i._ZN13DeliverWindow5errorEv) refers to text.o(i.TEXT_SetText) for TEXT_SetText
    deliverwindow.o(i._ZN13DeliverWindow5errorEv) refers to logevent.o(i._ZN10MDBManager8instanceEv) for MDBManager::instance()
    deliverwindow.o(i._ZN13DeliverWindow5errorEv) refers to mdbmanager.o(i._ZN10MDBManager7onErrorEv) for MDBManager::onError()
    deliverwindow.o(i._ZN13DeliverWindow5errorEv) refers to gui_time.o(i.GUI_Delay) for GUI_Delay
    deliverwindow.o(i._ZN13DeliverWindow6updateEv) refers to deliverwindow.o(i._ZN13DeliverWindow5errorEv) for DeliverWindow::error()
    deliverwindow.o(i._ZN13DeliverWindow6updateEv) refers to wm.o(i.WM_InvalidateWindow) for WM_InvalidateWindow
    deliverwindow.o(i._ZN13DeliverWindow6updateEv) refers to deliverwindow.o(.data) for .data
    deliverwindow.o(i._ZN13DeliverWindow7dismissEv) refers to basewindow.o(i._ZN10BaseWindow7dismissEv) for BaseWindow::dismiss()
    deliverwindow.o(i._ZN13DeliverWindow7dismissEv) refers to rtx_timer.o(.text.osTimerStop) for osTimerStop
    deliverwindow.o(i._ZN13DeliverWindow7dismissEv) refers to uistatus.o(i._ZN8UiStatus7dismissEv) for UiStatus::dismiss()
    deliverwindow.o(i._ZN13DeliverWindow7dismissEv) refers to logevent.o(i._ZN10MDBManager8instanceEv) for MDBManager::instance()
    deliverwindow.o(i._ZN13DeliverWindow7dismissEv) refers to mdbmanager.o(i._ZN10MDBManager7onErrorEv) for MDBManager::onError()
    deliverwindow.o(i._ZN13DeliverWindow7dismissEv) refers to wm.o(i.WM_DeleteWindow) for WM_DeleteWindow
    deliverwindow.o(i._ZN13DeliverWindow7successEv) refers to uistatus.o(i._ZN8UiStatus9setStatusENS_6StatusE) for UiStatus::setStatus(UiStatus::Status)
    deliverwindow.o(i._ZN13DeliverWindow7successEv) refers to text.o(i.TEXT_SetText) for TEXT_SetText
    deliverwindow.o(i._ZN13DeliverWindow7successEv) refers to logevent.o(i._ZN10MDBManager8instanceEv) for MDBManager::instance()
    deliverwindow.o(i._ZN13DeliverWindow7successEv) refers to mdbmanager.o(i._ZN10MDBManager9onSuccessEv) for MDBManager::onSuccess()
    deliverwindow.o(i._ZN13DeliverWindow7successEv) refers to waresmanager.o(i._ZN12WaresManager16onDeliverSuccessEv) for WaresManager::onDeliverSuccess()
    deliverwindow.o(i._ZN13DeliverWindow7successEv) refers to gui_time.o(i.GUI_Delay) for GUI_Delay
    deliverwindow.o(i._ZN13DeliverWindow7successEv) refers to deliverwindow.o(.bss__ZZN12WaresManager8instanceEvE3man) for WaresManager::instance()::man
    deliverwindow.o(i._ZN13DeliverWindowC1Ev) refers to timer.o(i._ZN5TimerC2EPKc13osTimerType_t) for Timer::Timer__sub_object(const char*, osTimerType_t)
    deliverwindow.o(i._ZN13DeliverWindowC1Ev) refers to uistatus.o(i._ZN8UiStatusC1Etttt) for UiStatus::UiStatus(unsigned short, unsigned short, unsigned short, unsigned short)
    deliverwindow.o(i._ZN13DeliverWindowC1Ev) refers to deliverwindow.o(.constdata__ZTV13DeliverWindow) for vtable for DeliverWindow
    deliverwindow.o(i._ZN39_INTERNAL_17_DeliverWindow_cpp_4166b32613progBarGetEndEv) refers to deliverwindow.o(.data) for .data
    deliverwindow.o(i._ZN39_INTERNAL_17_DeliverWindow_cpp_4166b32616_aWindowCallbackEP10WM_MESSAGE) refers to gui_common.o(i.GUI_SetBkColor) for GUI_SetBkColor
    deliverwindow.o(i._ZN39_INTERNAL_17_DeliverWindow_cpp_4166b32616_aWindowCallbackEP10WM_MESSAGE) refers to gui_core.o(i.GUI_Clear) for GUI_Clear
    deliverwindow.o(i._ZN39_INTERNAL_17_DeliverWindow_cpp_4166b32617_aProgBarCallbackEP10WM_MESSAGE) refers to gui_common.o(i.GUI_SetBkColor) for GUI_SetBkColor
    deliverwindow.o(i._ZN39_INTERNAL_17_DeliverWindow_cpp_4166b32617_aProgBarCallbackEP10WM_MESSAGE) refers to gui_common.o(i.GUI_SetPenSize) for GUI_SetPenSize
    deliverwindow.o(i._ZN39_INTERNAL_17_DeliverWindow_cpp_4166b32617_aProgBarCallbackEP10WM_MESSAGE) refers to gui_core.o(i.GUI_Clear) for GUI_Clear
    deliverwindow.o(i._ZN39_INTERNAL_17_DeliverWindow_cpp_4166b32617_aProgBarCallbackEP10WM_MESSAGE) refers to gui_common.o(i.GUI_SetColor) for GUI_SetColor
    deliverwindow.o(i._ZN39_INTERNAL_17_DeliverWindow_cpp_4166b32617_aProgBarCallbackEP10WM_MESSAGE) refers to guiaa_arc.o(i.GUI_AA_DrawArc) for GUI_AA_DrawArc
    deliverwindow.o(i._ZN39_INTERNAL_17_DeliverWindow_cpp_4166b32617_aProgBarCallbackEP10WM_MESSAGE) refers to deliverwindow.o(i._ZN39_INTERNAL_17_DeliverWindow_cpp_4166b32613progBarGetEndEv) for [local to DeliverWindow_cpp]::progBarGetEnd()
    deliverwindow.o(i._ZN39_INTERNAL_17_DeliverWindow_cpp_4166b32617_aProgBarCallbackEP10WM_MESSAGE) refers to guiaa_circle.o(i.GUI_AA_FillCircle) for GUI_AA_FillCircle
    deliverwindow.o(i._ZN39_INTERNAL_17_DeliverWindow_cpp_4166b32617_aProgBarCallbackEP10WM_MESSAGE) refers to arm_sin_cos_f32.o(.text) for arm_sin_cos_f32
    deliverwindow.o(i._ZN39_INTERNAL_17_DeliverWindow_cpp_4166b32617_aProgBarCallbackEP10WM_MESSAGE) refers to gui_common.o(i.GUI_SetFont) for GUI_SetFont
    deliverwindow.o(i._ZN39_INTERNAL_17_DeliverWindow_cpp_4166b32617_aProgBarCallbackEP10WM_MESSAGE) refers to gui_dispstring.o(i.GUI_DispStringHCenterAt) for GUI_DispStringHCenterAt
    deliverwindow.o(i._ZN39_INTERNAL_17_DeliverWindow_cpp_4166b32617_aProgBarCallbackEP10WM_MESSAGE) refers to f32b_1.o(.constdata) for GUI_Font32B_1
    deliverwindow.o(i._ZN39_INTERNAL_17_DeliverWindow_cpp_4166b32617_aProgBarCallbackEP10WM_MESSAGE) refers to stringresources.o(.data) for Strings
    deliverwindow.o(i._ZN39_INTERNAL_17_DeliverWindow_cpp_4166b32617_aProgBarCallbackEP10WM_MESSAGE) refers to deliverwindow.o(.data) for .data
    deliverwindow.o(i._ZThn8_N13DeliverWindow12onTimerEventEv) refers to deliverwindow.o(i._ZN13DeliverWindow12onTimerEventEv) for DeliverWindow::onTimerEvent()
    deliverwindow.o(.ARM.exidx) refers to deliverwindow.o(i._ZN39_INTERNAL_17_DeliverWindow_cpp_4166b32616_aWindowCallbackEP10WM_MESSAGE) for i._ZN39_INTERNAL_17_DeliverWindow_cpp_4166b32616_aWindowCallbackEP10WM_MESSAGE
    deliverwindow.o(.ARM.exidx) refers to deliverwindow.o(i._ZN39_INTERNAL_17_DeliverWindow_cpp_4166b32617_aProgBarCallbackEP10WM_MESSAGE) for i._ZN39_INTERNAL_17_DeliverWindow_cpp_4166b32617_aProgBarCallbackEP10WM_MESSAGE
    deliverwindow.o(.ARM.exidx) refers to deliverwindow.o(i._ZN13DeliverWindow15showWithTimeOutElj) for i._ZN13DeliverWindow15showWithTimeOutElj
    deliverwindow.o(.ARM.exidx) refers to deliverwindow.o(i._ZN13DeliverWindow7successEv) for i._ZN13DeliverWindow7successEv
    deliverwindow.o(.ARM.exidx) refers to deliverwindow.o(i._ZN13DeliverWindow5errorEv) for i._ZN13DeliverWindow5errorEv
    deliverwindow.o(.ARM.exidx) refers to deliverwindow.o(i._ZN13DeliverWindow6updateEv) for i._ZN13DeliverWindow6updateEv
    deliverwindow.o(.ARM.exidx) refers to deliverwindow.o(i._ZN13DeliverWindow15onHandleMessageE9MessageId) for i._ZN13DeliverWindow15onHandleMessageE9MessageId
    deliverwindow.o(.ARM.exidx) refers to deliverwindow.o(i._ZN13DeliverWindow7dismissEv) for i._ZN13DeliverWindow7dismissEv
    deliverwindow.o(.ARM.exidx) refers to deliverwindow.o(i._ZN13DeliverWindow12onTimerEventEv) for i._ZN13DeliverWindow12onTimerEventEv
    deliverwindow.o(.ARM.exidx) refers to deliverwindow.o(i._ZThn8_N13DeliverWindow12onTimerEventEv) for i._ZThn8_N13DeliverWindow12onTimerEventEv
    deliverwindow.o(.ARM.exidx) refers to deliverwindow.o(i._ZN13DeliverWindowC1Ev) for i._ZN13DeliverWindowC1Ev
    deliverwindow.o(.ARM.exidx) refers to deliverwindow.o(i._ZN39_INTERNAL_17_DeliverWindow_cpp_4166b32613progBarGetEndEv) for i._ZN39_INTERNAL_17_DeliverWindow_cpp_4166b32613progBarGetEndEv
    uicheckbox.o(i._ZN10UiCheckBox4drawEv) refers to gui_common.o(i.GUI_SetBkColor) for GUI_SetBkColor
    uicheckbox.o(i._ZN10UiCheckBox4drawEv) refers to gui_core.o(i.GUI_Clear) for GUI_Clear
    uicheckbox.o(i._ZN10UiCheckBox4drawEv) refers to gui_common.o(i.GUI_SetPenSize) for GUI_SetPenSize
    uicheckbox.o(i._ZN10UiCheckBox4drawEv) refers to gui_common.o(i.GUI_SetColor) for GUI_SetColor
    uicheckbox.o(i._ZN10UiCheckBox4showEl) refers to window.o(i.WINDOW_CreateUser) for WINDOW_CreateUser
    uicheckbox.o(i._ZN10UiCheckBox4showEl) refers to window.o(i.WINDOW_SetUserData) for WINDOW_SetUserData
    uicheckbox.o(i._ZN10UiCheckBox4showEl) refers to wm_memdev.o(i.WM_EnableMemdev) for WM_EnableMemdev
    uicheckbox.o(i._ZN10UiCheckBox4showEl) refers to uicheckbox.o(i._ZN36_INTERNAL_14_UiCheckBox_cpp_32f4012910_aCallbackEP10WM_MESSAGE) for [local to UiCheckBox_cpp]::_aCallback(WM_MESSAGE*)
    uicheckbox.o(i._ZN10UiCheckBox7dismissEv) refers to wm.o(i.WM_DeleteWindow) for WM_DeleteWindow
    uicheckbox.o(i._ZN36_INTERNAL_14_UiCheckBox_cpp_32f4012910_aCallbackEP10WM_MESSAGE) refers to window.o(i.WINDOW_GetUserData) for WINDOW_GetUserData
    uicheckbox.o(i._ZN36_INTERNAL_14_UiCheckBox_cpp_32f4012910_aCallbackEP10WM_MESSAGE) refers to uicheckbox.o(i._ZN10UiCheckBox4drawEv) for UiCheckBox::draw()
    uicheckbox.o(.ARM.exidx) refers to uicheckbox.o(i._ZN10UiCheckBox4drawEv) for i._ZN10UiCheckBox4drawEv
    uicheckbox.o(.ARM.exidx) refers to uicheckbox.o(i._ZN36_INTERNAL_14_UiCheckBox_cpp_32f4012910_aCallbackEP10WM_MESSAGE) for i._ZN36_INTERNAL_14_UiCheckBox_cpp_32f4012910_aCallbackEP10WM_MESSAGE
    uicheckbox.o(.ARM.exidx) refers to uicheckbox.o(i._ZN10UiCheckBoxC1Etttt) for i._ZN10UiCheckBoxC1Etttt
    uicheckbox.o(.ARM.exidx) refers to uicheckbox.o(i._ZN10UiCheckBox4showEl) for i._ZN10UiCheckBox4showEl
    uicheckbox.o(.ARM.exidx) refers to uicheckbox.o(i._ZN10UiCheckBox7dismissEv) for i._ZN10UiCheckBox7dismissEv
    uipolygon.o(.ARM.exidx) refers to uipolygon.o(i._ZN9UiPolygonC1Ev) for i._ZN9UiPolygonC1Ev
    uistatus.o(i._ZN34_INTERNAL_12_UiStatus_cpp_a4dd03e810_aCallbackEP10WM_MESSAGE) refers to window.o(i.WINDOW_GetUserData) for WINDOW_GetUserData
    uistatus.o(i._ZN34_INTERNAL_12_UiStatus_cpp_a4dd03e810_aCallbackEP10WM_MESSAGE) refers to uistatus.o(i._ZN8UiStatus4drawEv) for UiStatus::draw()
    uistatus.o(i._ZN8UiStatus4drawEv) refers to gui_common.o(i.GUI_SetBkColor) for GUI_SetBkColor
    uistatus.o(i._ZN8UiStatus4drawEv) refers to gui_core.o(i.GUI_Clear) for GUI_Clear
    uistatus.o(i._ZN8UiStatus4drawEv) refers to gui_common.o(i.GUI_SetColor) for GUI_SetColor
    uistatus.o(i._ZN8UiStatus4drawEv) refers to backgroundwindow.o(i._ZN9UiPolygon8instanceEv) for UiPolygon::instance()
    uistatus.o(i._ZN8UiStatus4drawEv) refers to backgroundwindow.o(i._ZN9UiPolygon6appendEss) for UiPolygon::append(short, short)
    uistatus.o(i._ZN8UiStatus4drawEv) refers to backgroundwindow.o(i._ZN9UiPolygon4fillEii) for UiPolygon::fill(int, int)
    uistatus.o(i._ZN8UiStatus4showEl) refers to window.o(i.WINDOW_CreateUser) for WINDOW_CreateUser
    uistatus.o(i._ZN8UiStatus4showEl) refers to window.o(i.WINDOW_SetUserData) for WINDOW_SetUserData
    uistatus.o(i._ZN8UiStatus4showEl) refers to uistatus.o(i._ZN34_INTERNAL_12_UiStatus_cpp_a4dd03e810_aCallbackEP10WM_MESSAGE) for [local to UiStatus_cpp]::_aCallback(WM_MESSAGE*)
    uistatus.o(i._ZN8UiStatus7dismissEv) refers to wm.o(i.WM_DeleteWindow) for WM_DeleteWindow
    uistatus.o(i._ZN8UiStatus9setStatusENS_6StatusE) refers to wm.o(i.WM_InvalidateWindow) for WM_InvalidateWindow
    uistatus.o(.ARM.exidx) refers to uistatus.o(i._ZN8UiStatus4drawEv) for i._ZN8UiStatus4drawEv
    uistatus.o(.ARM.exidx) refers to uistatus.o(i._ZN34_INTERNAL_12_UiStatus_cpp_a4dd03e810_aCallbackEP10WM_MESSAGE) for i._ZN34_INTERNAL_12_UiStatus_cpp_a4dd03e810_aCallbackEP10WM_MESSAGE
    uistatus.o(.ARM.exidx) refers to uistatus.o(i._ZN8UiStatusC1Etttt) for i._ZN8UiStatusC1Etttt
    uistatus.o(.ARM.exidx) refers to uistatus.o(i._ZN8UiStatus4showEl) for i._ZN8UiStatus4showEl
    uistatus.o(.ARM.exidx) refers to uistatus.o(i._ZN8UiStatus7dismissEv) for i._ZN8UiStatus7dismissEv
    uistatus.o(.ARM.exidx) refers to uistatus.o(i._ZN8UiStatus9setStatusENS_6StatusE) for i._ZN8UiStatus9setStatusENS_6StatusE
    waresmanager.o(i._ZN12WaresManager11setPasswordEPKc) refers to waresmanager.o(i._ZN12WaresManager4saveEv) for WaresManager::save()
    waresmanager.o(i._ZN12WaresManager16onDeliverSuccessEv) refers to waresmanager.o(i._ZN12WaresManager4saveEv) for WaresManager::save()
    waresmanager.o(i._ZN12WaresManager23isPasswordDefaultEqualsEPKc) refers to waresmanager.o(.data) for .data
    waresmanager.o(.ARM.exidx) refers to waresmanager.o(i._ZN12WaresManager15setSelectNumberEPKt) for i._ZN12WaresManager15setSelectNumberEPKt
    waresmanager.o(.ARM.exidx) refers to waresmanager.o(i._ZN12WaresManager16onDeliverSuccessEv) for i._ZN12WaresManager16onDeliverSuccessEv
    waresmanager.o(.ARM.exidx) refers to waresmanager.o(i._ZN12WaresManager11setPasswordEPKc) for i._ZN12WaresManager11setPasswordEPKc
    waresmanager.o(.ARM.exidx) refers to waresmanager.o(i._ZN12WaresManager16isPasswordEqualsEPKc) for i._ZN12WaresManager16isPasswordEqualsEPKc
    waresmanager.o(.ARM.exidx) refers to waresmanager.o(i._ZN12WaresManager23isPasswordDefaultEqualsEPKc) for i._ZN12WaresManager23isPasswordDefaultEqualsEPKc
    waresmanager.o(.data) refers to waresmanager.o(.conststring) for .conststring
    baseoutput.o(i._ZN10BaseOutput13buildAndWriteEv) refers to baseoutput.o(i._ZN10BaseOutput5buildEPh) for BaseOutput::build(unsigned char*)
    baseoutput.o(i._ZN10BaseOutput6formatEPKcz) refers to c89vsprintf.o(.text) for __c89vsprintf
    baseoutput.o(.ARM.exidx) refers to baseoutput.o(i._ZN10BaseOutput6formatEPKcz) for i._ZN10BaseOutput6formatEPKcz
    baseoutput.o(.ARM.exidx) refers to baseoutput.o(i._ZN10BaseOutput5buildEPh) for i._ZN10BaseOutput5buildEPh
    baseoutput.o(.ARM.exidx) refers to baseoutput.o(i._ZN10BaseOutput13buildAndWriteEv) for i._ZN10BaseOutput13buildAndWriteEv
    keyqueue.o(i._ZN8KeyQueue12pushAndCheckEt) refers to keyqueue.o(.constdata) for .constdata
    keyqueue.o(i._ZN8KeyQueue9isCheckedEv) refers to keyqueue.o(.constdata) for .constdata
    keyqueue.o(.ARM.exidx) refers to keyqueue.o(i._ZN8KeyQueue4pushEt) for i._ZN8KeyQueue4pushEt
    keyqueue.o(.ARM.exidx) refers to keyqueue.o(i._ZN8KeyQueue12pushAndCheckEt) for i._ZN8KeyQueue12pushAndCheckEt
    keyqueue.o(.ARM.exidx) refers to keyqueue.o(i._ZN8KeyQueueC1Ev) for i._ZN8KeyQueueC1Ev
    keyqueue.o(.ARM.exidx) refers to keyqueue.o(i._ZN8KeyQueue9isCheckedEv) for i._ZN8KeyQueue9isCheckedEv
    basebuffer.o(i._ZN10BaseBuffer11writeStringEjPKcj) refers to basebuffer.o(i._ZN10BaseBuffer14writeByteArrayEjPKhj) for BaseBuffer::writeByteArray(unsigned, const unsigned char*, unsigned)
    basebuffer.o(i._ZN10BaseBuffer12writeInAlignEjPKhj) refers to basebuffer.o(i._ZN10BaseBuffer4copyEPhPKhj) for BaseBuffer::copy(unsigned char*, const unsigned char*, unsigned)
    basebuffer.o(i._ZN10BaseBuffer14writeByteArrayEjPKhj) refers to basebuffer.o(i._ZN10BaseBuffer12writeInAlignEjPKhj) for BaseBuffer::writeInAlign(unsigned, const unsigned char*, unsigned)
    basebuffer.o(i._ZN10BaseBuffer8writeIntEjj) refers to basebuffer.o(i._ZN10BaseBuffer14writeByteArrayEjPKhj) for BaseBuffer::writeByteArray(unsigned, const unsigned char*, unsigned)
    basebuffer.o(i._ZN10BaseBufferC2Ev) refers to basebuffer.o(.constdata__ZTV10BaseBuffer) for vtable for BaseBuffer
    basebuffer.o(.ARM.exidx) refers to basebuffer.o(i._ZN10BaseBufferC2Ev) for i._ZN10BaseBufferC2Ev
    basebuffer.o(.ARM.exidx) refers to basebuffer.o(i._ZN10BaseBuffer10setAddressEj) for i._ZN10BaseBuffer10setAddressEj
    basebuffer.o(.ARM.exidx) refers to basebuffer.o(i._ZN10BaseBuffer6appendEh) for i._ZN10BaseBuffer6appendEh
    basebuffer.o(.ARM.exidx) refers to basebuffer.o(i._ZN10BaseBuffer6appendEPKhj) for i._ZN10BaseBuffer6appendEPKhj
    basebuffer.o(.ARM.exidx) refers to basebuffer.o(i._ZN10BaseBuffer4copyEPhPKhj) for i._ZN10BaseBuffer4copyEPhPKhj
    basebuffer.o(.ARM.exidx) refers to basebuffer.o(i._ZN10BaseBuffer12writeInAlignEjPKhj) for i._ZN10BaseBuffer12writeInAlignEjPKhj
    basebuffer.o(.ARM.exidx) refers to basebuffer.o(i._ZN10BaseBuffer14writeByteArrayEjPKhj) for i._ZN10BaseBuffer14writeByteArrayEjPKhj
    basebuffer.o(.ARM.exidx) refers to basebuffer.o(i._ZN10BaseBuffer11writeStringEjPKcj) for i._ZN10BaseBuffer11writeStringEjPKcj
    basebuffer.o(.ARM.exidx) refers to basebuffer.o(i._ZN10BaseBuffer10readStringEjPcj) for i._ZN10BaseBuffer10readStringEjPcj
    basebuffer.o(.ARM.exidx) refers to basebuffer.o(i._ZN10BaseBuffer13readByteArrayEjPhj) for i._ZN10BaseBuffer13readByteArrayEjPhj
    basebuffer.o(.ARM.exidx) refers to basebuffer.o(i._ZN10BaseBuffer8writeIntEjj) for i._ZN10BaseBuffer8writeIntEjj
    basebuffer.o(.ARM.exidx) refers to basebuffer.o(i._ZN10BaseBuffer7readIntEjPj) for i._ZN10BaseBuffer7readIntEjPj
    basebuffer.o(.ARM.exidx) refers to basebuffer.o(i._ZN10BaseBuffer18writeStringInCheckEjPKcj) for i._ZN10BaseBuffer18writeStringInCheckEjPKcj
    basebuffer.o(.ARM.exidx) refers to basebuffer.o(i._ZN10BaseBuffer6commitEv) for i._ZN10BaseBuffer6commitEv
    basebuffer.o(.ARM.exidx) refers to basebuffer.o(i._ZN10BaseBuffer7copyXorEPhPKhj) for i._ZN10BaseBuffer7copyXorEPhPKhj
    mdbmanager.o(i._ZN10MDBManager10onPayStartEj) refers to bootmaintask.o(i._ZN7LogUart8instanceEv) for LogUart::instance()
    mdbmanager.o(i._ZN10MDBManager10onPayStartEj) refers to logevent.o(i._ZN10BaseOutput9setActionEh) for BaseOutput::setAction(unsigned char)
    mdbmanager.o(i._ZN10MDBManager10onPayStartEj) refers to baseoutput.o(i._ZN10BaseOutput13buildAndWriteEv) for BaseOutput::buildAndWrite()
    mdbmanager.o(i._ZN10MDBManager10onPayStartEj) refers to logevent.o(i._ZN10BaseOutput7append1Eh) for BaseOutput::append1(unsigned char)
    mdbmanager.o(i._ZN10MDBManager13onCashCheckedEj) refers to logevent.o(i._ZN10MDBManager10giveChangeEj) for MDBManager::giveChange(unsigned)
    mdbmanager.o(i._ZN10MDBManager13onCashCheckedEj) refers to bootmaintask.o(i._ZN7LogUart8instanceEv) for LogUart::instance()
    mdbmanager.o(i._ZN10MDBManager13onCashCheckedEj) refers to logevent.o(i._ZN10BaseOutput9setActionEh) for BaseOutput::setAction(unsigned char)
    mdbmanager.o(i._ZN10MDBManager13onCashCheckedEj) refers to logevent.o(i._ZN10BaseOutput7append1Eh) for BaseOutput::append1(unsigned char)
    mdbmanager.o(i._ZN10MDBManager13onCashCheckedEj) refers to baseoutput.o(i._ZN10BaseOutput13buildAndWriteEv) for BaseOutput::buildAndWrite()
    mdbmanager.o(i._ZN10MDBManager13onVposCheckedEv) refers to logevent.o(i._ZN10MDBManager10giveChangeEj) for MDBManager::giveChange(unsigned)
    mdbmanager.o(i._ZN10MDBManager7onErrorEv) refers to bootmaintask.o(i._ZN7LogUart8instanceEv) for LogUart::instance()
    mdbmanager.o(i._ZN10MDBManager7onErrorEv) refers to logevent.o(i._ZN10BaseOutput9setActionEh) for BaseOutput::setAction(unsigned char)
    mdbmanager.o(i._ZN10MDBManager7onErrorEv) refers to logevent.o(i._ZN10BaseOutput7append1Eh) for BaseOutput::append1(unsigned char)
    mdbmanager.o(i._ZN10MDBManager7onErrorEv) refers to baseoutput.o(i._ZN10BaseOutput13buildAndWriteEv) for BaseOutput::buildAndWrite()
    mdbmanager.o(i._ZN10MDBManager7onErrorEv) refers to logevent.o(i._ZN10MDBManager10giveChangeEj) for MDBManager::giveChange(unsigned)
    mdbmanager.o(i._ZN10MDBManager9onPayStopEv) refers to bootmaintask.o(i._ZN7LogUart8instanceEv) for LogUart::instance()
    mdbmanager.o(i._ZN10MDBManager9onPayStopEv) refers to logevent.o(i._ZN10BaseOutput9setActionEh) for BaseOutput::setAction(unsigned char)
    mdbmanager.o(i._ZN10MDBManager9onPayStopEv) refers to baseoutput.o(i._ZN10BaseOutput13buildAndWriteEv) for BaseOutput::buildAndWrite()
    mdbmanager.o(i._ZN10MDBManager9onPayStopEv) refers to logevent.o(i._ZN10MDBManager10giveChangeEj) for MDBManager::giveChange(unsigned)
    mdbmanager.o(i._ZN10MDBManager9onPayStopEv) refers to logevent.o(i._ZN10BaseOutput7append1Eh) for BaseOutput::append1(unsigned char)
    mdbmanager.o(i._ZN10MDBManager9onSuccessEv) refers to bootmaintask.o(i._ZN7LogUart8instanceEv) for LogUart::instance()
    mdbmanager.o(i._ZN10MDBManager9onSuccessEv) refers to logevent.o(i._ZN10BaseOutput9setActionEh) for BaseOutput::setAction(unsigned char)
    mdbmanager.o(i._ZN10MDBManager9onSuccessEv) refers to logevent.o(i._ZN10BaseOutput7append1Eh) for BaseOutput::append1(unsigned char)
    mdbmanager.o(i._ZN10MDBManager9onSuccessEv) refers to baseoutput.o(i._ZN10BaseOutput13buildAndWriteEv) for BaseOutput::buildAndWrite()
    mdbmanager.o(.ARM.exidx) refers to mdbmanager.o(i._ZN10MDBManager10onPayStartEj) for i._ZN10MDBManager10onPayStartEj
    mdbmanager.o(.ARM.exidx) refers to mdbmanager.o(i._ZN10MDBManager9onPayStopEv) for i._ZN10MDBManager9onPayStopEv
    mdbmanager.o(.ARM.exidx) refers to mdbmanager.o(i._ZN10MDBManager7onErrorEv) for i._ZN10MDBManager7onErrorEv
    mdbmanager.o(.ARM.exidx) refers to mdbmanager.o(i._ZN10MDBManager9onSuccessEv) for i._ZN10MDBManager9onSuccessEv
    mdbmanager.o(.ARM.exidx) refers to mdbmanager.o(i._ZN10MDBManager13onVposCheckedEv) for i._ZN10MDBManager13onVposCheckedEv
    mdbmanager.o(.ARM.exidx) refers to mdbmanager.o(i._ZN10MDBManager13onCashCheckedEj) for i._ZN10MDBManager13onCashCheckedEj
    mdbmanager.o(.ARM.exidx) refers to mdbmanager.o(i._ZN10MDBManagerC1Ev) for i._ZN10MDBManagerC1Ev
    faultmanager.o(.ARM.exidx) refers to faultmanager.o(i._ZN12FaultManagerC1Ev) for i._ZN12FaultManagerC1Ev
    windowmanager.o(.ARM.exidx) refers to windowmanager.o(i._ZN13WindowManager17onMessageReceiverE9MessageId) for i._ZN13WindowManager17onMessageReceiverE9MessageId
    windowmanager.o(.ARM.exidx) refers to windowmanager.o(i._ZN13WindowManagerC1Ev) for i._ZN13WindowManagerC1Ev
    dex.o(i._ZN3Dex10xDexFormatEPcPKcS2_z) refers to dex.o(i._ZN3Dex8xStrCopyEPcPKc) for Dex::xStrCopy(char*, const char*)
    dex.o(i._ZN3Dex10xDexFormatEPcPKcS2_z) refers to dex.o(i._ZN3Dex11xStrValueOfEPcj) for Dex::xStrValueOf(char*, unsigned)
    dex.o(i._ZN3Dex10xDexFormatEPcPKcS2_z) refers to dex.o(i._ZN3Dex9xStrHexOfEPcj) for Dex::xStrHexOf(char*, unsigned)
    dex.o(i._ZN3Dex12xGetCRCValueEPKhj) refers to dex.o(i._ZN3Dex8vCalcCRCEPjh) for Dex::vCalcCRC(unsigned*, unsigned char)
    dex.o(i._ZN3Dex20xGetCRCValueOfNotDLEEPKhj) refers to dex.o(i._ZN3Dex8vCalcCRCEPjh) for Dex::vCalcCRC(unsigned*, unsigned char)
    dex.o(i._ZN3Dex9xStrHexOfEPcj) refers to dex.o(.constdata) for .constdata
    dex.o(.ARM.exidx) refers to dex.o(i._ZN3Dex11xStrValueOfEPcj) for i._ZN3Dex11xStrValueOfEPcj
    dex.o(.ARM.exidx) refers to dex.o(i._ZN3Dex9xStrHexOfEPcj) for i._ZN3Dex9xStrHexOfEPcj
    dex.o(.ARM.exidx) refers to dex.o(i._ZN3Dex8xStrCopyEPcPKc) for i._ZN3Dex8xStrCopyEPcPKc
    dex.o(.ARM.exidx) refers to dex.o(i._ZN3Dex10xDexFormatEPcPKcS2_z) for i._ZN3Dex10xDexFormatEPcPKcS2_z
    dex.o(.ARM.exidx) refers to dex.o(i._ZN3Dex8vCalcCRCEPjh) for i._ZN3Dex8vCalcCRCEPjh
    dex.o(.ARM.exidx) refers to dex.o(i._ZN3Dex12xGetCRCValueEPKhj) for i._ZN3Dex12xGetCRCValueEPKhj
    dex.o(.ARM.exidx) refers to dex.o(i._ZN3Dex20xGetCRCValueOfNotDLEEPKhj) for i._ZN3Dex20xGetCRCValueOfNotDLEEPKhj
    dex.o(.ARM.exidx) refers to dex.o(i._ZN3Dex11vBufferCopyEPhPKhj) for i._ZN3Dex11vBufferCopyEPhPKhj
    dexoutput.o(i._ZN9DexOutput16buildAndCRCWriteEv) refers to dex.o(i._ZN3Dex20xGetCRCValueOfNotDLEEPKhj) for Dex::xGetCRCValueOfNotDLE(const unsigned char*, unsigned)
    dexoutput.o(i._ZN9DexOutput16buildAndCRCWriteEv) refers to dexoutput.o(i._ZN9DexOutput6appendEh) for DexOutput::append(unsigned char)
    dexoutput.o(i._ZN9DexOutput6appendEPKc) refers to dex.o(i._ZN3Dex8xStrCopyEPcPKc) for Dex::xStrCopy(char*, const char*)
    dexoutput.o(i._ZN9DexOutput6appendEPKhj) refers to dex.o(i._ZN3Dex11vBufferCopyEPhPKhj) for Dex::vBufferCopy(unsigned char*, const unsigned char*, unsigned)
    dexoutput.o(i._ZN9DexOutputC2EPh) refers to dexoutput.o(.constdata__ZTV9DexOutput) for vtable for DexOutput
    dexoutput.o(i._ZN9DexOutputlsEPKc) refers to dex.o(i._ZN3Dex8xStrCopyEPcPKc) for Dex::xStrCopy(char*, const char*)
    dexoutput.o(.ARM.exidx) refers to dexoutput.o(i._ZN9DexOutputC2EPh) for i._ZN9DexOutputC2EPh
    dexoutput.o(.ARM.exidx) refers to dexoutput.o(i._ZN9DexOutputlsEh) for i._ZN9DexOutputlsEh
    dexoutput.o(.ARM.exidx) refers to dexoutput.o(i._ZN9DexOutputlsEPKc) for i._ZN9DexOutputlsEPKc
    dexoutput.o(.ARM.exidx) refers to dexoutput.o(i._ZN9DexOutput6appendEPKhj) for i._ZN9DexOutput6appendEPKhj
    dexoutput.o(.ARM.exidx) refers to dexoutput.o(i._ZN9DexOutput6appendEh) for i._ZN9DexOutput6appendEh
    dexoutput.o(.ARM.exidx) refers to dexoutput.o(i._ZN9DexOutput6appendEPKc) for i._ZN9DexOutput6appendEPKc
    dexoutput.o(.ARM.exidx) refers to dexoutput.o(i._ZN9DexOutput13buildAndWriteEv) for i._ZN9DexOutput13buildAndWriteEv
    dexoutput.o(.ARM.exidx) refers to dexoutput.o(i._ZN9DexOutput16buildAndCRCWriteEv) for i._ZN9DexOutput16buildAndCRCWriteEv
    dexfilebuilder.o(i._ZN14DexFileBuilder4initEv) refers to dex.o(i._ZN3Dex10xDexFormatEPcPKcS2_z) for Dex::xDexFormat(char*, const char*, const char*, ...)
    dexfilebuilder.o(i._ZN14DexFileBuilder5buildEv) refers to dex.o(i._ZN3Dex12xGetCRCValueEPKhj) for Dex::xGetCRCValue(const unsigned char*, unsigned)
    dexfilebuilder.o(i._ZN14DexFileBuilder5buildEv) refers to dexfilebuilder.o(i._ZN14DexFileBuilder6appendEPKcS1_z) for DexFileBuilder::append(const char*, const char*, ...)
    dexfilebuilder.o(i._ZN14DexFileBuilder6appendEPKcS1_z) refers to dex.o(i._ZN3Dex8xStrCopyEPcPKc) for Dex::xStrCopy(char*, const char*)
    dexfilebuilder.o(i._ZN14DexFileBuilder6appendEPKcS1_z) refers to dex.o(i._ZN3Dex11xStrValueOfEPcj) for Dex::xStrValueOf(char*, unsigned)
    dexfilebuilder.o(i._ZN14DexFileBuilder6appendEPKcS1_z) refers to dex.o(i._ZN3Dex9xStrHexOfEPcj) for Dex::xStrHexOf(char*, unsigned)
    dexfilebuilder.o(.ARM.exidx) refers to dexfilebuilder.o(i._ZN14DexFileBuilder4initEv) for i._ZN14DexFileBuilder4initEv
    dexfilebuilder.o(.ARM.exidx) refers to dexfilebuilder.o(i._ZN14DexFileBuilder6appendEPKcS1_z) for i._ZN14DexFileBuilder6appendEPKcS1_z
    dexfilebuilder.o(.ARM.exidx) refers to dexfilebuilder.o(i._ZN14DexFileBuilder5buildEv) for i._ZN14DexFileBuilder5buildEv
    dexfilebuilder.o(.ARM.exidx) refers to dexfilebuilder.o(i._ZN14DexFileBuilderC1Ev) for i._ZN14DexFileBuilderC1Ev
    lcdconf.o(i.LCD_X_Config) refers to gui_device.o(i.GUI_DEVICE_CreateAndLink) for GUI_DEVICE_CreateAndLink
    lcdconf.o(i.LCD_X_Config) refers to lcd_set.o(i.LCD_SetSizeEx) for LCD_SetSizeEx
    lcdconf.o(i.LCD_X_Config) refers to lcd_set.o(i.LCD_SetVSizeEx) for LCD_SetVSizeEx
    lcdconf.o(i.LCD_X_Config) refers to guicc_565.o(.constdata) for LCD_API_ColorConv_565
    lcdconf.o(i.LCD_X_Config) refers to guidrv_template.o(.constdata) for GUIDRV_Template_API
    lcdconf.o(.ARM.exidx) refers to lcdconf.o(i.LCD_X_Config) for i.LCD_X_Config
    lcdconf.o(.ARM.exidx) refers to lcdconf.o(i.LCD_X_DisplayDriver) for i.LCD_X_DisplayDriver
    lcdconf.o(.ARM.exidx) refers to lcdconf.o(i.GUI_TOUCH_X_ActivateX) for i.GUI_TOUCH_X_ActivateX
    lcdconf.o(.ARM.exidx) refers to lcdconf.o(i.GUI_TOUCH_X_ActivateY) for i.GUI_TOUCH_X_ActivateY
    lcdconf.o(.ARM.exidx) refers to lcdconf.o(i.GUI_TOUCH_X_MeasureX) for i.GUI_TOUCH_X_MeasureX
    lcdconf.o(.ARM.exidx) refers to lcdconf.o(i.GUI_TOUCH_X_MeasureY) for i.GUI_TOUCH_X_MeasureY
    guiconf.o(i.GUI_X_Config) refers to gui_alloc.o(i.GUI_ALLOC_AssignMemory) for GUI_ALLOC_AssignMemory
    guiconf.o(i.GUI_X_Config) refers to gui_core.o(i.GUI_SetDefaultFont) for GUI_SetDefaultFont
    guiconf.o(i.GUI_X_Config) refers to f13b_ascii.o(.constdata) for GUI_Font13B_ASCII
    guiconf.o(.ARM.exidx) refers to guiconf.o(i.GUI_X_Config) for i.GUI_X_Config
    guidrv_template.o(i._ZN39_INTERNAL_17_GUIDRV_Template_c_4a54813b10_DrawHLineEP10GUI_DEVICEiii) refers to guidrv_template.o(i._ZN39_INTERNAL_17_GUIDRV_Template_c_4a54813b9_FillRectEP10GUI_DEVICEiiii) for [local to GUIDRV_Template_c]::_FillRect(GUI_DEVICE*, int, int, int, int)
    guidrv_template.o(i._ZN39_INTERNAL_17_GUIDRV_Template_c_4a54813b10_DrawVLineEP10GUI_DEVICEiii) refers to guidrv_template.o(i._ZN39_INTERNAL_17_GUIDRV_Template_c_4a54813b9_FillRectEP10GUI_DEVICEiiii) for [local to GUIDRV_Template_c]::_FillRect(GUI_DEVICE*, int, int, int, int)
    guidrv_template.o(i._ZN39_INTERNAL_17_GUIDRV_Template_c_4a54813b11_DrawBitmapEP10GUI_DEVICEiiiiiiPKhiPKm) refers to guidrv_template.o(i._ZN39_INTERNAL_17_GUIDRV_Template_c_4a54813b16_DrawBitLine1BPPEP10GUI_DEVICEiiPKhiiPKm) for [local to GUIDRV_Template_c]::_DrawBitLine1BPP(GUI_DEVICE*, int, int, const unsigned char*, int, int, const unsigned long*)
    guidrv_template.o(i._ZN39_INTERNAL_17_GUIDRV_Template_c_4a54813b11_DrawBitmapEP10GUI_DEVICEiiiiiiPKhiPKm) refers to guidrv_template.o(i._ZN39_INTERNAL_17_GUIDRV_Template_c_4a54813b16_DrawBitLine2BPPEP10GUI_DEVICEiiPKhiiPKm) for [local to GUIDRV_Template_c]::_DrawBitLine2BPP(GUI_DEVICE*, int, int, const unsigned char*, int, int, const unsigned long*)
    guidrv_template.o(i._ZN39_INTERNAL_17_GUIDRV_Template_c_4a54813b11_DrawBitmapEP10GUI_DEVICEiiiiiiPKhiPKm) refers to guidrv_template.o(i._ZN39_INTERNAL_17_GUIDRV_Template_c_4a54813b16_DrawBitLine4BPPEP10GUI_DEVICEiiPKhiiPKm) for [local to GUIDRV_Template_c]::_DrawBitLine4BPP(GUI_DEVICE*, int, int, const unsigned char*, int, int, const unsigned long*)
    guidrv_template.o(i._ZN39_INTERNAL_17_GUIDRV_Template_c_4a54813b11_DrawBitmapEP10GUI_DEVICEiiiiiiPKhiPKm) refers to guidrv_template.o(i._ZN39_INTERNAL_17_GUIDRV_Template_c_4a54813b16_DrawBitLine8BPPEP10GUI_DEVICEiiPKhiPKm) for [local to GUIDRV_Template_c]::_DrawBitLine8BPP(GUI_DEVICE*, int, int, const unsigned char*, int, const unsigned long*)
    guidrv_template.o(i._ZN39_INTERNAL_17_GUIDRV_Template_c_4a54813b11_DrawBitmapEP10GUI_DEVICEiiiiiiPKhiPKm) refers to lcd.o(i.vLcdDrawRectColor) for vLcdDrawRectColor
    guidrv_template.o(i._ZN39_INTERNAL_17_GUIDRV_Template_c_4a54813b11_DrawBitmapEP10GUI_DEVICEiiiiiiPKhiPKm) refers to guidrv_template.o(i._ZN39_INTERNAL_17_GUIDRV_Template_c_4a54813b14_SetPixelIndexEP10GUI_DEVICEiim) for [local to GUIDRV_Template_c]::_SetPixelIndex(GUI_DEVICE*, int, int, unsigned long)
    guidrv_template.o(i._ZN39_INTERNAL_17_GUIDRV_Template_c_4a54813b11_GetDevDataEP10GUI_DEVICEi) refers to guidev_16.o(.constdata) for GUI_MEMDEV_DEVICE_16
    guidrv_template.o(i._ZN39_INTERNAL_17_GUIDRV_Template_c_4a54813b11_GetDevFuncEPP10GUI_DEVICEi) refers to guidrv_template.o(i._ZN39_INTERNAL_17_GUIDRV_Template_c_4a54813b12_SetVRAMAddrEP10GUI_DEVICEPv) for [local to GUIDRV_Template_c]::_SetVRAMAddr(GUI_DEVICE*, void*)
    guidrv_template.o(i._ZN39_INTERNAL_17_GUIDRV_Template_c_4a54813b11_GetDevFuncEPP10GUI_DEVICEi) refers to guidrv_template.o(i._ZN39_INTERNAL_17_GUIDRV_Template_c_4a54813b9_SetVSizeEP10GUI_DEVICEii) for [local to GUIDRV_Template_c]::_SetVSize(GUI_DEVICE*, int, int)
    guidrv_template.o(i._ZN39_INTERNAL_17_GUIDRV_Template_c_4a54813b11_GetDevFuncEPP10GUI_DEVICEi) refers to guidrv_template.o(i._ZN39_INTERNAL_17_GUIDRV_Template_c_4a54813b8_SetSizeEP10GUI_DEVICEii) for [local to GUIDRV_Template_c]::_SetSize(GUI_DEVICE*, int, int)
    guidrv_template.o(i._ZN39_INTERNAL_17_GUIDRV_Template_c_4a54813b11_GetDevFuncEPP10GUI_DEVICEi) refers to guidrv_template.o(i._ZN39_INTERNAL_17_GUIDRV_Template_c_4a54813b5_InitEP10GUI_DEVICE) for [local to GUIDRV_Template_c]::_Init(GUI_DEVICE*)
    guidrv_template.o(i._ZN39_INTERNAL_17_GUIDRV_Template_c_4a54813b11_GetDevFuncEPP10GUI_DEVICEi) refers to guidrv_template.o(i._ZN39_INTERNAL_17_GUIDRV_Template_c_4a54813b3_OnEP10GUI_DEVICE) for [local to GUIDRV_Template_c]::_On(GUI_DEVICE*)
    guidrv_template.o(i._ZN39_INTERNAL_17_GUIDRV_Template_c_4a54813b11_GetDevFuncEPP10GUI_DEVICEi) refers to guidrv_template.o(i._ZN39_INTERNAL_17_GUIDRV_Template_c_4a54813b4_OffEP10GUI_DEVICE) for [local to GUIDRV_Template_c]::_Off(GUI_DEVICE*)
    guidrv_template.o(i._ZN39_INTERNAL_17_GUIDRV_Template_c_4a54813b11_GetDevFuncEPP10GUI_DEVICEi) refers to guidrv_template.o(i._ZN39_INTERNAL_17_GUIDRV_Template_c_4a54813b12_SetLUTEntryEP10GUI_DEVICEhm) for [local to GUIDRV_Template_c]::_SetLUTEntry(GUI_DEVICE*, unsigned char, unsigned long)
    guidrv_template.o(i._ZN39_INTERNAL_17_GUIDRV_Template_c_4a54813b12_SetLUTEntryEP10GUI_DEVICEhm) refers to lcdconf.o(i.LCD_X_DisplayDriver) for LCD_X_DisplayDriver
    guidrv_template.o(i._ZN39_INTERNAL_17_GUIDRV_Template_c_4a54813b12_SetVRAMAddrEP10GUI_DEVICEPv) refers to guidrv_template.o(i._ZN39_INTERNAL_17_GUIDRV_Template_c_4a54813b9_InitOnceEP10GUI_DEVICE) for [local to GUIDRV_Template_c]::_InitOnce(GUI_DEVICE*)
    guidrv_template.o(i._ZN39_INTERNAL_17_GUIDRV_Template_c_4a54813b12_SetVRAMAddrEP10GUI_DEVICEPv) refers to lcdconf.o(i.LCD_X_DisplayDriver) for LCD_X_DisplayDriver
    guidrv_template.o(i._ZN39_INTERNAL_17_GUIDRV_Template_c_4a54813b14_GetPixelIndexEP10GUI_DEVICEii) refers to lcd.o(i.xLcdGetPixel) for xLcdGetPixel
    guidrv_template.o(i._ZN39_INTERNAL_17_GUIDRV_Template_c_4a54813b14_SetPixelIndexEP10GUI_DEVICEiim) refers to lcd.o(i.vLcdDrawPixel) for vLcdDrawPixel
    guidrv_template.o(i._ZN39_INTERNAL_17_GUIDRV_Template_c_4a54813b16_DrawBitLine1BPPEP10GUI_DEVICEiiPKhiiPKm) refers to guidrv_template.o(i._ZN39_INTERNAL_17_GUIDRV_Template_c_4a54813b14_GetPixelIndexEP10GUI_DEVICEii) for [local to GUIDRV_Template_c]::_GetPixelIndex(GUI_DEVICE*, int, int)
    guidrv_template.o(i._ZN39_INTERNAL_17_GUIDRV_Template_c_4a54813b16_DrawBitLine1BPPEP10GUI_DEVICEiiPKhiiPKm) refers to guidrv_template.o(i._ZN39_INTERNAL_17_GUIDRV_Template_c_4a54813b14_SetPixelIndexEP10GUI_DEVICEiim) for [local to GUIDRV_Template_c]::_SetPixelIndex(GUI_DEVICE*, int, int, unsigned long)
    guidrv_template.o(i._ZN39_INTERNAL_17_GUIDRV_Template_c_4a54813b16_DrawBitLine1BPPEP10GUI_DEVICEiiPKhiiPKm) refers to gui_core.o(.data) for GUI_pContext
    guidrv_template.o(i._ZN39_INTERNAL_17_GUIDRV_Template_c_4a54813b16_DrawBitLine2BPPEP10GUI_DEVICEiiPKhiiPKm) refers to guidrv_template.o(i._ZN39_INTERNAL_17_GUIDRV_Template_c_4a54813b14_SetPixelIndexEP10GUI_DEVICEiim) for [local to GUIDRV_Template_c]::_SetPixelIndex(GUI_DEVICE*, int, int, unsigned long)
    guidrv_template.o(i._ZN39_INTERNAL_17_GUIDRV_Template_c_4a54813b16_DrawBitLine2BPPEP10GUI_DEVICEiiPKhiiPKm) refers to gui_core.o(.data) for GUI_pContext
    guidrv_template.o(i._ZN39_INTERNAL_17_GUIDRV_Template_c_4a54813b16_DrawBitLine4BPPEP10GUI_DEVICEiiPKhiiPKm) refers to guidrv_template.o(i._ZN39_INTERNAL_17_GUIDRV_Template_c_4a54813b14_SetPixelIndexEP10GUI_DEVICEiim) for [local to GUIDRV_Template_c]::_SetPixelIndex(GUI_DEVICE*, int, int, unsigned long)
    guidrv_template.o(i._ZN39_INTERNAL_17_GUIDRV_Template_c_4a54813b16_DrawBitLine4BPPEP10GUI_DEVICEiiPKhiiPKm) refers to gui_core.o(.data) for GUI_pContext
    guidrv_template.o(i._ZN39_INTERNAL_17_GUIDRV_Template_c_4a54813b16_DrawBitLine8BPPEP10GUI_DEVICEiiPKhiPKm) refers to guidrv_template.o(i._ZN39_INTERNAL_17_GUIDRV_Template_c_4a54813b14_SetPixelIndexEP10GUI_DEVICEiim) for [local to GUIDRV_Template_c]::_SetPixelIndex(GUI_DEVICE*, int, int, unsigned long)
    guidrv_template.o(i._ZN39_INTERNAL_17_GUIDRV_Template_c_4a54813b16_DrawBitLine8BPPEP10GUI_DEVICEiiPKhiPKm) refers to gui_core.o(.data) for GUI_pContext
    guidrv_template.o(i._ZN39_INTERNAL_17_GUIDRV_Template_c_4a54813b3_OnEP10GUI_DEVICE) refers to lcdconf.o(i.LCD_X_DisplayDriver) for LCD_X_DisplayDriver
    guidrv_template.o(i._ZN39_INTERNAL_17_GUIDRV_Template_c_4a54813b4_OffEP10GUI_DEVICE) refers to lcdconf.o(i.LCD_X_DisplayDriver) for LCD_X_DisplayDriver
    guidrv_template.o(i._ZN39_INTERNAL_17_GUIDRV_Template_c_4a54813b5_InitEP10GUI_DEVICE) refers to guidrv_template.o(i._ZN39_INTERNAL_17_GUIDRV_Template_c_4a54813b9_InitOnceEP10GUI_DEVICE) for [local to GUIDRV_Template_c]::_InitOnce(GUI_DEVICE*)
    guidrv_template.o(i._ZN39_INTERNAL_17_GUIDRV_Template_c_4a54813b5_InitEP10GUI_DEVICE) refers to lcdconf.o(i.LCD_X_DisplayDriver) for LCD_X_DisplayDriver
    guidrv_template.o(i._ZN39_INTERNAL_17_GUIDRV_Template_c_4a54813b7_SetOrgEP10GUI_DEVICEii) refers to lcdconf.o(i.LCD_X_DisplayDriver) for LCD_X_DisplayDriver
    guidrv_template.o(i._ZN39_INTERNAL_17_GUIDRV_Template_c_4a54813b8_SetSizeEP10GUI_DEVICEii) refers to guidrv_template.o(i._ZN39_INTERNAL_17_GUIDRV_Template_c_4a54813b9_InitOnceEP10GUI_DEVICE) for [local to GUIDRV_Template_c]::_InitOnce(GUI_DEVICE*)
    guidrv_template.o(i._ZN39_INTERNAL_17_GUIDRV_Template_c_4a54813b8_SetSizeEP10GUI_DEVICEii) refers to lcdconf.o(i.LCD_X_DisplayDriver) for LCD_X_DisplayDriver
    guidrv_template.o(i._ZN39_INTERNAL_17_GUIDRV_Template_c_4a54813b9_FillRectEP10GUI_DEVICEiiii) refers to guidrv_template.o(i._ZN39_INTERNAL_17_GUIDRV_Template_c_4a54813b9_XorPixelEP10GUI_DEVICEii) for [local to GUIDRV_Template_c]::_XorPixel(GUI_DEVICE*, int, int)
    guidrv_template.o(i._ZN39_INTERNAL_17_GUIDRV_Template_c_4a54813b9_FillRectEP10GUI_DEVICEiiii) refers to lcd.o(i.vLcdDrawRect) for vLcdDrawRect
    guidrv_template.o(i._ZN39_INTERNAL_17_GUIDRV_Template_c_4a54813b9_FillRectEP10GUI_DEVICEiiii) refers to gui_core.o(.data) for GUI_pContext
    guidrv_template.o(i._ZN39_INTERNAL_17_GUIDRV_Template_c_4a54813b9_InitOnceEP10GUI_DEVICE) refers to gui_alloc.o(i.GUI_ALLOC_GetFixedBlock) for GUI_ALLOC_GetFixedBlock
    guidrv_template.o(i._ZN39_INTERNAL_17_GUIDRV_Template_c_4a54813b9_InitOnceEP10GUI_DEVICE) refers to lcd_getex.o(i.LCD__GetBPP) for LCD__GetBPP
    guidrv_template.o(i._ZN39_INTERNAL_17_GUIDRV_Template_c_4a54813b9_SetVSizeEP10GUI_DEVICEii) refers to guidrv_template.o(i._ZN39_INTERNAL_17_GUIDRV_Template_c_4a54813b9_InitOnceEP10GUI_DEVICE) for [local to GUIDRV_Template_c]::_InitOnce(GUI_DEVICE*)
    guidrv_template.o(i._ZN39_INTERNAL_17_GUIDRV_Template_c_4a54813b9_XorPixelEP10GUI_DEVICEii) refers to guidrv_template.o(i._ZN39_INTERNAL_17_GUIDRV_Template_c_4a54813b14_GetPixelIndexEP10GUI_DEVICEii) for [local to GUIDRV_Template_c]::_GetPixelIndex(GUI_DEVICE*, int, int)
    guidrv_template.o(i._ZN39_INTERNAL_17_GUIDRV_Template_c_4a54813b9_XorPixelEP10GUI_DEVICEii) refers to guidrv_template.o(i._ZN39_INTERNAL_17_GUIDRV_Template_c_4a54813b14_SetPixelIndexEP10GUI_DEVICEiim) for [local to GUIDRV_Template_c]::_SetPixelIndex(GUI_DEVICE*, int, int, unsigned long)
    guidrv_template.o(.ARM.exidx) refers to guidrv_template.o(i._ZN39_INTERNAL_17_GUIDRV_Template_c_4a54813b14_SetPixelIndexEP10GUI_DEVICEiim) for i._ZN39_INTERNAL_17_GUIDRV_Template_c_4a54813b14_SetPixelIndexEP10GUI_DEVICEiim
    guidrv_template.o(.ARM.exidx) refers to guidrv_template.o(i._ZN39_INTERNAL_17_GUIDRV_Template_c_4a54813b14_GetPixelIndexEP10GUI_DEVICEii) for i._ZN39_INTERNAL_17_GUIDRV_Template_c_4a54813b14_GetPixelIndexEP10GUI_DEVICEii
    guidrv_template.o(.ARM.exidx) refers to guidrv_template.o(i._ZN39_INTERNAL_17_GUIDRV_Template_c_4a54813b9_XorPixelEP10GUI_DEVICEii) for i._ZN39_INTERNAL_17_GUIDRV_Template_c_4a54813b9_XorPixelEP10GUI_DEVICEii
    guidrv_template.o(.ARM.exidx) refers to guidrv_template.o(i._ZN39_INTERNAL_17_GUIDRV_Template_c_4a54813b9_FillRectEP10GUI_DEVICEiiii) for i._ZN39_INTERNAL_17_GUIDRV_Template_c_4a54813b9_FillRectEP10GUI_DEVICEiiii
    guidrv_template.o(.ARM.exidx) refers to guidrv_template.o(i._ZN39_INTERNAL_17_GUIDRV_Template_c_4a54813b10_DrawHLineEP10GUI_DEVICEiii) for i._ZN39_INTERNAL_17_GUIDRV_Template_c_4a54813b10_DrawHLineEP10GUI_DEVICEiii
    guidrv_template.o(.ARM.exidx) refers to guidrv_template.o(i._ZN39_INTERNAL_17_GUIDRV_Template_c_4a54813b10_DrawVLineEP10GUI_DEVICEiii) for i._ZN39_INTERNAL_17_GUIDRV_Template_c_4a54813b10_DrawVLineEP10GUI_DEVICEiii
    guidrv_template.o(.ARM.exidx) refers to guidrv_template.o(i._ZN39_INTERNAL_17_GUIDRV_Template_c_4a54813b16_DrawBitLine2BPPEP10GUI_DEVICEiiPKhiiPKm) for i._ZN39_INTERNAL_17_GUIDRV_Template_c_4a54813b16_DrawBitLine2BPPEP10GUI_DEVICEiiPKhiiPKm
    guidrv_template.o(.ARM.exidx) refers to guidrv_template.o(i._ZN39_INTERNAL_17_GUIDRV_Template_c_4a54813b16_DrawBitLine4BPPEP10GUI_DEVICEiiPKhiiPKm) for i._ZN39_INTERNAL_17_GUIDRV_Template_c_4a54813b16_DrawBitLine4BPPEP10GUI_DEVICEiiPKhiiPKm
    guidrv_template.o(.ARM.exidx) refers to guidrv_template.o(i._ZN39_INTERNAL_17_GUIDRV_Template_c_4a54813b11_DrawBitmapEP10GUI_DEVICEiiiiiiPKhiPKm) for i._ZN39_INTERNAL_17_GUIDRV_Template_c_4a54813b11_DrawBitmapEP10GUI_DEVICEiiiiiiPKhiPKm
    guidrv_template.o(.ARM.exidx) refers to guidrv_template.o(i._ZN39_INTERNAL_17_GUIDRV_Template_c_4a54813b9_InitOnceEP10GUI_DEVICE) for i._ZN39_INTERNAL_17_GUIDRV_Template_c_4a54813b9_InitOnceEP10GUI_DEVICE
    guidrv_template.o(.ARM.exidx) refers to guidrv_template.o(i._ZN39_INTERNAL_17_GUIDRV_Template_c_4a54813b11_GetDevPropEP10GUI_DEVICEi) for i._ZN39_INTERNAL_17_GUIDRV_Template_c_4a54813b11_GetDevPropEP10GUI_DEVICEi
    guidrv_template.o(.ARM.exidx) refers to guidrv_template.o(i._ZN39_INTERNAL_17_GUIDRV_Template_c_4a54813b11_GetDevDataEP10GUI_DEVICEi) for i._ZN39_INTERNAL_17_GUIDRV_Template_c_4a54813b11_GetDevDataEP10GUI_DEVICEi
    guidrv_template.o(.ARM.exidx) refers to guidrv_template.o(i._ZN39_INTERNAL_17_GUIDRV_Template_c_4a54813b8_GetRectEP10GUI_DEVICEP8LCD_RECT) for i._ZN39_INTERNAL_17_GUIDRV_Template_c_4a54813b8_GetRectEP10GUI_DEVICEP8LCD_RECT
    guidrv_template.o(.ARM.exidx) refers to guidrv_template.o(i._ZN39_INTERNAL_17_GUIDRV_Template_c_4a54813b7_SetOrgEP10GUI_DEVICEii) for i._ZN39_INTERNAL_17_GUIDRV_Template_c_4a54813b7_SetOrgEP10GUI_DEVICEii
    guidrv_template.o(.ARM.exidx) refers to guidrv_template.o(i._ZN39_INTERNAL_17_GUIDRV_Template_c_4a54813b12_SetVRAMAddrEP10GUI_DEVICEPv) for i._ZN39_INTERNAL_17_GUIDRV_Template_c_4a54813b12_SetVRAMAddrEP10GUI_DEVICEPv
    guidrv_template.o(.ARM.exidx) refers to guidrv_template.o(i._ZN39_INTERNAL_17_GUIDRV_Template_c_4a54813b9_SetVSizeEP10GUI_DEVICEii) for i._ZN39_INTERNAL_17_GUIDRV_Template_c_4a54813b9_SetVSizeEP10GUI_DEVICEii
    guidrv_template.o(.ARM.exidx) refers to guidrv_template.o(i._ZN39_INTERNAL_17_GUIDRV_Template_c_4a54813b8_SetSizeEP10GUI_DEVICEii) for i._ZN39_INTERNAL_17_GUIDRV_Template_c_4a54813b8_SetSizeEP10GUI_DEVICEii
    guidrv_template.o(.ARM.exidx) refers to guidrv_template.o(i._ZN39_INTERNAL_17_GUIDRV_Template_c_4a54813b5_InitEP10GUI_DEVICE) for i._ZN39_INTERNAL_17_GUIDRV_Template_c_4a54813b5_InitEP10GUI_DEVICE
    guidrv_template.o(.ARM.exidx) refers to guidrv_template.o(i._ZN39_INTERNAL_17_GUIDRV_Template_c_4a54813b3_OnEP10GUI_DEVICE) for i._ZN39_INTERNAL_17_GUIDRV_Template_c_4a54813b3_OnEP10GUI_DEVICE
    guidrv_template.o(.ARM.exidx) refers to guidrv_template.o(i._ZN39_INTERNAL_17_GUIDRV_Template_c_4a54813b4_OffEP10GUI_DEVICE) for i._ZN39_INTERNAL_17_GUIDRV_Template_c_4a54813b4_OffEP10GUI_DEVICE
    guidrv_template.o(.ARM.exidx) refers to guidrv_template.o(i._ZN39_INTERNAL_17_GUIDRV_Template_c_4a54813b12_SetLUTEntryEP10GUI_DEVICEhm) for i._ZN39_INTERNAL_17_GUIDRV_Template_c_4a54813b12_SetLUTEntryEP10GUI_DEVICEhm
    guidrv_template.o(.ARM.exidx) refers to guidrv_template.o(i._ZN39_INTERNAL_17_GUIDRV_Template_c_4a54813b11_GetDevFuncEPP10GUI_DEVICEi) for i._ZN39_INTERNAL_17_GUIDRV_Template_c_4a54813b11_GetDevFuncEPP10GUI_DEVICEi
    guidrv_template.o(.ARM.exidx) refers to guidrv_template.o(i._ZN39_INTERNAL_17_GUIDRV_Template_c_4a54813b16_DrawBitLine1BPPEP10GUI_DEVICEiiPKhiiPKm) for i._ZN39_INTERNAL_17_GUIDRV_Template_c_4a54813b16_DrawBitLine1BPPEP10GUI_DEVICEiiPKhiiPKm
    guidrv_template.o(.ARM.exidx) refers to guidrv_template.o(i._ZN39_INTERNAL_17_GUIDRV_Template_c_4a54813b16_DrawBitLine8BPPEP10GUI_DEVICEiiPKhiPKm) for i._ZN39_INTERNAL_17_GUIDRV_Template_c_4a54813b16_DrawBitLine8BPPEP10GUI_DEVICEiiPKhiPKm
    guidrv_template.o(.constdata) refers to guidrv_template.o(i._ZN39_INTERNAL_17_GUIDRV_Template_c_4a54813b11_DrawBitmapEP10GUI_DEVICEiiiiiiPKhiPKm) for [local to GUIDRV_Template_c]::_DrawBitmap(GUI_DEVICE*, int, int, int, int, int, int, const unsigned char*, int, const unsigned long*)
    guidrv_template.o(.constdata) refers to guidrv_template.o(i._ZN39_INTERNAL_17_GUIDRV_Template_c_4a54813b10_DrawHLineEP10GUI_DEVICEiii) for [local to GUIDRV_Template_c]::_DrawHLine(GUI_DEVICE*, int, int, int)
    guidrv_template.o(.constdata) refers to guidrv_template.o(i._ZN39_INTERNAL_17_GUIDRV_Template_c_4a54813b10_DrawVLineEP10GUI_DEVICEiii) for [local to GUIDRV_Template_c]::_DrawVLine(GUI_DEVICE*, int, int, int)
    guidrv_template.o(.constdata) refers to guidrv_template.o(i._ZN39_INTERNAL_17_GUIDRV_Template_c_4a54813b9_FillRectEP10GUI_DEVICEiiii) for [local to GUIDRV_Template_c]::_FillRect(GUI_DEVICE*, int, int, int, int)
    guidrv_template.o(.constdata) refers to guidrv_template.o(i._ZN39_INTERNAL_17_GUIDRV_Template_c_4a54813b14_GetPixelIndexEP10GUI_DEVICEii) for [local to GUIDRV_Template_c]::_GetPixelIndex(GUI_DEVICE*, int, int)
    guidrv_template.o(.constdata) refers to guidrv_template.o(i._ZN39_INTERNAL_17_GUIDRV_Template_c_4a54813b14_SetPixelIndexEP10GUI_DEVICEiim) for [local to GUIDRV_Template_c]::_SetPixelIndex(GUI_DEVICE*, int, int, unsigned long)
    guidrv_template.o(.constdata) refers to guidrv_template.o(i._ZN39_INTERNAL_17_GUIDRV_Template_c_4a54813b9_XorPixelEP10GUI_DEVICEii) for [local to GUIDRV_Template_c]::_XorPixel(GUI_DEVICE*, int, int)
    guidrv_template.o(.constdata) refers to guidrv_template.o(i._ZN39_INTERNAL_17_GUIDRV_Template_c_4a54813b7_SetOrgEP10GUI_DEVICEii) for [local to GUIDRV_Template_c]::_SetOrg(GUI_DEVICE*, int, int)
    guidrv_template.o(.constdata) refers to guidrv_template.o(i._ZN39_INTERNAL_17_GUIDRV_Template_c_4a54813b11_GetDevFuncEPP10GUI_DEVICEi) for [local to GUIDRV_Template_c]::_GetDevFunc(GUI_DEVICE**, int)
    guidrv_template.o(.constdata) refers to guidrv_template.o(i._ZN39_INTERNAL_17_GUIDRV_Template_c_4a54813b11_GetDevPropEP10GUI_DEVICEi) for [local to GUIDRV_Template_c]::_GetDevProp(GUI_DEVICE*, int)
    guidrv_template.o(.constdata) refers to guidrv_template.o(i._ZN39_INTERNAL_17_GUIDRV_Template_c_4a54813b11_GetDevDataEP10GUI_DEVICEi) for [local to GUIDRV_Template_c]::_GetDevData(GUI_DEVICE*, int)
    guidrv_template.o(.constdata) refers to guidrv_template.o(i._ZN39_INTERNAL_17_GUIDRV_Template_c_4a54813b8_GetRectEP10GUI_DEVICEP8LCD_RECT) for [local to GUIDRV_Template_c]::_GetRect(GUI_DEVICE*, LCD_RECT*)
    gui_x_os.o(i.GUI_X_Delay) refers to rtx_delay.o(.text.osDelay) for osDelay
    gui_x_os.o(i.GUI_X_ExecIdle) refers to rtx_delay.o(.text.osDelay) for osDelay
    gui_x_os.o(i.GUI_X_GetTaskId) refers to rtx_thread.o(.text.osThreadGetId) for osThreadGetId
    gui_x_os.o(i.GUI_X_GetTime) refers to rtx_kernel.o(.text.osKernelGetTickCount) for osKernelGetTickCount
    gui_x_os.o(i.GUI_X_Init) refers to rtx_semaphore.o(.text.osSemaphoreNew) for osSemaphoreNew
    gui_x_os.o(i.GUI_X_Init) refers to gui_x_os.o(.data) for .data
    gui_x_os.o(i.GUI_X_InitOS) refers to rtx_semaphore.o(.text.osSemaphoreNew) for osSemaphoreNew
    gui_x_os.o(i.GUI_X_InitOS) refers to gui_x_os.o(.data) for .data
    gui_x_os.o(i.GUI_X_Lock) refers to rtx_semaphore.o(.text.osSemaphoreAcquire) for osSemaphoreAcquire
    gui_x_os.o(i.GUI_X_Lock) refers to gui_x_os.o(.data) for .data
    gui_x_os.o(i.GUI_X_SignalEvent) refers to rtx_semaphore.o(.text.osSemaphoreRelease) for osSemaphoreRelease
    gui_x_os.o(i.GUI_X_SignalEvent) refers to gui_x_os.o(.data) for .data
    gui_x_os.o(i.GUI_X_Unlock) refers to rtx_semaphore.o(.text.osSemaphoreRelease) for osSemaphoreRelease
    gui_x_os.o(i.GUI_X_Unlock) refers to gui_x_os.o(.data) for .data
    gui_x_os.o(i.GUI_X_WaitEvent) refers to rtx_semaphore.o(.text.osSemaphoreAcquire) for osSemaphoreAcquire
    gui_x_os.o(i.GUI_X_WaitEvent) refers to gui_x_os.o(.data) for .data
    gui_x_os.o(i._Z12GUI_X_GetKeyv) refers to gui_x_os.o(i._Z9CheckInitv) for CheckInit()
    gui_x_os.o(i._Z12GUI_X_GetKeyv) refers to gui_x_os.o(.data) for .data
    gui_x_os.o(i._Z13GUI_X_WaitKeyv) refers to gui_x_os.o(i._Z9CheckInitv) for CheckInit()
    gui_x_os.o(i._Z13GUI_X_WaitKeyv) refers to rtx_semaphore.o(.text.osSemaphoreAcquire) for osSemaphoreAcquire
    gui_x_os.o(i._Z13GUI_X_WaitKeyv) refers to gui_x_os.o(.data) for .data
    gui_x_os.o(i._Z14GUI_X_StoreKeyi) refers to rtx_semaphore.o(.text.osSemaphoreRelease) for osSemaphoreRelease
    gui_x_os.o(i._Z14GUI_X_StoreKeyi) refers to gui_x_os.o(.data) for .data
    gui_x_os.o(i._Z9CheckInitv) refers to gui_x_os.o(i.GUI_X_Init) for GUI_X_Init
    gui_x_os.o(i._Z9CheckInitv) refers to gui_x_os.o(.data) for .data
    gui_x_os.o(.ARM.exidx) refers to gui_x_os.o(i.GUI_X_GetTime) for i.GUI_X_GetTime
    gui_x_os.o(.ARM.exidx) refers to gui_x_os.o(i.GUI_X_Delay) for i.GUI_X_Delay
    gui_x_os.o(.ARM.exidx) refers to gui_x_os.o(i.GUI_X_ExecIdle) for i.GUI_X_ExecIdle
    gui_x_os.o(.ARM.exidx) refers to gui_x_os.o(i.GUI_X_InitOS) for i.GUI_X_InitOS
    gui_x_os.o(.ARM.exidx) refers to gui_x_os.o(i.GUI_X_Lock) for i.GUI_X_Lock
    gui_x_os.o(.ARM.exidx) refers to gui_x_os.o(i.GUI_X_Unlock) for i.GUI_X_Unlock
    gui_x_os.o(.ARM.exidx) refers to gui_x_os.o(i.GUI_X_GetTaskId) for i.GUI_X_GetTaskId
    gui_x_os.o(.ARM.exidx) refers to gui_x_os.o(i.GUI_X_WaitEvent) for i.GUI_X_WaitEvent
    gui_x_os.o(.ARM.exidx) refers to gui_x_os.o(i.GUI_X_SignalEvent) for i.GUI_X_SignalEvent
    gui_x_os.o(.ARM.exidx) refers to gui_x_os.o(i.GUI_X_Init) for i.GUI_X_Init
    gui_x_os.o(.ARM.exidx) refers to gui_x_os.o(i._Z9CheckInitv) for i._Z9CheckInitv
    gui_x_os.o(.ARM.exidx) refers to gui_x_os.o(i._Z12GUI_X_GetKeyv) for i._Z12GUI_X_GetKeyv
    gui_x_os.o(.ARM.exidx) refers to gui_x_os.o(i._Z13GUI_X_WaitKeyv) for i._Z13GUI_X_WaitKeyv
    gui_x_os.o(.ARM.exidx) refers to gui_x_os.o(i._Z14GUI_X_StoreKeyi) for i._Z14GUI_X_StoreKeyi
    gui_x_os.o(.ARM.exidx) refers to gui_x_os.o(i.GUI_X_Log) for i.GUI_X_Log
    gui_x_os.o(.ARM.exidx) refers to gui_x_os.o(i.GUI_X_Warn) for i.GUI_X_Warn
    gui_x_os.o(.ARM.exidx) refers to gui_x_os.o(i.GUI_X_ErrorOut) for i.GUI_X_ErrorOut
    stringresources.o(.data) refers to stringresources.o(.conststring) for .conststring
    rtx_lib.o(i._Z11_mutex_freePPv) refers to rtx_mutex.o(.text.osMutexDelete) for osMutexDelete
    rtx_lib.o(i._Z14_mutex_acquirePPv) refers to rtx_lib.o(i._ZN30_INTERNAL_9_rtx_lib_c_7c080eb619os_kernel_is_activeEv) for [local to rtx_lib_c]::os_kernel_is_active()
    rtx_lib.o(i._Z14_mutex_acquirePPv) refers to rtx_mutex.o(.text.osMutexAcquire) for osMutexAcquire
    rtx_lib.o(i._Z14_mutex_releasePPv) refers to rtx_lib.o(i._ZN30_INTERNAL_9_rtx_lib_c_7c080eb619os_kernel_is_activeEv) for [local to rtx_lib_c]::os_kernel_is_active()
    rtx_lib.o(i._Z14_mutex_releasePPv) refers to rtx_mutex.o(.text.osMutexRelease) for osMutexRelease
    rtx_lib.o(i._Z17_mutex_initializePPv) refers to rtx_mutex.o(.text.osMutexNew) for osMutexNew
    rtx_lib.o(i._Z17_mutex_initializePPv) refers to rtx_config.o(i.osRtxErrorNotify) for osRtxErrorNotify
    rtx_lib.o(i._Z25__user_perthread_libspacev) refers to rtx_lib.o(i._ZN30_INTERNAL_9_rtx_lib_c_7c080eb619os_kernel_is_activeEv) for [local to rtx_lib_c]::os_kernel_is_active()
    rtx_lib.o(i._Z25__user_perthread_libspacev) refers to rtx_thread.o(.text.osThreadGetId) for osThreadGetId
    rtx_lib.o(i._Z25__user_perthread_libspacev) refers to rtx_config.o(i.osRtxErrorNotify) for osRtxErrorNotify
    rtx_lib.o(i._Z25__user_perthread_libspacev) refers to rtx_lib.o(.bss.os) for .bss.os
    rtx_lib.o(i._Z29_platform_post_stackheap_initv) refers to rtx_kernel.o(.text.osKernelInitialize) for osKernelInitialize
    rtx_lib.o(i._ZN30_INTERNAL_9_rtx_lib_c_7c080eb619os_kernel_is_activeEv) refers to rtx_kernel.o(.text.osKernelGetState) for osKernelGetState
    rtx_lib.o(i._ZN30_INTERNAL_9_rtx_lib_c_7c080eb619os_kernel_is_activeEv) refers to rtx_lib.o(.data) for .data
    rtx_lib.o(.ARM.exidx) refers to rtx_lib.o(i._Z29_platform_post_stackheap_initv) for i._Z29_platform_post_stackheap_initv
    rtx_lib.o(.ARM.exidx) refers to rtx_lib.o(i._Z25__user_perthread_libspacev) for i._Z25__user_perthread_libspacev
    rtx_lib.o(.ARM.exidx) refers to rtx_lib.o(i._Z17_mutex_initializePPv) for i._Z17_mutex_initializePPv
    rtx_lib.o(.ARM.exidx) refers to rtx_lib.o(i._Z14_mutex_acquirePPv) for i._Z14_mutex_acquirePPv
    rtx_lib.o(.ARM.exidx) refers to rtx_lib.o(i._Z14_mutex_releasePPv) for i._Z14_mutex_releasePPv
    rtx_lib.o(.ARM.exidx) refers to rtx_lib.o(i._Z11_mutex_freePPv) for i._Z11_mutex_freePPv
    rtx_lib.o(.ARM.exidx) refers to rtx_lib.o(i._ZN30_INTERNAL_9_rtx_lib_c_7c080eb619os_kernel_is_activeEv) for i._ZN30_INTERNAL_9_rtx_lib_c_7c080eb619os_kernel_is_activeEv
    rtx_lib.o(.constdata) refers to rtx_lib.o(.bss.os.thread.cb) for os_idle_thread_cb
    rtx_lib.o(.constdata) refers to rtx_lib.o(.bss.os.thread.stack) for os_idle_thread_stack
    rtx_lib.o(.constdata) refers to rtx_lib.o(.bss.os.thread.cb) for os_timer_thread_cb
    rtx_lib.o(.constdata) refers to rtx_lib.o(.bss.os.thread.stack) for os_timer_thread_stack
    rtx_lib.o(.constdata) refers to rtx_lib.o(.bss.os.msgqueue.cb) for os_timer_mq_cb
    rtx_lib.o(.constdata) refers to rtx_lib.o(.bss.os.msgqueue.mem) for os_timer_mq_data
    rtx_lib.o(.data) refers to irq_cm4f.o(.constdata) for irqRtxLib
    rtx_lib.o(.rodata) refers to rtx_lib.o(.bss.os) for os_isr_queue
    rtx_lib.o(.rodata) refers to rtx_lib.o(.bss.os) for os_mem
    rtx_lib.o(.rodata) refers to rtx_lib.o(.constdata) for os_idle_thread_attr
    rtx_lib.o(.rodata) refers to rtx_lib.o(.constdata) for os_timer_thread_attr
    rtx_lib.o(.rodata) refers to rtx_lib.o(.constdata) for os_timer_mq_attr
    rtx_config.o(.ARM.exidx) refers to rtx_config.o(i.osRtxIdleThread) for i.osRtxIdleThread
    rtx_config.o(.ARM.exidx) refers to rtx_config.o(i.osRtxErrorNotify) for i.osRtxErrorNotify
    guiaa_arc.o(i.GUI_AA_DrawArc) refers to gui_task.o(i.GUI_Lock) for GUI_Lock
    guiaa_arc.o(i.GUI_AA_DrawArc) refers to wm__private.o(i.WM__GetOrgX_AA) for WM__GetOrgX_AA
    guiaa_arc.o(i.GUI_AA_DrawArc) refers to wm__private.o(i.WM__GetOrgY_AA) for WM__GetOrgY_AA
    guiaa_arc.o(i.GUI_AA_DrawArc) refers to wm.o(i.WM__InitIVRSearch) for WM__InitIVRSearch
    guiaa_arc.o(i.GUI_AA_DrawArc) refers to gui_common.o(i.GUI_GetPenSize) for GUI_GetPenSize
    guiaa_arc.o(i.GUI_AA_DrawArc) refers to guiaa_lib.o(i.GUI_AA_Init_HiRes) for GUI_AA_Init_HiRes
    guiaa_arc.o(i.GUI_AA_DrawArc) refers to gui_common.o(i.GUI_SetPenSize) for GUI_SetPenSize
    guiaa_arc.o(i.GUI_AA_DrawArc) refers to gui_arc.o(i.GL_DrawArc) for GL_DrawArc
    guiaa_arc.o(i.GUI_AA_DrawArc) refers to guiaa_lib.o(i.GUI_AA_Exit) for GUI_AA_Exit
    guiaa_arc.o(i.GUI_AA_DrawArc) refers to wm.o(i.WM__GetNextIVR) for WM__GetNextIVR
    guiaa_arc.o(i.GUI_AA_DrawArc) refers to gui_task.o(i.GUI_Unlock) for GUI_Unlock
    guiaa_arc.o(i.GUI_AA_DrawArc) refers to gui_core.o(.data) for GUI_pContext
    guiaa_circle.o(i.GL_FillCircleAA_HiRes) refers to guiaa_lib.o(i.GUI_AA_Init_HiRes) for GUI_AA_Init_HiRes
    guiaa_circle.o(i.GL_FillCircleAA_HiRes) refers to guiaa_lib.o(i.GUI_AA_Exit) for GUI_AA_Exit
    guiaa_circle.o(i.GL_FillCircleAA_HiRes) refers to gui_core.o(.data) for GUI_pContext
    guiaa_circle.o(i.GL_FillEllipseAA_HiRes) refers to guiaa_lib.o(i.GUI_AA_Init_HiRes) for GUI_AA_Init_HiRes
    guiaa_circle.o(i.GL_FillEllipseAA_HiRes) refers to gui__private.o(i.GUI__sqrt32) for GUI__sqrt32
    guiaa_circle.o(i.GL_FillEllipseAA_HiRes) refers to guiaa_lib.o(i.GUI_AA_Exit) for GUI_AA_Exit
    guiaa_circle.o(i.GL_FillEllipseAA_HiRes) refers to gui_core.o(.data) for GUI_pContext
    guiaa_circle.o(i.GUI_AA_FillCircle) refers to gui_task.o(i.GUI_Lock) for GUI_Lock
    guiaa_circle.o(i.GUI_AA_FillCircle) refers to wm__private.o(i.WM__GetOrgX_AA) for WM__GetOrgX_AA
    guiaa_circle.o(i.GUI_AA_FillCircle) refers to wm__private.o(i.WM__GetOrgY_AA) for WM__GetOrgY_AA
    guiaa_circle.o(i.GUI_AA_FillCircle) refers to guiaa_lib.o(i.GUI_AA_HiRes2Pixel) for GUI_AA_HiRes2Pixel
    guiaa_circle.o(i.GUI_AA_FillCircle) refers to wm.o(i.WM__InitIVRSearch) for WM__InitIVRSearch
    guiaa_circle.o(i.GUI_AA_FillCircle) refers to guiaa_lib.o(i.GUI_AA_Init_HiRes) for GUI_AA_Init_HiRes
    guiaa_circle.o(i.GUI_AA_FillCircle) refers to guiaa_lib.o(i.GUI_AA_Exit) for GUI_AA_Exit
    guiaa_circle.o(i.GUI_AA_FillCircle) refers to wm.o(i.WM__GetNextIVR) for WM__GetNextIVR
    guiaa_circle.o(i.GUI_AA_FillCircle) refers to gui_task.o(i.GUI_Unlock) for GUI_Unlock
    guiaa_circle.o(i.GUI_AA_FillCircle) refers to gui_core.o(.data) for GUI_pContext
    guiaa_circle.o(i.GUI_AA_FillEllipse) refers to gui_task.o(i.GUI_Lock) for GUI_Lock
    guiaa_circle.o(i.GUI_AA_FillEllipse) refers to wm__private.o(i.WM__GetOrgX_AA) for WM__GetOrgX_AA
    guiaa_circle.o(i.GUI_AA_FillEllipse) refers to wm__private.o(i.WM__GetOrgY_AA) for WM__GetOrgY_AA
    guiaa_circle.o(i.GUI_AA_FillEllipse) refers to guiaa_lib.o(i.GUI_AA_HiRes2Pixel) for GUI_AA_HiRes2Pixel
    guiaa_circle.o(i.GUI_AA_FillEllipse) refers to wm.o(i.WM__InitIVRSearch) for WM__InitIVRSearch
    guiaa_circle.o(i.GUI_AA_FillEllipse) refers to guiaa_lib.o(i.GUI_AA_Init_HiRes) for GUI_AA_Init_HiRes
    guiaa_circle.o(i.GUI_AA_FillEllipse) refers to gui__private.o(i.GUI__sqrt32) for GUI__sqrt32
    guiaa_circle.o(i.GUI_AA_FillEllipse) refers to guiaa_lib.o(i.GUI_AA_Exit) for GUI_AA_Exit
    guiaa_circle.o(i.GUI_AA_FillEllipse) refers to wm.o(i.WM__GetNextIVR) for WM__GetNextIVR
    guiaa_circle.o(i.GUI_AA_FillEllipse) refers to gui_task.o(i.GUI_Unlock) for GUI_Unlock
    guiaa_circle.o(i.GUI_AA_FillEllipse) refers to gui_core.o(.data) for GUI_pContext
    gui_alloc.o(i.GUI_ALLOC_AllocInit) refers to gui_task.o(i.GUI_Lock) for GUI_Lock
    gui_alloc.o(i.GUI_ALLOC_AllocInit) refers to gui_alloc.o(i._Alloc) for _Alloc
    gui_alloc.o(i.GUI_ALLOC_AllocInit) refers to gui_task.o(i.GUI_Unlock) for GUI_Unlock
    gui_alloc.o(i.GUI_ALLOC_AllocInit) refers to gui_alloc.o(.bss) for .bss
    gui_alloc.o(i.GUI_ALLOC_AllocInit) refers to gui__private.o(.data) for GUI__pfMemcpy
    gui_alloc.o(i.GUI_ALLOC_AllocInit) refers to gui__private.o(.data) for GUI__pfMemset
    gui_alloc.o(i.GUI_ALLOC_AllocNoInit) refers to gui_task.o(i.GUI_Lock) for GUI_Lock
    gui_alloc.o(i.GUI_ALLOC_AllocNoInit) refers to gui_alloc.o(i._Alloc) for _Alloc
    gui_alloc.o(i.GUI_ALLOC_AllocNoInit) refers to gui_task.o(i.GUI_Unlock) for GUI_Unlock
    gui_alloc.o(i.GUI_ALLOC_AllocZero) refers to gui_task.o(i.GUI_Lock) for GUI_Lock
    gui_alloc.o(i.GUI_ALLOC_AllocZero) refers to gui_alloc.o(i._Alloc) for _Alloc
    gui_alloc.o(i.GUI_ALLOC_AllocZero) refers to gui_task.o(i.GUI_Unlock) for GUI_Unlock
    gui_alloc.o(i.GUI_ALLOC_AllocZero) refers to gui_alloc.o(.bss) for .bss
    gui_alloc.o(i.GUI_ALLOC_AllocZero) refers to gui__private.o(.data) for GUI__pfMemset
    gui_alloc.o(i.GUI_ALLOC_AssignMemory) refers to gui_alloc.o(.bss) for .bss
    gui_alloc.o(i.GUI_ALLOC_Exit) refers to gui_alloc.o(.bss) for .bss
    gui_alloc.o(i.GUI_ALLOC_Exit) refers to gui__private.o(.data) for GUI__pfMemset
    gui_alloc.o(i.GUI_ALLOC_Free) refers to gui_task.o(i.GUI_Lock) for GUI_Lock
    gui_alloc.o(i.GUI_ALLOC_Free) refers to gui_alloc.o(i._AddFreeMemory) for _AddFreeMemory
    gui_alloc.o(i.GUI_ALLOC_Free) refers to gui_task.o(i.GUI_Unlock) for GUI_Unlock
    gui_alloc.o(i.GUI_ALLOC_Free) refers to gui_alloc.o(.bss) for .bss
    gui_alloc.o(i.GUI_ALLOC_FreeFixedBlock) refers to gui_alloc.o(.bss) for .bss
    gui_alloc.o(i.GUI_ALLOC_FreePtr) refers to gui_task.o(i.GUI_Lock) for GUI_Lock
    gui_alloc.o(i.GUI_ALLOC_FreePtr) refers to gui_alloc.o(i._AddFreeMemory) for _AddFreeMemory
    gui_alloc.o(i.GUI_ALLOC_FreePtr) refers to gui_task.o(i.GUI_Unlock) for GUI_Unlock
    gui_alloc.o(i.GUI_ALLOC_FreePtr) refers to gui_alloc.o(.bss) for .bss
    gui_alloc.o(i.GUI_ALLOC_FreePtrArray) refers to gui_task.o(i.GUI_Lock) for GUI_Lock
    gui_alloc.o(i.GUI_ALLOC_FreePtrArray) refers to gui_alloc.o(i._AddFreeMemory) for _AddFreeMemory
    gui_alloc.o(i.GUI_ALLOC_FreePtrArray) refers to gui_task.o(i.GUI_Unlock) for GUI_Unlock
    gui_alloc.o(i.GUI_ALLOC_FreePtrArray) refers to gui_alloc.o(.bss) for .bss
    gui_alloc.o(i.GUI_ALLOC_GetFixedBlock) refers to gui_alloc.o(i._InitOnce) for _InitOnce
    gui_alloc.o(i.GUI_ALLOC_GetFixedBlock) refers to gui_alloc.o(i._RemoveHoles) for _RemoveHoles
    gui_alloc.o(i.GUI_ALLOC_GetFixedBlock) refers to gui_alloc.o(i._RemoveFreeBlock) for _RemoveFreeBlock
    gui_alloc.o(i.GUI_ALLOC_GetFixedBlock) refers to gui_alloc.o(i._AddFreeMemory) for _AddFreeMemory
    gui_alloc.o(i.GUI_ALLOC_GetFixedBlock) refers to gui_alloc.o(.bss) for .bss
    gui_alloc.o(i.GUI_ALLOC_GetMaxSize) refers to gui_alloc.o(i._InitOnce) for _InitOnce
    gui_alloc.o(i.GUI_ALLOC_GetMaxSize) refers to gui_alloc.o(.bss) for .bss
    gui_alloc.o(i.GUI_ALLOC_GetMaxUsedBytes) refers to gui_alloc.o(.bss) for .bss
    gui_alloc.o(i.GUI_ALLOC_GetMemInfo) refers to gui_alloc.o(.bss) for .bss
    gui_alloc.o(i.GUI_ALLOC_GetNumFreeBlocks) refers to gui_alloc.o(.bss) for .bss
    gui_alloc.o(i.GUI_ALLOC_GetNumFreeBytes) refers to gui_alloc.o(.bss) for .bss
    gui_alloc.o(i.GUI_ALLOC_GetNumUsedBlocks) refers to gui_alloc.o(.bss) for .bss
    gui_alloc.o(i.GUI_ALLOC_GetNumUsedBytes) refers to gui_alloc.o(.bss) for .bss
    gui_alloc.o(i.GUI_ALLOC_GetSize) refers to gui_alloc.o(.bss) for .bss
    gui_alloc.o(i.GUI_ALLOC_Lock) refers to gui_alloc.o(.bss) for .bss
    gui_alloc.o(i.GUI_ALLOC_LockH) refers to gui_alloc.o(.bss) for .bss
    gui_alloc.o(i.GUI_ALLOC_Realloc) refers to gui_task.o(i.GUI_Lock) for GUI_Lock
    gui_alloc.o(i.GUI_ALLOC_Realloc) refers to gui_alloc.o(i._Alloc) for _Alloc
    gui_alloc.o(i.GUI_ALLOC_Realloc) refers to gui_task.o(i.GUI_Unlock) for GUI_Unlock
    gui_alloc.o(i.GUI_ALLOC_Realloc) refers to gui_alloc.o(i._AddFreeMemory) for _AddFreeMemory
    gui_alloc.o(i.GUI_ALLOC_Realloc) refers to gui_alloc.o(.bss) for .bss
    gui_alloc.o(i.GUI_ALLOC_Realloc) refers to gui__private.o(.data) for GUI__pfMemcpy
    gui_alloc.o(i.GUI_ALLOC_RequestSize) refers to gui_task.o(i.GUI_Lock) for GUI_Lock
    gui_alloc.o(i.GUI_ALLOC_RequestSize) refers to gui_alloc.o(i._InitOnce) for _InitOnce
    gui_alloc.o(i.GUI_ALLOC_RequestSize) refers to gui_task.o(i.GUI_Unlock) for GUI_Unlock
    gui_alloc.o(i.GUI_ALLOC_RequestSize) refers to gui_alloc.o(.bss) for .bss
    gui_alloc.o(i.GUI_ALLOC_SetAvBlockSize) refers to gui_alloc.o(.bss) for .bss
    gui_alloc.o(i.GUI_ALLOC_SetMaxPercentage) refers to gui_alloc.o(.bss) for .bss
    gui_alloc.o(i.GUI_ALLOC_SuppressPeak) refers to gui_alloc.o(.bss) for .bss
    gui_alloc.o(i.GUI_ALLOC_Unlock) refers to gui_alloc.o(.bss) for .bss
    gui_alloc.o(i.GUI_ALLOC_UnlockH) refers to gui_alloc.o(.bss) for .bss
    gui_alloc.o(i.GUI_ALLOC_h2p) refers to gui_alloc.o(.bss) for .bss
    gui_alloc.o(i._AddFreeMemory) refers to gui_alloc.o(i._RemoveFreeBlock) for _RemoveFreeBlock
    gui_alloc.o(i._AddFreeMemory) refers to gui_alloc.o(.bss) for .bss
    gui_alloc.o(i._Alloc) refers to gui_alloc.o(i._InitOnce) for _InitOnce
    gui_alloc.o(i._Alloc) refers to gui_alloc.o(i._EnlargeBlocks) for _EnlargeBlocks
    gui_alloc.o(i._Alloc) refers to gui_alloc.o(i._RemoveFreeBlock) for _RemoveFreeBlock
    gui_alloc.o(i._Alloc) refers to gui_alloc.o(i._AddFreeMemory) for _AddFreeMemory
    gui_alloc.o(i._Alloc) refers to rt_memmove_v6.o(.text) for __aeabi_memmove
    gui_alloc.o(i._Alloc) refers to gui_alloc.o(.bss) for .bss
    gui_alloc.o(i._EnlargeBlocks) refers to gui_alloc.o(i._Alloc) for _Alloc
    gui_alloc.o(i._EnlargeBlocks) refers to gui_task.o(i.GUI_Lock) for GUI_Lock
    gui_alloc.o(i._EnlargeBlocks) refers to gui_alloc.o(i._AddFreeMemory) for _AddFreeMemory
    gui_alloc.o(i._EnlargeBlocks) refers to gui_task.o(i.GUI_Unlock) for GUI_Unlock
    gui_alloc.o(i._EnlargeBlocks) refers to gui_alloc.o(.bss) for .bss
    gui_alloc.o(i._EnlargeBlocks) refers to gui__private.o(.data) for GUI__pfMemcpy
    gui_alloc.o(i._InitOnce) refers to gui_alloc.o(i._AddFreeMemory) for _AddFreeMemory
    gui_alloc.o(i._InitOnce) refers to gui_alloc.o(i._EnlargeBlocks) for _EnlargeBlocks
    gui_alloc.o(i._InitOnce) refers to gui_alloc.o(.bss) for .bss
    gui_alloc.o(i._RemoveFreeBlock) refers to gui_alloc.o(.bss) for .bss
    gui_alloc.o(i._RemoveHoles) refers to rt_memmove_v6.o(.text) for __aeabi_memmove
    gui_alloc.o(i._RemoveHoles) refers to gui_alloc.o(i._AddFreeMemory) for _AddFreeMemory
    gui_alloc.o(i._RemoveHoles) refers to gui_alloc.o(.bss) for .bss
    gui_arc.o(i.GL_DrawArc) refers to gui_arc.o(i._DrawArc) for _DrawArc
    gui_arc.o(i.GUI_DrawArc) refers to gui_task.o(i.GUI_Lock) for GUI_Lock
    gui_arc.o(i.GUI_DrawArc) refers to wm.o(i.WM__InitIVRSearch) for WM__InitIVRSearch
    gui_arc.o(i.GUI_DrawArc) refers to gui_arc.o(i._DrawArc) for _DrawArc
    gui_arc.o(i.GUI_DrawArc) refers to wm.o(i.WM__GetNextIVR) for WM__GetNextIVR
    gui_arc.o(i.GUI_DrawArc) refers to gui_task.o(i.GUI_Unlock) for GUI_Unlock
    gui_arc.o(i.GUI_DrawArc) refers to gui_core.o(.data) for GUI_pContext
    gui_arc.o(i._DrawArc) refers to gui__sinhq.o(i.GUI__SinHQ) for GUI__SinHQ
    gui_arc.o(i._DrawArc) refers to gui__sinhq.o(i.GUI__CosHQ) for GUI__CosHQ
    gui_arc.o(i._DrawArc) refers to f2d.o(x$fpl$f2d) for __aeabi_f2d
    gui_arc.o(i._DrawArc) refers to ceil.o(i.__hardfp_ceil) for __hardfp_ceil
    gui_arc.o(i._DrawArc) refers to dfix.o(x$fpl$dfix) for __aeabi_d2iz
    gui_arc.o(i._DrawArc) refers to floor.o(i.__hardfp_floor) for __hardfp_floor
    gui_arc.o(i._DrawArc) refers to gui_core.o(.data) for GUI_pContext
    gui_circ.o(i.Draw8Point) refers to gui_core.o(.data) for GUI_pContext
    gui_circ.o(i.GL_DrawCircle) refers to gui_circ.o(i.Draw8Point) for Draw8Point
    gui_circ.o(i.GL_DrawCircle) refers to gui_core.o(.data) for GUI_pContext
    gui_circ.o(i.GL_DrawEllipse) refers to gui__private.o(i.GUI__sqrt32) for GUI__sqrt32
    gui_circ.o(i.GL_DrawEllipse) refers to lcd.o(i.LCD_DrawHLine) for LCD_DrawHLine
    gui_circ.o(i.GL_FillCircle) refers to gui_core.o(.data) for GUI_pContext
    gui_circ.o(i.GL_FillEllipse) refers to gui__private.o(i.GUI__sqrt32) for GUI__sqrt32
    gui_circ.o(i.GL_FillEllipse) refers to lcd.o(i.LCD_DrawHLine) for LCD_DrawHLine
    gui_circ.o(i.GUI_DrawCircle) refers to gui_task.o(i.GUI_Lock) for GUI_Lock
    gui_circ.o(i.GUI_DrawCircle) refers to wm.o(i.WM__InitIVRSearch) for WM__InitIVRSearch
    gui_circ.o(i.GUI_DrawCircle) refers to gui_circ.o(i.GL_DrawCircle) for GL_DrawCircle
    gui_circ.o(i.GUI_DrawCircle) refers to wm.o(i.WM__GetNextIVR) for WM__GetNextIVR
    gui_circ.o(i.GUI_DrawCircle) refers to gui_task.o(i.GUI_Unlock) for GUI_Unlock
    gui_circ.o(i.GUI_DrawCircle) refers to gui_core.o(.data) for GUI_pContext
    gui_circ.o(i.GUI_DrawEllipse) refers to gui_common.o(i.GUI_GetPenSize) for GUI_GetPenSize
    gui_circ.o(i.GUI_DrawEllipse) refers to gui_task.o(i.GUI_Lock) for GUI_Lock
    gui_circ.o(i.GUI_DrawEllipse) refers to wm.o(i.WM__InitIVRSearch) for WM__InitIVRSearch
    gui_circ.o(i.GUI_DrawEllipse) refers to gui__private.o(i.GUI__sqrt32) for GUI__sqrt32
    gui_circ.o(i.GUI_DrawEllipse) refers to lcd.o(i.LCD_DrawHLine) for LCD_DrawHLine
    gui_circ.o(i.GUI_DrawEllipse) refers to wm.o(i.WM__GetNextIVR) for WM__GetNextIVR
    gui_circ.o(i.GUI_DrawEllipse) refers to gui_task.o(i.GUI_Unlock) for GUI_Unlock
    gui_circ.o(i.GUI_DrawEllipse) refers to gui_core.o(.data) for GUI_pContext
    gui_circ.o(i.GUI_FillCircle) refers to gui_task.o(i.GUI_Lock) for GUI_Lock
    gui_circ.o(i.GUI_FillCircle) refers to wm.o(i.WM__InitIVRSearch) for WM__InitIVRSearch
    gui_circ.o(i.GUI_FillCircle) refers to wm.o(i.WM__GetNextIVR) for WM__GetNextIVR
    gui_circ.o(i.GUI_FillCircle) refers to gui_task.o(i.GUI_Unlock) for GUI_Unlock
    gui_circ.o(i.GUI_FillCircle) refers to gui_core.o(.data) for GUI_pContext
    gui_circ.o(i.GUI_FillEllipse) refers to gui_common.o(i.GUI_GetPenSize) for GUI_GetPenSize
    gui_circ.o(i.GUI_FillEllipse) refers to gui_task.o(i.GUI_Lock) for GUI_Lock
    gui_circ.o(i.GUI_FillEllipse) refers to wm.o(i.WM__InitIVRSearch) for WM__InitIVRSearch
    gui_circ.o(i.GUI_FillEllipse) refers to gui__private.o(i.GUI__sqrt32) for GUI__sqrt32
    gui_circ.o(i.GUI_FillEllipse) refers to lcd.o(i.LCD_DrawHLine) for LCD_DrawHLine
    gui_circ.o(i.GUI_FillEllipse) refers to wm.o(i.WM__GetNextIVR) for WM__GetNextIVR
    gui_circ.o(i.GUI_FillEllipse) refers to gui_task.o(i.GUI_Unlock) for GUI_Unlock
    gui_circ.o(i.GUI_FillEllipse) refers to gui_core.o(.data) for GUI_pContext
    gui_common.o(i.GL_SetDefault) refers to gui_task.o(i.GUI_Lock) for GUI_Lock
    gui_common.o(i.GL_SetDefault) refers to lcd.o(i.LCD_SetBkColor) for LCD_SetBkColor
    gui_common.o(i.GL_SetDefault) refers to gui_task.o(i.GUI_Unlock) for GUI_Unlock
    gui_common.o(i.GL_SetDefault) refers to lcd.o(i.LCD_SetColor) for LCD_SetColor
    gui_common.o(i.GL_SetDefault) refers to lcd.o(i.LCD_SetDrawMode) for LCD_SetDrawMode
    gui_common.o(i.GL_SetDefault) refers to gui_core.o(.data) for GUI__BkColorDefault
    gui_common.o(i.GUI_AddDecShift) refers to gui_core.o(.data) for GUI_DecChar
    gui_common.o(i.GUI_AddDecShift) refers to gui_common.o(.constdata) for .constdata
    gui_common.o(i.GUI_AddHex) refers to gui_common.o(.constdata) for .constdata
    gui_common.o(i.GUI_CalcVisColorError) refers to gui_task.o(i.GUI_Lock) for GUI_Lock
    gui_common.o(i.GUI_CalcVisColorError) refers to lcd.o(i.LCD_Color2Index) for LCD_Color2Index
    gui_common.o(i.GUI_CalcVisColorError) refers to lcd.o(i.LCD_Index2Color) for LCD_Index2Color
    gui_common.o(i.GUI_CalcVisColorError) refers to gui_task.o(i.GUI_Unlock) for GUI_Unlock
    gui_common.o(i.GUI_Color2Index) refers to gui_task.o(i.GUI_Lock) for GUI_Lock
    gui_common.o(i.GUI_Color2Index) refers to lcd.o(i.LCD_Color2Index) for LCD_Color2Index
    gui_common.o(i.GUI_Color2Index) refers to gui_task.o(i.GUI_Unlock) for GUI_Unlock
    gui_common.o(i.GUI_Color2VisColor) refers to gui_task.o(i.GUI_Lock) for GUI_Lock
    gui_common.o(i.GUI_Color2VisColor) refers to lcd.o(i.LCD_Color2Index) for LCD_Color2Index
    gui_common.o(i.GUI_Color2VisColor) refers to lcd.o(i.LCD_Index2Color) for LCD_Index2Color
    gui_common.o(i.GUI_Color2VisColor) refers to gui_task.o(i.GUI_Unlock) for GUI_Unlock
    gui_common.o(i.GUI_ColorIsAvailable) refers to gui_task.o(i.GUI_Lock) for GUI_Lock
    gui_common.o(i.GUI_ColorIsAvailable) refers to lcd.o(i.LCD_Color2Index) for LCD_Color2Index
    gui_common.o(i.GUI_ColorIsAvailable) refers to lcd.o(i.LCD_Index2Color) for LCD_Index2Color
    gui_common.o(i.GUI_ColorIsAvailable) refers to gui_task.o(i.GUI_Unlock) for GUI_Unlock
    gui_common.o(i.GUI_DispBin) refers to gui_dispstring.o(i.GUI_DispString) for GUI_DispString
    gui_common.o(i.GUI_DispBinAt) refers to gui_dispstring.o(i.GUI_DispStringAt) for GUI_DispStringAt
    gui_common.o(i.GUI_DispCEOL) refers to gui_char.o(i.GUI_GetYAdjust) for GUI_GetYAdjust
    gui_common.o(i.GUI_DispCEOL) refers to gui_core.o(i.GUI_ClearRect) for GUI_ClearRect
    gui_common.o(i.GUI_DispCEOL) refers to gui_core.o(.data) for GUI_pContext
    gui_common.o(i.GUI_DispHex) refers to gui_dispstring.o(i.GUI_DispString) for GUI_DispString
    gui_common.o(i.GUI_DispHex) refers to gui_common.o(.constdata) for .constdata
    gui_common.o(i.GUI_DispHexAt) refers to gui_dispstring.o(i.GUI_DispStringAt) for GUI_DispStringAt
    gui_common.o(i.GUI_DispHexAt) refers to gui_common.o(.constdata) for .constdata
    gui_common.o(i.GUI_Exec) refers to wm.o(i.WM_Exec) for WM_Exec
    gui_common.o(i.GUI_Exec) refers to gui_core.o(.data) for GUI_pfTimerExec
    gui_common.o(i.GUI_Exec) refers to gui_core.o(.data) for GUI_pfUpdateSoftLayer
    gui_common.o(i.GUI_Exec) refers to gui_core.o(.data) for GUI_pfExecAnimations
    gui_common.o(i.GUI_Exec1) refers to wm.o(i.WM_Exec) for WM_Exec
    gui_common.o(i.GUI_Exec1) refers to gui_core.o(.data) for GUI_pfTimerExec
    gui_common.o(i.GUI_Exec1) refers to gui_core.o(.data) for GUI_pfUpdateSoftLayer
    gui_common.o(i.GUI_Exec1) refers to gui_core.o(.data) for GUI_pfExecAnimations
    gui_common.o(i.GUI_GetBkColor) refers to gui_task.o(i.GUI_Lock) for GUI_Lock
    gui_common.o(i.GUI_GetBkColor) refers to lcd_getcolorindex.o(i.LCD_GetBkColorIndex) for LCD_GetBkColorIndex
    gui_common.o(i.GUI_GetBkColor) refers to lcd.o(i.LCD_Index2Color) for LCD_Index2Color
    gui_common.o(i.GUI_GetBkColor) refers to gui_task.o(i.GUI_Unlock) for GUI_Unlock
    gui_common.o(i.GUI_GetBkColorIndex) refers to gui_task.o(i.GUI_Lock) for GUI_Lock
    gui_common.o(i.GUI_GetBkColorIndex) refers to lcd_getcolorindex.o(i.LCD_GetBkColorIndex) for LCD_GetBkColorIndex
    gui_common.o(i.GUI_GetBkColorIndex) refers to gui_task.o(i.GUI_Unlock) for GUI_Unlock
    gui_common.o(i.GUI_GetClientRect) refers to wm_lib.o(i.WM_GetClientRect) for WM_GetClientRect
    gui_common.o(i.GUI_GetColor) refers to gui_task.o(i.GUI_Lock) for GUI_Lock
    gui_common.o(i.GUI_GetColor) refers to lcd_getcolorindex.o(i.LCD_GetColorIndex) for LCD_GetColorIndex
    gui_common.o(i.GUI_GetColor) refers to lcd.o(i.LCD_Index2Color) for LCD_Index2Color
    gui_common.o(i.GUI_GetColor) refers to gui_task.o(i.GUI_Unlock) for GUI_Unlock
    gui_common.o(i.GUI_GetColorIndex) refers to gui_task.o(i.GUI_Lock) for GUI_Lock
    gui_common.o(i.GUI_GetColorIndex) refers to lcd_getcolorindex.o(i.LCD_GetColorIndex) for LCD_GetColorIndex
    gui_common.o(i.GUI_GetColorIndex) refers to gui_task.o(i.GUI_Unlock) for GUI_Unlock
    gui_common.o(i.GUI_GetDecChar) refers to gui_core.o(.data) for GUI_DecChar
    gui_common.o(i.GUI_GetDispPosX) refers to gui_task.o(i.GUI_Lock) for GUI_Lock
    gui_common.o(i.GUI_GetDispPosX) refers to gui_task.o(i.GUI_Unlock) for GUI_Unlock
    gui_common.o(i.GUI_GetDispPosX) refers to gui_core.o(.data) for GUI_pContext
    gui_common.o(i.GUI_GetDispPosY) refers to gui_task.o(i.GUI_Lock) for GUI_Lock
    gui_common.o(i.GUI_GetDispPosY) refers to gui_task.o(i.GUI_Unlock) for GUI_Unlock
    gui_common.o(i.GUI_GetDispPosY) refers to gui_core.o(.data) for GUI_pContext
    gui_common.o(i.GUI_GetDrawMode) refers to gui_task.o(i.GUI_Lock) for GUI_Lock
    gui_common.o(i.GUI_GetDrawMode) refers to gui_task.o(i.GUI_Unlock) for GUI_Unlock
    gui_common.o(i.GUI_GetDrawMode) refers to gui_core.o(.data) for GUI_pContext
    gui_common.o(i.GUI_GetFont) refers to gui_task.o(i.GUI_Lock) for GUI_Lock
    gui_common.o(i.GUI_GetFont) refers to gui_task.o(i.GUI_Unlock) for GUI_Unlock
    gui_common.o(i.GUI_GetFont) refers to gui_core.o(.data) for GUI_pContext
    gui_common.o(i.GUI_GetFontInfo) refers to gui_task.o(i.GUI_Lock) for GUI_Lock
    gui_common.o(i.GUI_GetFontInfo) refers to gui_task.o(i.GUI_Unlock) for GUI_Unlock
    gui_common.o(i.GUI_GetFontInfo) refers to gui_core.o(.data) for GUI_pContext
    gui_common.o(i.GUI_GetFontSizeY) refers to gui_task.o(i.GUI_Lock) for GUI_Lock
    gui_common.o(i.GUI_GetFontSizeY) refers to gui_task.o(i.GUI_Unlock) for GUI_Unlock
    gui_common.o(i.GUI_GetFontSizeY) refers to gui_core.o(.data) for GUI_pContext
    gui_common.o(i.GUI_GetLineStyle) refers to gui_task.o(i.GUI_Lock) for GUI_Lock
    gui_common.o(i.GUI_GetLineStyle) refers to gui_task.o(i.GUI_Unlock) for GUI_Unlock
    gui_common.o(i.GUI_GetLineStyle) refers to gui_core.o(.data) for GUI_pContext
    gui_common.o(i.GUI_GetOrg) refers to gui_task.o(i.GUI_Lock) for GUI_Lock
    gui_common.o(i.GUI_GetOrg) refers to gui_task.o(i.GUI_Unlock) for GUI_Unlock
    gui_common.o(i.GUI_GetOrg) refers to gui_core.o(.data) for GUI_OrgX
    gui_common.o(i.GUI_GetOrg) refers to gui_core.o(.data) for GUI_OrgY
    gui_common.o(i.GUI_GetPenShape) refers to gui_task.o(i.GUI_Lock) for GUI_Lock
    gui_common.o(i.GUI_GetPenShape) refers to gui_task.o(i.GUI_Unlock) for GUI_Unlock
    gui_common.o(i.GUI_GetPenShape) refers to gui_core.o(.data) for GUI_pContext
    gui_common.o(i.GUI_GetPenSize) refers to gui_task.o(i.GUI_Lock) for GUI_Lock
    gui_common.o(i.GUI_GetPenSize) refers to gui_task.o(i.GUI_Unlock) for GUI_Unlock
    gui_common.o(i.GUI_GetPenSize) refers to gui_core.o(.data) for GUI_pContext
    gui_common.o(i.GUI_GetScreenSizeX) refers to lcd_getex.o(i.LCD_GetXSize) for LCD_GetXSize
    gui_common.o(i.GUI_GetScreenSizeX) refers to gui_common.o(.data) for .data
    gui_common.o(i.GUI_GetScreenSizeY) refers to lcd_getex.o(i.LCD_GetYSize) for LCD_GetYSize
    gui_common.o(i.GUI_GetScreenSizeY) refers to gui_common.o(.data) for .data
    gui_common.o(i.GUI_GetTextAlign) refers to gui_task.o(i.GUI_Lock) for GUI_Lock
    gui_common.o(i.GUI_GetTextAlign) refers to gui_task.o(i.GUI_Unlock) for GUI_Unlock
    gui_common.o(i.GUI_GetTextAlign) refers to gui_core.o(.data) for GUI_pContext
    gui_common.o(i.GUI_GetTextExtend) refers to gui_task.o(i.GUI_Lock) for GUI_Lock
    gui_common.o(i.GUI_GetTextExtend) refers to gui_charline.o(i.GUI__GetLineNumChars) for GUI__GetLineNumChars
    gui_common.o(i.GUI_GetTextExtend) refers to gui_charline.o(i.GUI__GetLineDistX) for GUI__GetLineDistX
    gui_common.o(i.GUI_GetTextExtend) refers to gui_uc.o(i.GUI_UC__NumChars2NumBytes) for GUI_UC__NumChars2NumBytes
    gui_common.o(i.GUI_GetTextExtend) refers to gui__private.o(i.GUI__HandleEOLine) for GUI__HandleEOLine
    gui_common.o(i.GUI_GetTextExtend) refers to gui_task.o(i.GUI_Unlock) for GUI_Unlock
    gui_common.o(i.GUI_GetTextExtend) refers to gui_core.o(.data) for GUI_pContext
    gui_common.o(i.GUI_GetTextMode) refers to gui_task.o(i.GUI_Lock) for GUI_Lock
    gui_common.o(i.GUI_GetTextMode) refers to gui_task.o(i.GUI_Unlock) for GUI_Unlock
    gui_common.o(i.GUI_GetTextMode) refers to gui_core.o(.data) for GUI_pContext
    gui_common.o(i.GUI_GetVersionString) refers to gui_common.o(.data) for .data
    gui_common.o(i.GUI_GotoX) refers to gui_task.o(i.GUI_Lock) for GUI_Lock
    gui_common.o(i.GUI_GotoX) refers to gui_task.o(i.GUI_Unlock) for GUI_Unlock
    gui_common.o(i.GUI_GotoX) refers to gui_core.o(.data) for GUI_pContext
    gui_common.o(i.GUI_GotoXY) refers to gui_task.o(i.GUI_Lock) for GUI_Lock
    gui_common.o(i.GUI_GotoXY) refers to gui_task.o(i.GUI_Unlock) for GUI_Unlock
    gui_common.o(i.GUI_GotoXY) refers to gui_core.o(.data) for GUI_pContext
    gui_common.o(i.GUI_GotoY) refers to gui_task.o(i.GUI_Lock) for GUI_Lock
    gui_common.o(i.GUI_GotoY) refers to gui_task.o(i.GUI_Unlock) for GUI_Unlock
    gui_common.o(i.GUI_GotoY) refers to gui_core.o(.data) for GUI_pContext
    gui_common.o(i.GUI_Index2Color) refers to gui_task.o(i.GUI_Lock) for GUI_Lock
    gui_common.o(i.GUI_Index2Color) refers to lcd.o(i.LCD_Index2Color) for LCD_Index2Color
    gui_common.o(i.GUI_Index2Color) refers to gui_task.o(i.GUI_Unlock) for GUI_Unlock
    gui_common.o(i.GUI_IsInFont) refers to gui_core.o(.data) for GUI_pContext
    gui_common.o(i.GUI_Long2Len) refers to gui_common.o(.constdata) for .constdata
    gui_common.o(i.GUI_RestoreContext) refers to rt_memcpy_w.o(.text) for __aeabi_memcpy4
    gui_common.o(i.GUI_RestoreContext) refers to gui_core.o(.data) for GUI_pContext
    gui_common.o(i.GUI_RotatePolygon) refers to gui__sinhq.o(i.GUI__CosHQ) for GUI__CosHQ
    gui_common.o(i.GUI_RotatePolygon) refers to gui__sinhq.o(i.GUI__SinHQ) for GUI__SinHQ
    gui_common.o(i.GUI_SaveContext_W) refers to rt_memcpy_w.o(.text) for __aeabi_memcpy4
    gui_common.o(i.GUI_SaveContext_W) refers to gui_core.o(.data) for GUI_pContext
    gui_common.o(i.GUI_SelectLCD) refers to gui_task.o(i.GUI_Lock) for GUI_Lock
    gui_common.o(i.GUI_SelectLCD) refers to lcd_selectlcd.o(i.LCD_SelectLCD) for LCD_SelectLCD
    gui_common.o(i.GUI_SelectLCD) refers to lcd_updatecolorindices.o(i.LCD_UpdateColorIndices) for LCD_UpdateColorIndices
    gui_common.o(i.GUI_SelectLCD) refers to wm.o(i.WM_Activate) for WM_Activate
    gui_common.o(i.GUI_SelectLCD) refers to gui_task.o(i.GUI_Unlock) for GUI_Unlock
    gui_common.o(i.GUI_SetBkColor) refers to gui_task.o(i.GUI_Lock) for GUI_Lock
    gui_common.o(i.GUI_SetBkColor) refers to lcd.o(i.LCD_SetBkColor) for LCD_SetBkColor
    gui_common.o(i.GUI_SetBkColor) refers to gui_task.o(i.GUI_Unlock) for GUI_Unlock
    gui_common.o(i.GUI_SetBkColorIndex) refers to gui_task.o(i.GUI_Lock) for GUI_Lock
    gui_common.o(i.GUI_SetBkColorIndex) refers to lcd.o(i.LCD_SetBkColorIndex) for LCD_SetBkColorIndex
    gui_common.o(i.GUI_SetBkColorIndex) refers to gui_task.o(i.GUI_Unlock) for GUI_Unlock
    gui_common.o(i.GUI_SetBkColorIndex) refers to gui_core.o(.data) for GUI_pContext
    gui_common.o(i.GUI_SetClipRect) refers to gui_task.o(i.GUI_Lock) for GUI_Lock
    gui_common.o(i.GUI_SetClipRect) refers to wm_lib.o(i.WM_SetUserClipRect) for WM_SetUserClipRect
    gui_common.o(i.GUI_SetClipRect) refers to gui_task.o(i.GUI_Unlock) for GUI_Unlock
    gui_common.o(i.GUI_SetColor) refers to gui_task.o(i.GUI_Lock) for GUI_Lock
    gui_common.o(i.GUI_SetColor) refers to lcd.o(i.LCD_SetColor) for LCD_SetColor
    gui_common.o(i.GUI_SetColor) refers to gui_task.o(i.GUI_Unlock) for GUI_Unlock
    gui_common.o(i.GUI_SetColorIndex) refers to gui_task.o(i.GUI_Lock) for GUI_Lock
    gui_common.o(i.GUI_SetColorIndex) refers to lcd.o(i.LCD_SetColorIndex) for LCD_SetColorIndex
    gui_common.o(i.GUI_SetColorIndex) refers to gui_task.o(i.GUI_Unlock) for GUI_Unlock
    gui_common.o(i.GUI_SetColorIndex) refers to gui_core.o(.data) for GUI_pContext
    gui_common.o(i.GUI_SetDecChar) refers to gui_core.o(.data) for GUI_DecChar
    gui_common.o(i.GUI_SetDefault) refers to gui_task.o(i.GUI_Lock) for GUI_Lock
    gui_common.o(i.GUI_SetDefault) refers to lcd.o(i.LCD_SetBkColor) for LCD_SetBkColor
    gui_common.o(i.GUI_SetDefault) refers to gui_task.o(i.GUI_Unlock) for GUI_Unlock
    gui_common.o(i.GUI_SetDefault) refers to lcd.o(i.LCD_SetColor) for LCD_SetColor
    gui_common.o(i.GUI_SetDefault) refers to lcd.o(i.LCD_SetDrawMode) for LCD_SetDrawMode
    gui_common.o(i.GUI_SetDefault) refers to gui_core.o(.data) for GUI__BkColorDefault
    gui_common.o(i.GUI_SetDrawMode) refers to gui_task.o(i.GUI_Lock) for GUI_Lock
    gui_common.o(i.GUI_SetDrawMode) refers to lcd.o(i.LCD_SetDrawMode) for LCD_SetDrawMode
    gui_common.o(i.GUI_SetDrawMode) refers to gui_task.o(i.GUI_Unlock) for GUI_Unlock
    gui_common.o(i.GUI_SetFont) refers to gui_task.o(i.GUI_Lock) for GUI_Lock
    gui_common.o(i.GUI_SetFont) refers to gui_task.o(i.GUI_Unlock) for GUI_Unlock
    gui_common.o(i.GUI_SetFont) refers to gui_core.o(.data) for GUI_pContext
    gui_common.o(i.GUI_SetLBorder) refers to gui_task.o(i.GUI_Lock) for GUI_Lock
    gui_common.o(i.GUI_SetLBorder) refers to gui_task.o(i.GUI_Unlock) for GUI_Unlock
    gui_common.o(i.GUI_SetLBorder) refers to gui_core.o(.data) for GUI_pContext
    gui_common.o(i.GUI_SetLineStyle) refers to gui_task.o(i.GUI_Lock) for GUI_Lock
    gui_common.o(i.GUI_SetLineStyle) refers to gui_task.o(i.GUI_Unlock) for GUI_Unlock
    gui_common.o(i.GUI_SetLineStyle) refers to gui_core.o(.data) for GUI_pContext
    gui_common.o(i.GUI_SetOrg) refers to gui_task.o(i.GUI_Lock) for GUI_Lock
    gui_common.o(i.GUI_SetOrg) refers to gui_task.o(i.GUI_Unlock) for GUI_Unlock
    gui_common.o(i.GUI_SetOrg) refers to gui_core.o(.data) for GUI_OrgX
    gui_common.o(i.GUI_SetOrg) refers to gui_core.o(.data) for GUI_OrgY
    gui_common.o(i.GUI_SetOrg) refers to gui_core.o(.data) for GUI_pContext
    gui_common.o(i.GUI_SetPenShape) refers to gui_task.o(i.GUI_Lock) for GUI_Lock
    gui_common.o(i.GUI_SetPenShape) refers to gui_task.o(i.GUI_Unlock) for GUI_Unlock
    gui_common.o(i.GUI_SetPenShape) refers to gui_core.o(.data) for GUI_pContext
    gui_common.o(i.GUI_SetPenSize) refers to gui_task.o(i.GUI_Lock) for GUI_Lock
    gui_common.o(i.GUI_SetPenSize) refers to gui_task.o(i.GUI_Unlock) for GUI_Unlock
    gui_common.o(i.GUI_SetPenSize) refers to gui_core.o(.data) for GUI_pContext
    gui_common.o(i.GUI_SetScreenSizeX) refers to gui_common.o(.data) for .data
    gui_common.o(i.GUI_SetScreenSizeY) refers to gui_common.o(.data) for .data
    gui_common.o(i.GUI_SetTextAlign) refers to gui_task.o(i.GUI_Lock) for GUI_Lock
    gui_common.o(i.GUI_SetTextAlign) refers to gui_task.o(i.GUI_Unlock) for GUI_Unlock
    gui_common.o(i.GUI_SetTextAlign) refers to gui_core.o(.data) for GUI_pContext
    gui_common.o(i.GUI_SetTextMode) refers to gui_task.o(i.GUI_Lock) for GUI_Lock
    gui_common.o(i.GUI_SetTextMode) refers to gui_task.o(i.GUI_Unlock) for GUI_Unlock
    gui_common.o(i.GUI_SetTextMode) refers to gui_core.o(.data) for GUI_pContext
    gui_common.o(i.GUI_SetTextStyle) refers to gui_task.o(i.GUI_Lock) for GUI_Lock
    gui_common.o(i.GUI_SetTextStyle) refers to gui_task.o(i.GUI_Unlock) for GUI_Unlock
    gui_common.o(i.GUI_SetTextStyle) refers to gui_core.o(.data) for GUI_pContext
    gui_common.o(i.GUI_SetTextStyle) refers to gui_common.o(i._cbDrawTextStyle) for _cbDrawTextStyle
    gui_common.o(i.GUI_SetTextStyle) refers to gui_core.o(.data) for GUI_pfDispCharStyle
    gui_common.o(i.GUI_SetTextStyle) refers to gui_core.o(.data) for GUI_pfDispCharLine
    gui_common.o(i.GUI_SetTextStyle) refers to gui_common.o(i._cbDrawTextLine) for _cbDrawTextLine
    gui_common.o(i.GUI_WaitKey) refers to gui_onkey.o(i.GUI_GetKey) for GUI_GetKey
    gui_common.o(i.GUI_WaitKey) refers to wm.o(i.WM_Exec) for WM_Exec
    gui_common.o(i.GUI_WaitKey) refers to gui_waitevent.o(i.GUI_WaitEvent) for GUI_WaitEvent
    gui_common.o(i.GUI_WaitKey) refers to gui_core.o(.data) for GUI_pfTimerExec
    gui_common.o(i.GUI_WaitKey) refers to gui_core.o(.data) for GUI_pfUpdateSoftLayer
    gui_common.o(i.GUI_WaitKey) refers to gui_core.o(.data) for GUI_pfExecAnimations
    gui_common.o(i.GUI__GetFontSizeY) refers to gui_core.o(.data) for GUI_pContext
    gui_common.o(i.GUI__GetOrg) refers to gui_core.o(.data) for GUI_OrgX
    gui_common.o(i.GUI__GetOrg) refers to gui_core.o(.data) for GUI_OrgY
    gui_common.o(i.GUI__InvertRectColors) refers to lcd_getp.o(i.LCD_GetPixelIndex) for LCD_GetPixelIndex
    gui_common.o(i.GUI__InvertRectColors) refers to lcd.o(i.LCD_Index2Color) for LCD_Index2Color
    gui_common.o(i.GUI__InvertRectColors) refers to lcd.o(i.LCD_Color2Index) for LCD_Color2Index
    gui_common.o(i.GUI__InvertRectColors) refers to lcd.o(i.LCD_SetPixelIndex) for LCD_SetPixelIndex
    gui_common.o(i.GUI__InvertRectColors) refers to gui_core.o(.data) for GUI_pContext
    gui_common.o(i._DrawTextLine) refers to lcd.o(i.LCD_DrawHLine) for LCD_DrawHLine
    gui_common.o(i._DrawTextLine) refers to gui_core.o(.data) for GUI_pContext
    gui_common.o(i._cbDrawTextLine) refers to gui_common.o(i._DrawTextLine) for _DrawTextLine
    gui_common.o(i._cbDrawTextLine) refers to gui_core.o(.data) for GUI_pContext
    gui_common.o(i._cbDrawTextStyle) refers to gui_common.o(i._DrawTextLine) for _DrawTextLine
    gui_common.o(i._cbDrawTextStyle) refers to gui_core.o(.data) for GUI_pContext
    gui_core.o(i.GUI_Clear) refers to gui_common.o(i.GUI_GotoXY) for GUI_GotoXY
    gui_core.o(i.GUI_Clear) refers to gui_task.o(i.GUI_Lock) for GUI_Lock
    gui_core.o(i.GUI_Clear) refers to lcd.o(i.LCD_SetDrawMode) for LCD_SetDrawMode
    gui_core.o(i.GUI_Clear) refers to wm.o(i.WM__InitIVRSearch) for WM__InitIVRSearch
    gui_core.o(i.GUI_Clear) refers to lcd.o(i.LCD_FillRect) for LCD_FillRect
    gui_core.o(i.GUI_Clear) refers to wm.o(i.WM__GetNextIVR) for WM__GetNextIVR
    gui_core.o(i.GUI_Clear) refers to gui_task.o(i.GUI_Unlock) for GUI_Unlock
    gui_core.o(i.GUI_Clear) refers to gui_core.o(.data) for .data
    gui_core.o(i.GUI_ClearRect) refers to gui_task.o(i.GUI_Lock) for GUI_Lock
    gui_core.o(i.GUI_ClearRect) refers to lcd.o(i.LCD_SetDrawMode) for LCD_SetDrawMode
    gui_core.o(i.GUI_ClearRect) refers to wm.o(i.WM__InitIVRSearch) for WM__InitIVRSearch
    gui_core.o(i.GUI_ClearRect) refers to lcd.o(i.LCD_FillRect) for LCD_FillRect
    gui_core.o(i.GUI_ClearRect) refers to wm.o(i.WM__GetNextIVR) for WM__GetNextIVR
    gui_core.o(i.GUI_ClearRect) refers to gui_task.o(i.GUI_Unlock) for GUI_Unlock
    gui_core.o(i.GUI_ClearRect) refers to gui_core.o(.data) for .data
    gui_core.o(i.GUI_ClearRectEx) refers to gui_task.o(i.GUI_Lock) for GUI_Lock
    gui_core.o(i.GUI_ClearRectEx) refers to lcd.o(i.LCD_SetDrawMode) for LCD_SetDrawMode
    gui_core.o(i.GUI_ClearRectEx) refers to wm.o(i.WM__InitIVRSearch) for WM__InitIVRSearch
    gui_core.o(i.GUI_ClearRectEx) refers to lcd.o(i.LCD_FillRect) for LCD_FillRect
    gui_core.o(i.GUI_ClearRectEx) refers to wm.o(i.WM__GetNextIVR) for WM__GetNextIVR
    gui_core.o(i.GUI_ClearRectEx) refers to gui_task.o(i.GUI_Unlock) for GUI_Unlock
    gui_core.o(i.GUI_ClearRectEx) refers to gui_core.o(.data) for .data
    gui_core.o(i.GUI_DCACHE_Clear) refers to gui_core.o(.data) for .data
    gui_core.o(i.GUI_DCACHE_SetClearCacheHook) refers to gui_core.o(.data) for .data
    gui_core.o(i.GUI_Exit) refers to gui_alloc.o(i.GUI_ALLOC_Exit) for GUI_ALLOC_Exit
    gui_core.o(i.GUI_Exit) refers to gui_core.o(.data) for .data
    gui_core.o(i.GUI_GetDefaultBkColor) refers to gui_core.o(.data) for .data
    gui_core.o(i.GUI_GetDefaultColor) refers to gui_core.o(.data) for .data
    gui_core.o(i.GUI_GetDefaultFont) refers to gui_core.o(.data) for .data
    gui_core.o(i.GUI_Init) refers to guiconf.o(i.GUI_X_Config) for GUI_X_Config
    gui_core.o(i.GUI_Init) refers to gui_task.o(i.GUITASK_Init) for GUITASK_Init
    gui_core.o(i.GUI_Init) refers to lcdconf.o(i.LCD_X_Config) for LCD_X_Config
    gui_core.o(i.GUI_Init) refers to gui_x_os.o(i.GUI_X_Init) for GUI_X_Init
    gui_core.o(i.GUI_Init) refers to wm_lib.o(i.WM_GetDesktopWindow) for WM_GetDesktopWindow
    gui_core.o(i.GUI_Init) refers to lcd.o(i.LCD_SetBkColor) for LCD_SetBkColor
    gui_core.o(i.GUI_Init) refers to lcd.o(i.LCD_SetColor) for LCD_SetColor
    gui_core.o(i.GUI_Init) refers to lcd.o(i.emWin_LCD_Init) for emWin_LCD_Init
    gui_core.o(i.GUI_Init) refers to lcd_getex.o(i.LCD_GetXSizeDisplay) for LCD_GetXSizeDisplay
    gui_core.o(i.GUI_Init) refers to lcd_getex.o(i.LCD_GetYSizeDisplay) for LCD_GetYSizeDisplay
    gui_core.o(i.GUI_Init) refers to lcd_getex.o(i.LCD_GetYSizeMax) for LCD_GetYSizeMax
    gui_core.o(i.GUI_Init) refers to lcd_getex.o(i.LCD_GetXSizeMax) for LCD_GetXSizeMax
    gui_core.o(i.GUI_Init) refers to lcd_getex.o(i.LCD_SetDisplaySize) for LCD_SetDisplaySize
    gui_core.o(i.GUI_Init) refers to gui_common.o(i.GUI_SetOrg) for GUI_SetOrg
    gui_core.o(i.GUI_Init) refers to wm.o(i.WM_Init) for WM_Init
    gui_core.o(i.GUI_Init) refers to gui_task.o(i.GUITASK_CopyContext) for GUITASK_CopyContext
    gui_core.o(i.GUI_Init) refers to gui_core.o(.data) for .data
    gui_core.o(i.GUI_Init) refers to gui_core.o(i._OnExit) for _OnExit
    gui_core.o(i.GUI_Init) refers to gui_core.o(.bss) for .bss
    gui_core.o(i.GUI_Init) refers to gui_core.o(.constdata) for .constdata
    gui_core.o(i.GUI_Init) refers to gui_uc_encodenone.o(.constdata) for GUI_UC_None
    gui_core.o(i.GUI_IsInitialized) refers to gui_core.o(.data) for .data
    gui_core.o(i.GUI_SetAfterInitHook) refers to gui_core.o(.data) for .data
    gui_core.o(i.GUI_SetDefaultBkColor) refers to gui_core.o(.data) for .data
    gui_core.o(i.GUI_SetDefaultColor) refers to gui_core.o(.data) for .data
    gui_core.o(i.GUI_SetDefaultFont) refers to gui_core.o(.data) for .data
    gui_core.o(i.GUI_SetFuncDrawM565) refers to gui_core.o(.data) for .data
    gui_core.o(i.GUI_SetFuncGetpPalConvTable) refers to gui_core.o(.data) for .data
    gui_core.o(i.GUI_SetpfMemcpy) refers to gui__private.o(.data) for GUI__pfMemcpy
    gui_core.o(i.GUI_SetpfMemset) refers to gui__private.o(.data) for GUI__pfMemset
    gui_core.o(i.GUI__Config) refers to guiconf.o(i.GUI_X_Config) for GUI_X_Config
    gui_core.o(i.GUI__Config) refers to gui_task.o(i.GUITASK_Init) for GUITASK_Init
    gui_core.o(i.GUI__Config) refers to lcdconf.o(i.LCD_X_Config) for LCD_X_Config
    gui_core.o(i.GUI__Config) refers to gui_core.o(.data) for .data
    gui_core.o(i.GUI__Config) refers to gui_core.o(i._OnExit) for _OnExit
    gui_core.o(i.GUI__RegisterExit) refers to gui_core.o(.data) for .data
    gui_core.o(i._OnExit) refers to gui_core.o(.data) for .data
    gui_core.o(i._OnExit) refers to gui_core.o(.bss) for .bss
    gui_core.o(i._OnExit) refers to gui__private.o(.data) for GUI__pfMemset
    gui_core.o(.constdata) refers to lcd.o(i.LCD_DrawHLine) for LCD_DrawHLine
    gui_core.o(.constdata) refers to lcd.o(i.LCD_DrawPixel) for LCD_DrawPixel
    gui_core.o(.data) refers to lcd_color.o(i.LCD_GetpPalConvTableBM) for LCD_GetpPalConvTableBM
    gui_core.o(.data) refers to f6x8.o(.constdata) for GUI_Font6x8
    gui_core.o(.data) refers to gui_core.o(.bss) for GUI__Context
    gui_device.o(i.GUI_DEVICE_Create) refers to gui_alloc.o(i.GUI_ALLOC_GetFixedBlock) for GUI_ALLOC_GetFixedBlock
    gui_device.o(i.GUI_DEVICE_Create) refers to gui_core.o(.data) for GUI__apDevice
    gui_device.o(i.GUI_DEVICE_CreateAndLink) refers to gui_alloc.o(i.GUI_ALLOC_GetFixedBlock) for GUI_ALLOC_GetFixedBlock
    gui_device.o(i.GUI_DEVICE_CreateAndLink) refers to gui_device.o(i.GUI_DEVICE_Link) for GUI_DEVICE_Link
    gui_device.o(i.GUI_DEVICE_CreateAndLink) refers to gui_core.o(.data) for GUI__apDevice
    gui_device.o(i.GUI_DEVICE_Delete) refers to gui_alloc.o(i.GUI_ALLOC_FreeFixedBlock) for GUI_ALLOC_FreeFixedBlock
    gui_device.o(i.GUI_DEVICE_Link) refers to gui_core.o(.data) for GUI__NumLayersInUse
    gui_device.o(i.GUI_DEVICE_Link) refers to gui_core.o(.data) for GUI__apDevice
    gui_device.o(i.GUI_DEVICE_LinkDevices) refers to gui_core.o(.data) for GUI__NumLayersInUse
    gui_device.o(i.GUI_DEVICE_LinkDevices) refers to gui_core.o(.data) for GUI__apDevice
    gui_device.o(i.GUI_DEVICE_Unlink) refers to gui_core.o(.data) for GUI__apDevice
    gui_device.o(i.GUI_DEVICE__GetpDevice) refers to gui_core.o(.data) for GUI__apDevice
    gui_device.o(i.GUI_DEVICE__GetpDriver) refers to gui_core.o(.data) for GUI__apDevice
    gui_dispstring.o(i.GUI_DispString) refers to gui_task.o(i.GUI_Lock) for GUI_Lock
    gui_dispstring.o(i.GUI_DispString) refers to gui_char.o(i.GUI_GetFontDistY) for GUI_GetFontDistY
    gui_dispstring.o(i.GUI_DispString) refers to gui_char.o(i.GUI_GetYAdjust) for GUI_GetYAdjust
    gui_dispstring.o(i.GUI_DispString) refers to gui_charline.o(i.GUI__GetLineNumChars) for GUI__GetLineNumChars
    gui_dispstring.o(i.GUI_DispString) refers to gui_charline.o(i.GUI__GetLineDistX) for GUI__GetLineDistX
    gui_dispstring.o(i.GUI_DispString) refers to gui_charline.o(i.GUI__DispLine) for GUI__DispLine
    gui_dispstring.o(i.GUI_DispString) refers to gui_uc.o(i.GUI_UC__NumChars2NumBytes) for GUI_UC__NumChars2NumBytes
    gui_dispstring.o(i.GUI_DispString) refers to gui_task.o(i.GUI_Unlock) for GUI_Unlock
    gui_dispstring.o(i.GUI_DispString) refers to gui_core.o(.data) for GUI_pContext
    gui_dispstring.o(i.GUI_DispStringAt) refers to gui_task.o(i.GUI_Lock) for GUI_Lock
    gui_dispstring.o(i.GUI_DispStringAt) refers to gui_dispstring.o(i.GUI_DispString) for GUI_DispString
    gui_dispstring.o(i.GUI_DispStringAt) refers to gui_task.o(i.GUI_Unlock) for GUI_Unlock
    gui_dispstring.o(i.GUI_DispStringAt) refers to gui_core.o(.data) for GUI_pContext
    gui_dispstring.o(i.GUI_DispStringAtCEOL) refers to gui_task.o(i.GUI_Lock) for GUI_Lock
    gui_dispstring.o(i.GUI_DispStringAtCEOL) refers to gui_dispstring.o(i.GUI_DispString) for GUI_DispString
    gui_dispstring.o(i.GUI_DispStringAtCEOL) refers to gui_task.o(i.GUI_Unlock) for GUI_Unlock
    gui_dispstring.o(i.GUI_DispStringAtCEOL) refers to gui_common.o(i.GUI_DispCEOL) for GUI_DispCEOL
    gui_dispstring.o(i.GUI_DispStringAtCEOL) refers to gui_core.o(.data) for GUI_pContext
    gui_dispstring.o(i.GUI_DispStringHCenterAt) refers to gui_common.o(i.GUI_SetTextAlign) for GUI_SetTextAlign
    gui_dispstring.o(i.GUI_DispStringHCenterAt) refers to gui_task.o(i.GUI_Lock) for GUI_Lock
    gui_dispstring.o(i.GUI_DispStringHCenterAt) refers to gui_dispstring.o(i.GUI_DispString) for GUI_DispString
    gui_dispstring.o(i.GUI_DispStringHCenterAt) refers to gui_task.o(i.GUI_Unlock) for GUI_Unlock
    gui_dispstring.o(i.GUI_DispStringHCenterAt) refers to gui_core.o(.data) for GUI_pContext
    gui_dispstring.o(i.GUI_DispStringInRect) refers to gui_task.o(i.GUI_Lock) for GUI_Lock
    gui_dispstring.o(i.GUI_DispStringInRect) refers to wm_lib.o(i.WM_SetUserClipRect) for WM_SetUserClipRect
    gui_dispstring.o(i.GUI_DispStringInRect) refers to gui__private.o(i.GUI__IntersectRects) for GUI__IntersectRects
    gui_dispstring.o(i.GUI_DispStringInRect) refers to gui_dispstring.o(i.GUI__DispStringInRect) for GUI__DispStringInRect
    gui_dispstring.o(i.GUI_DispStringInRect) refers to gui_task.o(i.GUI_Unlock) for GUI_Unlock
    gui_dispstring.o(i.GUI_DispStringInRectMax) refers to gui_task.o(i.GUI_Lock) for GUI_Lock
    gui_dispstring.o(i.GUI_DispStringInRectMax) refers to wm_lib.o(i.WM_SetUserClipRect) for WM_SetUserClipRect
    gui_dispstring.o(i.GUI_DispStringInRectMax) refers to gui__private.o(i.GUI__IntersectRects) for GUI__IntersectRects
    gui_dispstring.o(i.GUI_DispStringInRectMax) refers to gui_dispstring.o(i.GUI__DispStringInRect) for GUI__DispStringInRect
    gui_dispstring.o(i.GUI_DispStringInRectMax) refers to gui_task.o(i.GUI_Unlock) for GUI_Unlock
    gui_dispstring.o(i.GUI_DispStringInRectWrap) refers to gui_task.o(i.GUI_Lock) for GUI_Lock
    gui_dispstring.o(i.GUI_DispStringInRectWrap) refers to gui_char.o(i.GUI_GetFontDistY) for GUI_GetFontDistY
    gui_dispstring.o(i.GUI_DispStringInRectWrap) refers to gui__wrap.o(i.GUI__WrapGetNumBytesToNextLine) for GUI__WrapGetNumBytesToNextLine
    gui_dispstring.o(i.GUI_DispStringInRectWrap) refers to gui_task.o(i.GUI_Unlock) for GUI_Unlock
    gui_dispstring.o(i.GUI_DispStringInRectWrap) refers to wm_lib.o(i.WM_SetUserClipRect) for WM_SetUserClipRect
    gui_dispstring.o(i.GUI_DispStringInRectWrap) refers to gui__private.o(i.GUI__IntersectRects) for GUI__IntersectRects
    gui_dispstring.o(i.GUI_DispStringInRectWrap) refers to gui__wrap.o(i.GUI__WrapGetNumCharsDisp) for GUI__WrapGetNumCharsDisp
    gui_dispstring.o(i.GUI_DispStringInRectWrap) refers to gui_charline.o(i.GUI__GetLineDistX) for GUI__GetLineDistX
    gui_dispstring.o(i.GUI_DispStringInRectWrap) refers to gui_charline.o(i.GUI__DispLine) for GUI__DispLine
    gui_dispstring.o(i.GUI_DispStringLen) refers to gui_task.o(i.GUI_Lock) for GUI_Lock
    gui_dispstring.o(i.GUI_DispStringLen) refers to gui_uc.o(i.GUI_UC__GetCharCodeInc) for GUI_UC__GetCharCodeInc
    gui_dispstring.o(i.GUI_DispStringLen) refers to gui_dispchar.o(i.GUI_DispChar) for GUI_DispChar
    gui_dispstring.o(i.GUI_DispStringLen) refers to gui_task.o(i.GUI_Unlock) for GUI_Unlock
    gui_dispstring.o(i.GUI_GetStringDistX) refers to gui_uc.o(i.GUI__GetNumChars) for GUI__GetNumChars
    gui_dispstring.o(i.GUI_GetStringDistX) refers to gui_charline.o(i.GUI__GetLineDistX) for GUI__GetLineDistX
    gui_dispstring.o(i.GUI_WrapGetNumLines) refers to gui_task.o(i.GUI_Lock) for GUI_Lock
    gui_dispstring.o(i.GUI_WrapGetNumLines) refers to gui__wrap.o(i.GUI__WrapGetNumBytesToNextLine) for GUI__WrapGetNumBytesToNextLine
    gui_dispstring.o(i.GUI_WrapGetNumLines) refers to gui_task.o(i.GUI_Unlock) for GUI_Unlock
    gui_dispstring.o(i.GUI__DispStringInRect) refers to gui_char.o(i.GUI_GetFontDistY) for GUI_GetFontDistY
    gui_dispstring.o(i.GUI__DispStringInRect) refers to gui_common.o(i.GUI_GetClientRect) for GUI_GetClientRect
    gui_dispstring.o(i.GUI__DispStringInRect) refers to gui_charline.o(i.GUI__GetLineNumChars) for GUI__GetLineNumChars
    gui_dispstring.o(i.GUI__DispStringInRect) refers to gui_uc.o(i.GUI_UC__NumChars2NumBytes) for GUI_UC__NumChars2NumBytes
    gui_dispstring.o(i.GUI__DispStringInRect) refers to gui__private.o(i.GUI__HandleEOLine) for GUI__HandleEOLine
    gui_dispstring.o(i.GUI__DispStringInRect) refers to gui_charline.o(i.GUI__GetLineDistX) for GUI__GetLineDistX
    gui_dispstring.o(i.GUI__DispStringInRect) refers to gui_charline.o(i.GUI__DispLine) for GUI__DispLine
    gui_dispstring.o(i.GUI__DispStringInRect) refers to gui_core.o(.data) for GUI_pContext
    gui_drawlib.o(i.GL_DrawPoint) refers to gui_circ.o(i.GL_FillCircle) for GL_FillCircle
    gui_drawlib.o(i.GL_DrawPoint) refers to gui_core.o(.data) for GUI_pContext
    gui_drawlib.o(i.GL_DrawPolygon) refers to gui_2dlib.o(i.GL_MoveTo) for GL_MoveTo
    gui_drawlib.o(i.GL_DrawPolygon) refers to gui_drawline.o(i.GL_DrawLineTo) for GL_DrawLineTo
    gui_drawlib.o(i.GUI_DrawBitmapExp) refers to gui_task.o(i.GUI_Lock) for GUI_Lock
    gui_drawlib.o(i.GUI_DrawBitmapExp) refers to gui_common.o(i.GUI_SetDrawMode) for GUI_SetDrawMode
    gui_drawlib.o(i.GUI_DrawBitmapExp) refers to wm.o(i.WM__InitIVRSearch) for WM__InitIVRSearch
    gui_drawlib.o(i.GUI_DrawBitmapExp) refers to lcd.o(i.LCD_DrawBitmap) for LCD_DrawBitmap
    gui_drawlib.o(i.GUI_DrawBitmapExp) refers to wm.o(i.WM__GetNextIVR) for WM__GetNextIVR
    gui_drawlib.o(i.GUI_DrawBitmapExp) refers to gui_task.o(i.GUI_Unlock) for GUI_Unlock
    gui_drawlib.o(i.GUI_DrawBitmapExp) refers to gui_core.o(.data) for GUI_pContext
    gui_drawlib.o(i.GUI_DrawBitmapHWAlpha) refers to gui_task.o(i.GUI_Lock) for GUI_Lock
    gui_drawlib.o(i.GUI_DrawBitmapHWAlpha) refers to wm.o(i.WM__InitIVRSearch) for WM__InitIVRSearch
    gui_drawlib.o(i.GUI_DrawBitmapHWAlpha) refers to wm.o(i.WM__GetNextIVR) for WM__GetNextIVR
    gui_drawlib.o(i.GUI_DrawBitmapHWAlpha) refers to gui_task.o(i.GUI_Unlock) for GUI_Unlock
    gui_drawlib.o(i.GUI_DrawBitmapHWAlpha) refers to gui_core.o(.data) for GUI_pContext
    gui_drawlib.o(i.GUI_DrawBitmapMag) refers to gui_task.o(i.GUI_Lock) for GUI_Lock
    gui_drawlib.o(i.GUI_DrawBitmapMag) refers to gui_common.o(i.GUI_SetDrawMode) for GUI_SetDrawMode
    gui_drawlib.o(i.GUI_DrawBitmapMag) refers to wm.o(i.WM__InitIVRSearch) for WM__InitIVRSearch
    gui_drawlib.o(i.GUI_DrawBitmapMag) refers to lcd.o(i.LCD_DrawBitmap) for LCD_DrawBitmap
    gui_drawlib.o(i.GUI_DrawBitmapMag) refers to wm.o(i.WM__GetNextIVR) for WM__GetNextIVR
    gui_drawlib.o(i.GUI_DrawBitmapMag) refers to gui_task.o(i.GUI_Unlock) for GUI_Unlock
    gui_drawlib.o(i.GUI_DrawBitmapMag) refers to gui_core.o(.data) for GUI_pContext
    gui_drawlib.o(i.GUI_DrawFocusRect) refers to gui__private.o(i.GUI__ReduceRect) for GUI__ReduceRect
    gui_drawlib.o(i.GUI_DrawFocusRect) refers to gui_task.o(i.GUI_Lock) for GUI_Lock
    gui_drawlib.o(i.GUI_DrawFocusRect) refers to wm.o(i.WM__InitIVRSearch) for WM__InitIVRSearch
    gui_drawlib.o(i.GUI_DrawFocusRect) refers to lcd.o(i.LCD_DrawPixel) for LCD_DrawPixel
    gui_drawlib.o(i.GUI_DrawFocusRect) refers to wm.o(i.WM__GetNextIVR) for WM__GetNextIVR
    gui_drawlib.o(i.GUI_DrawFocusRect) refers to gui_task.o(i.GUI_Unlock) for GUI_Unlock
    gui_drawlib.o(i.GUI_DrawFocusRect) refers to gui_core.o(.data) for GUI_pContext
    gui_drawlib.o(i.GUI_DrawHLine) refers to gui_task.o(i.GUI_Lock) for GUI_Lock
    gui_drawlib.o(i.GUI_DrawHLine) refers to wm.o(i.WM__InitIVRSearch) for WM__InitIVRSearch
    gui_drawlib.o(i.GUI_DrawHLine) refers to wm.o(i.WM__GetNextIVR) for WM__GetNextIVR
    gui_drawlib.o(i.GUI_DrawHLine) refers to gui_task.o(i.GUI_Unlock) for GUI_Unlock
    gui_drawlib.o(i.GUI_DrawHLine) refers to gui_core.o(.data) for GUI_pContext
    gui_drawlib.o(i.GUI_DrawPie) refers to gui_task.o(i.GUI_Lock) for GUI_Lock
    gui_drawlib.o(i.GUI_DrawPie) refers to wm.o(i.WM__InitIVRSearch) for WM__InitIVRSearch
    gui_drawlib.o(i.GUI_DrawPie) refers to gui_common.o(i.GUI_GetPenSize) for GUI_GetPenSize
    gui_drawlib.o(i.GUI_DrawPie) refers to gui_common.o(i.GUI_SetPenSize) for GUI_SetPenSize
    gui_drawlib.o(i.GUI_DrawPie) refers to gui_arc.o(i.GL_DrawArc) for GL_DrawArc
    gui_drawlib.o(i.GUI_DrawPie) refers to wm.o(i.WM__GetNextIVR) for WM__GetNextIVR
    gui_drawlib.o(i.GUI_DrawPie) refers to gui_task.o(i.GUI_Unlock) for GUI_Unlock
    gui_drawlib.o(i.GUI_DrawPie) refers to gui_core.o(.data) for GUI_pContext
    gui_drawlib.o(i.GUI_DrawPixel) refers to gui_task.o(i.GUI_Lock) for GUI_Lock
    gui_drawlib.o(i.GUI_DrawPixel) refers to wm.o(i.WM__InitIVRSearch) for WM__InitIVRSearch
    gui_drawlib.o(i.GUI_DrawPixel) refers to wm.o(i.WM__GetNextIVR) for WM__GetNextIVR
    gui_drawlib.o(i.GUI_DrawPixel) refers to gui_task.o(i.GUI_Unlock) for GUI_Unlock
    gui_drawlib.o(i.GUI_DrawPixel) refers to gui_core.o(.data) for GUI_pContext
    gui_drawlib.o(i.GUI_DrawPoint) refers to gui_task.o(i.GUI_Lock) for GUI_Lock
    gui_drawlib.o(i.GUI_DrawPoint) refers to wm.o(i.WM__InitIVRSearch) for WM__InitIVRSearch
    gui_drawlib.o(i.GUI_DrawPoint) refers to gui_circ.o(i.GL_FillCircle) for GL_FillCircle
    gui_drawlib.o(i.GUI_DrawPoint) refers to wm.o(i.WM__GetNextIVR) for WM__GetNextIVR
    gui_drawlib.o(i.GUI_DrawPoint) refers to gui_task.o(i.GUI_Unlock) for GUI_Unlock
    gui_drawlib.o(i.GUI_DrawPoint) refers to gui_core.o(.data) for GUI_pContext
    gui_drawlib.o(i.GUI_DrawPolyLine) refers to gui_task.o(i.GUI_Lock) for GUI_Lock
    gui_drawlib.o(i.GUI_DrawPolyLine) refers to wm.o(i.WM__InitIVRSearch) for WM__InitIVRSearch
    gui_drawlib.o(i.GUI_DrawPolyLine) refers to gui_2dlib.o(i.GL_MoveTo) for GL_MoveTo
    gui_drawlib.o(i.GUI_DrawPolyLine) refers to gui_drawline.o(i.GL_DrawLineToEx) for GL_DrawLineToEx
    gui_drawlib.o(i.GUI_DrawPolyLine) refers to wm.o(i.WM__GetNextIVR) for WM__GetNextIVR
    gui_drawlib.o(i.GUI_DrawPolyLine) refers to gui_task.o(i.GUI_Unlock) for GUI_Unlock
    gui_drawlib.o(i.GUI_DrawPolyLine) refers to gui_core.o(.data) for GUI_pContext
    gui_drawlib.o(i.GUI_DrawPolygon) refers to gui_task.o(i.GUI_Lock) for GUI_Lock
    gui_drawlib.o(i.GUI_DrawPolygon) refers to wm.o(i.WM__InitIVRSearch) for WM__InitIVRSearch
    gui_drawlib.o(i.GUI_DrawPolygon) refers to gui_2dlib.o(i.GL_MoveTo) for GL_MoveTo
    gui_drawlib.o(i.GUI_DrawPolygon) refers to gui_drawline.o(i.GL_DrawLineTo) for GL_DrawLineTo
    gui_drawlib.o(i.GUI_DrawPolygon) refers to wm.o(i.WM__GetNextIVR) for WM__GetNextIVR
    gui_drawlib.o(i.GUI_DrawPolygon) refers to gui_task.o(i.GUI_Unlock) for GUI_Unlock
    gui_drawlib.o(i.GUI_DrawPolygon) refers to gui_core.o(.data) for GUI_pContext
    gui_drawlib.o(i.GUI_DrawVLine) refers to gui_task.o(i.GUI_Lock) for GUI_Lock
    gui_drawlib.o(i.GUI_DrawVLine) refers to wm.o(i.WM__InitIVRSearch) for WM__InitIVRSearch
    gui_drawlib.o(i.GUI_DrawVLine) refers to lcd.o(i.LCD_DrawVLine) for LCD_DrawVLine
    gui_drawlib.o(i.GUI_DrawVLine) refers to wm.o(i.WM__GetNextIVR) for WM__GetNextIVR
    gui_drawlib.o(i.GUI_DrawVLine) refers to gui_task.o(i.GUI_Unlock) for GUI_Unlock
    gui_drawlib.o(i.GUI_DrawVLine) refers to gui_core.o(.data) for GUI_pContext
    gui_drawlib.o(i.GUI_FillRect) refers to gui_task.o(i.GUI_Lock) for GUI_Lock
    gui_drawlib.o(i.GUI_FillRect) refers to wm.o(i.WM__InitIVRSearch) for WM__InitIVRSearch
    gui_drawlib.o(i.GUI_FillRect) refers to lcd.o(i.LCD_FillRect) for LCD_FillRect
    gui_drawlib.o(i.GUI_FillRect) refers to wm.o(i.WM__GetNextIVR) for WM__GetNextIVR
    gui_drawlib.o(i.GUI_FillRect) refers to gui_task.o(i.GUI_Unlock) for GUI_Unlock
    gui_drawlib.o(i.GUI_FillRect) refers to gui_core.o(.data) for GUI_pContext
    gui_drawlib.o(i.GUI_FillRectEx) refers to gui_task.o(i.GUI_Lock) for GUI_Lock
    gui_drawlib.o(i.GUI_FillRectEx) refers to wm.o(i.WM__InitIVRSearch) for WM__InitIVRSearch
    gui_drawlib.o(i.GUI_FillRectEx) refers to lcd.o(i.LCD_FillRect) for LCD_FillRect
    gui_drawlib.o(i.GUI_FillRectEx) refers to wm.o(i.WM__GetNextIVR) for WM__GetNextIVR
    gui_drawlib.o(i.GUI_FillRectEx) refers to gui_task.o(i.GUI_Unlock) for GUI_Unlock
    gui_drawlib.o(i.GUI_FillRectEx) refers to gui_core.o(.data) for GUI_pContext
    gui_drawlib.o(i.GUI_InvertRect) refers to gui_task.o(i.GUI_Lock) for GUI_Lock
    gui_drawlib.o(i.GUI_InvertRect) refers to gui_common.o(i.GUI_SetDrawMode) for GUI_SetDrawMode
    gui_drawlib.o(i.GUI_InvertRect) refers to wm.o(i.WM__InitIVRSearch) for WM__InitIVRSearch
    gui_drawlib.o(i.GUI_InvertRect) refers to lcd.o(i.LCD_FillRect) for LCD_FillRect
    gui_drawlib.o(i.GUI_InvertRect) refers to wm.o(i.WM__GetNextIVR) for WM__GetNextIVR
    gui_drawlib.o(i.GUI_InvertRect) refers to gui_task.o(i.GUI_Unlock) for GUI_Unlock
    gui_drawlib.o(i.GUI_InvertRect) refers to gui_core.o(.data) for GUI_pContext
    gui_fillpolygon.o(i.GL_FillPolygon) refers to gui_core.o(.data) for GUI_pContext
    gui_fillpolygon.o(i.GL_FillPolygon) refers to gui_fillpolygon.o(.data) for .data
    gui_fillpolygon.o(i.GL_FillPolygon) refers to gui_fillpolygon.o(.bss) for .bss
    gui_fillpolygon.o(i.GUI_FillPolygon) refers to gui_task.o(i.GUI_Lock) for GUI_Lock
    gui_fillpolygon.o(i.GUI_FillPolygon) refers to wm.o(i.WM__InitIVRSearch) for WM__InitIVRSearch
    gui_fillpolygon.o(i.GUI_FillPolygon) refers to gui_fillpolygon.o(i.GL_FillPolygon) for GL_FillPolygon
    gui_fillpolygon.o(i.GUI_FillPolygon) refers to wm.o(i.WM__GetNextIVR) for WM__GetNextIVR
    gui_fillpolygon.o(i.GUI_FillPolygon) refers to gui_task.o(i.GUI_Unlock) for GUI_Unlock
    gui_fillpolygon.o(i.GUI_FillPolygon) refers to gui_core.o(.data) for GUI_pContext
    gui_time.o(i.GUI_Delay) refers to gui_x_os.o(i.GUI_X_GetTime) for GUI_X_GetTime
    gui_time.o(i.GUI_Delay) refers to gui_common.o(i.GUI_Exec) for GUI_Exec
    gui_time.o(i.GUI_Delay) refers to gui_task.o(i.GUI_Lock) for GUI_Lock
    gui_time.o(i.GUI_Delay) refers to gui_alloc.o(i.GUI_ALLOC_Lock) for GUI_ALLOC_Lock
    gui_time.o(i.GUI_Delay) refers to gui_task.o(i.GUI_Unlock) for GUI_Unlock
    gui_time.o(i.GUI_Delay) refers to gui_x_os.o(i.GUI_X_Delay) for GUI_X_Delay
    gui_time.o(i.GUI_Delay) refers to gui_alloc.o(i.GUI_ALLOC_Unlock) for GUI_ALLOC_Unlock
    gui_time.o(i.GUI_Delay) refers to gui_time.o(.data) for .data
    gui_time.o(i.GUI_Delay) refers to gui_task.o(.data) for GUITASK__EntranceCnt
    gui_time.o(i.GUI_GetTime) refers to gui_x_os.o(i.GUI_X_GetTime) for GUI_X_GetTime
    gui_time.o(i.GUI_GetTimeSlice) refers to gui_time.o(.data) for .data
    gui_time.o(i.GUI_SetTimeSlice) refers to gui_time.o(.data) for .data
    guicc_565.o(i.LCD_Index2Color_565) refers to gui__divtbl.o(.constdata) for GUI__aConvert_31_255
    guicc_565.o(i.LCD_Index2Color_565) refers to gui__divtbl.o(.constdata) for GUI__aConvert_63_255
    guicc_565.o(i._Color2IndexBulk) refers to gui__divtbl.o(.constdata) for GUI__aConvert_255_31
    guicc_565.o(i._Color2IndexBulk) refers to gui__divtbl.o(.constdata) for GUI__aConvert_255_63
    guicc_565.o(i._Color2Index_565) refers to gui__divtbl.o(.constdata) for GUI__aConvert_255_31
    guicc_565.o(i._Color2Index_565) refers to gui__divtbl.o(.constdata) for GUI__aConvert_255_63
    guicc_565.o(i._Index2ColorBulk) refers to gui__divtbl.o(.constdata) for GUI__aConvert_31_255
    guicc_565.o(i._Index2ColorBulk) refers to gui__divtbl.o(.constdata) for GUI__aConvert_63_255
    guicc_565.o(.constdata) refers to guicc_565.o(i._Color2Index_565) for _Color2Index_565
    guicc_565.o(.constdata) refers to guicc_565.o(i.LCD_Index2Color_565) for LCD_Index2Color_565
    guicc_565.o(.constdata) refers to guicc_565.o(i._GetIndexMask_565) for _GetIndexMask_565
    guicc_565.o(.constdata) refers to guicc_565.o(i._Color2IndexBulk) for _Color2IndexBulk
    guicc_565.o(.constdata) refers to guicc_565.o(i._Index2ColorBulk) for _Index2ColorBulk
    lcd_getex.o(i.GUI_GetBitsPerPixelEx) refers to gui_core.o(.data) for GUI__apDevice
    lcd_getex.o(i.GUI_GetpfColor2IndexEx) refers to gui_core.o(.data) for GUI__apDevice
    lcd_getex.o(i.GUI_GetpfIndex2ColorEx) refers to gui_core.o(.data) for GUI__apDevice
    lcd_getex.o(i.LCD_GetBitsPerPixel) refers to gui_device.o(i.GUI_DEVICE__GetpDriver) for GUI_DEVICE__GetpDriver
    lcd_getex.o(i.LCD_GetBitsPerPixel) refers to gui_core.o(.data) for GUI_pContext
    lcd_getex.o(i.LCD_GetBitsPerPixelEx) refers to gui_device.o(i.GUI_DEVICE__GetpDriver) for GUI_DEVICE__GetpDriver
    lcd_getex.o(i.LCD_GetBitsPerPixelMax) refers to gui_device.o(i.GUI_DEVICE__GetpDriver) for GUI_DEVICE__GetpDriver
    lcd_getex.o(i.LCD_GetDevFunc) refers to gui_core.o(.data) for GUI__apDevice
    lcd_getex.o(i.LCD_GetMirrorX) refers to gui_device.o(i.GUI_DEVICE__GetpDriver) for GUI_DEVICE__GetpDriver
    lcd_getex.o(i.LCD_GetMirrorX) refers to gui_core.o(.data) for GUI_pContext
    lcd_getex.o(i.LCD_GetMirrorXEx) refers to gui_device.o(i.GUI_DEVICE__GetpDriver) for GUI_DEVICE__GetpDriver
    lcd_getex.o(i.LCD_GetMirrorY) refers to gui_device.o(i.GUI_DEVICE__GetpDriver) for GUI_DEVICE__GetpDriver
    lcd_getex.o(i.LCD_GetMirrorY) refers to gui_core.o(.data) for GUI_pContext
    lcd_getex.o(i.LCD_GetMirrorYEx) refers to gui_device.o(i.GUI_DEVICE__GetpDriver) for GUI_DEVICE__GetpDriver
    lcd_getex.o(i.LCD_GetNumColors) refers to gui_device.o(i.GUI_DEVICE__GetpDriver) for GUI_DEVICE__GetpDriver
    lcd_getex.o(i.LCD_GetNumColors) refers to gui_core.o(.data) for GUI_pContext
    lcd_getex.o(i.LCD_GetNumColorsEx) refers to gui_device.o(i.GUI_DEVICE__GetpDriver) for GUI_DEVICE__GetpDriver
    lcd_getex.o(i.LCD_GetPalette) refers to gui_device.o(i.GUI_DEVICE__GetpDriver) for GUI_DEVICE__GetpDriver
    lcd_getex.o(i.LCD_GetPalette) refers to gui_core.o(.data) for GUI_pContext
    lcd_getex.o(i.LCD_GetPaletteEx) refers to gui_device.o(i.GUI_DEVICE__GetpDriver) for GUI_DEVICE__GetpDriver
    lcd_getex.o(i.LCD_GetSwapXY) refers to gui_device.o(i.GUI_DEVICE__GetpDriver) for GUI_DEVICE__GetpDriver
    lcd_getex.o(i.LCD_GetSwapXY) refers to gui_core.o(.data) for GUI_pContext
    lcd_getex.o(i.LCD_GetSwapXYEx) refers to gui_device.o(i.GUI_DEVICE__GetpDriver) for GUI_DEVICE__GetpDriver
    lcd_getex.o(i.LCD_GetVXSize) refers to gui_device.o(i.GUI_DEVICE__GetpDriver) for GUI_DEVICE__GetpDriver
    lcd_getex.o(i.LCD_GetVXSize) refers to gui_core.o(.data) for GUI_pContext
    lcd_getex.o(i.LCD_GetVXSizeEx) refers to gui_device.o(i.GUI_DEVICE__GetpDriver) for GUI_DEVICE__GetpDriver
    lcd_getex.o(i.LCD_GetVXSizeMax) refers to gui_device.o(i.GUI_DEVICE__GetpDriver) for GUI_DEVICE__GetpDriver
    lcd_getex.o(i.LCD_GetVYSize) refers to gui_device.o(i.GUI_DEVICE__GetpDriver) for GUI_DEVICE__GetpDriver
    lcd_getex.o(i.LCD_GetVYSize) refers to gui_core.o(.data) for GUI_pContext
    lcd_getex.o(i.LCD_GetVYSizeEx) refers to gui_device.o(i.GUI_DEVICE__GetpDriver) for GUI_DEVICE__GetpDriver
    lcd_getex.o(i.LCD_GetVYSizeMax) refers to gui_device.o(i.GUI_DEVICE__GetpDriver) for GUI_DEVICE__GetpDriver
    lcd_getex.o(i.LCD_GetXMag) refers to gui_device.o(i.GUI_DEVICE__GetpDriver) for GUI_DEVICE__GetpDriver
    lcd_getex.o(i.LCD_GetXMag) refers to gui_core.o(.data) for GUI_pContext
    lcd_getex.o(i.LCD_GetXMagEx) refers to gui_device.o(i.GUI_DEVICE__GetpDriver) for GUI_DEVICE__GetpDriver
    lcd_getex.o(i.LCD_GetXSize) refers to gui_device.o(i.GUI_DEVICE__GetpDriver) for GUI_DEVICE__GetpDriver
    lcd_getex.o(i.LCD_GetXSize) refers to gui_core.o(.data) for GUI_pContext
    lcd_getex.o(i.LCD_GetXSizeDisplay) refers to lcd_getex.o(.data) for .data
    lcd_getex.o(i.LCD_GetXSizeEx) refers to gui_device.o(i.GUI_DEVICE__GetpDriver) for GUI_DEVICE__GetpDriver
    lcd_getex.o(i.LCD_GetXSizeMax) refers to gui_device.o(i.GUI_DEVICE__GetpDriver) for GUI_DEVICE__GetpDriver
    lcd_getex.o(i.LCD_GetYMag) refers to gui_device.o(i.GUI_DEVICE__GetpDriver) for GUI_DEVICE__GetpDriver
    lcd_getex.o(i.LCD_GetYMag) refers to gui_core.o(.data) for GUI_pContext
    lcd_getex.o(i.LCD_GetYMagEx) refers to gui_device.o(i.GUI_DEVICE__GetpDriver) for GUI_DEVICE__GetpDriver
    lcd_getex.o(i.LCD_GetYSize) refers to gui_device.o(i.GUI_DEVICE__GetpDriver) for GUI_DEVICE__GetpDriver
    lcd_getex.o(i.LCD_GetYSize) refers to gui_core.o(.data) for GUI_pContext
    lcd_getex.o(i.LCD_GetYSizeDisplay) refers to lcd_getex.o(.data) for .data
    lcd_getex.o(i.LCD_GetYSizeEx) refers to gui_device.o(i.GUI_DEVICE__GetpDriver) for GUI_DEVICE__GetpDriver
    lcd_getex.o(i.LCD_GetYSizeMax) refers to gui_device.o(i.GUI_DEVICE__GetpDriver) for GUI_DEVICE__GetpDriver
    lcd_getex.o(i.LCD_GetpfColor2IndexEx) refers to gui_device.o(i.GUI_DEVICE__GetpDriver) for GUI_DEVICE__GetpDriver
    lcd_getex.o(i.LCD_GetpfIndex2ColorEx) refers to gui_device.o(i.GUI_DEVICE__GetpDriver) for GUI_DEVICE__GetpDriver
    lcd_getex.o(i.LCD_SetDisplaySize) refers to lcd_getex.o(.data) for .data
    lcd_set.o(i.LCD_GetPos) refers to gui_device.o(i.GUI_DEVICE__GetpDriver) for GUI_DEVICE__GetpDriver
    lcd_set.o(i.LCD_GetPos) refers to gui_core.o(.data) for GUI_pContext
    lcd_set.o(i.LCD_GetPosEx) refers to gui_device.o(i.GUI_DEVICE__GetpDriver) for GUI_DEVICE__GetpDriver
    lcd_set.o(i.LCD_Off) refers to gui_device.o(i.GUI_DEVICE__GetpDriver) for GUI_DEVICE__GetpDriver
    lcd_set.o(i.LCD_Off) refers to gui_core.o(.data) for GUI_pContext
    lcd_set.o(i.LCD_OffEx) refers to gui_device.o(i.GUI_DEVICE__GetpDriver) for GUI_DEVICE__GetpDriver
    lcd_set.o(i.LCD_On) refers to gui_device.o(i.GUI_DEVICE__GetpDriver) for GUI_DEVICE__GetpDriver
    lcd_set.o(i.LCD_On) refers to gui_core.o(.data) for GUI_pContext
    lcd_set.o(i.LCD_OnEx) refers to gui_device.o(i.GUI_DEVICE__GetpDriver) for GUI_DEVICE__GetpDriver
    lcd_set.o(i.LCD_Refresh) refers to gui_device.o(i.GUI_DEVICE__GetpDriver) for GUI_DEVICE__GetpDriver
    lcd_set.o(i.LCD_Refresh) refers to gui_core.o(.data) for GUI_pContext
    lcd_set.o(i.LCD_RefreshEx) refers to gui_device.o(i.GUI_DEVICE__GetpDriver) for GUI_DEVICE__GetpDriver
    lcd_set.o(i.LCD_SetAlpha) refers to gui_device.o(i.GUI_DEVICE__GetpDriver) for GUI_DEVICE__GetpDriver
    lcd_set.o(i.LCD_SetAlpha) refers to gui_core.o(.data) for GUI_pContext
    lcd_set.o(i.LCD_SetAlphaEx) refers to gui_device.o(i.GUI_DEVICE__GetpDriver) for GUI_DEVICE__GetpDriver
    lcd_set.o(i.LCD_SetAlphaMode) refers to gui_device.o(i.GUI_DEVICE__GetpDriver) for GUI_DEVICE__GetpDriver
    lcd_set.o(i.LCD_SetAlphaMode) refers to gui_core.o(.data) for GUI_pContext
    lcd_set.o(i.LCD_SetAlphaModeEx) refers to gui_device.o(i.GUI_DEVICE__GetpDriver) for GUI_DEVICE__GetpDriver
    lcd_set.o(i.LCD_SetChroma) refers to gui_device.o(i.GUI_DEVICE__GetpDriver) for GUI_DEVICE__GetpDriver
    lcd_set.o(i.LCD_SetChroma) refers to gui_core.o(.data) for GUI_pContext
    lcd_set.o(i.LCD_SetChromaEx) refers to gui_device.o(i.GUI_DEVICE__GetpDriver) for GUI_DEVICE__GetpDriver
    lcd_set.o(i.LCD_SetChromaMode) refers to gui_device.o(i.GUI_DEVICE__GetpDriver) for GUI_DEVICE__GetpDriver
    lcd_set.o(i.LCD_SetChromaMode) refers to gui_core.o(.data) for GUI_pContext
    lcd_set.o(i.LCD_SetChromaModeEx) refers to gui_device.o(i.GUI_DEVICE__GetpDriver) for GUI_DEVICE__GetpDriver
    lcd_set.o(i.LCD_SetDevFunc) refers to gui_device.o(i.GUI_DEVICE__GetpDriver) for GUI_DEVICE__GetpDriver
    lcd_set.o(i.LCD_SetLUTEntry) refers to gui_device.o(i.GUI_DEVICE__GetpDriver) for GUI_DEVICE__GetpDriver
    lcd_set.o(i.LCD_SetLUTEntry) refers to gui_core.o(.data) for GUI_pContext
    lcd_set.o(i.LCD_SetLUTEntryEx) refers to gui_device.o(i.GUI_DEVICE__GetpDriver) for GUI_DEVICE__GetpDriver
    lcd_set.o(i.LCD_SetOrg) refers to gui_core.o(.data) for GUI_pContext
    lcd_set.o(i.LCD_SetPos) refers to gui_device.o(i.GUI_DEVICE__GetpDriver) for GUI_DEVICE__GetpDriver
    lcd_set.o(i.LCD_SetPos) refers to gui_core.o(.data) for GUI_pContext
    lcd_set.o(i.LCD_SetPosEx) refers to gui_device.o(i.GUI_DEVICE__GetpDriver) for GUI_DEVICE__GetpDriver
    lcd_set.o(i.LCD_SetSize) refers to gui_device.o(i.GUI_DEVICE__GetpDriver) for GUI_DEVICE__GetpDriver
    lcd_set.o(i.LCD_SetSize) refers to gui_core.o(.data) for GUI_pContext
    lcd_set.o(i.LCD_SetSizeEx) refers to gui_device.o(i.GUI_DEVICE__GetpDriver) for GUI_DEVICE__GetpDriver
    lcd_set.o(i.LCD_SetVRAMAddr) refers to gui_device.o(i.GUI_DEVICE__GetpDriver) for GUI_DEVICE__GetpDriver
    lcd_set.o(i.LCD_SetVRAMAddr) refers to gui_core.o(.data) for GUI_pContext
    lcd_set.o(i.LCD_SetVRAMAddrEx) refers to gui_device.o(i.GUI_DEVICE__GetpDriver) for GUI_DEVICE__GetpDriver
    lcd_set.o(i.LCD_SetVSize) refers to gui_device.o(i.GUI_DEVICE__GetpDriver) for GUI_DEVICE__GetpDriver
    lcd_set.o(i.LCD_SetVSize) refers to gui_core.o(.data) for GUI_pContext
    lcd_set.o(i.LCD_SetVSizeEx) refers to gui_device.o(i.GUI_DEVICE__GetpDriver) for GUI_DEVICE__GetpDriver
    lcd_set.o(i.LCD_SetVis) refers to gui_device.o(i.GUI_DEVICE__GetpDriver) for GUI_DEVICE__GetpDriver
    lcd_set.o(i.LCD_SetVis) refers to gui_core.o(.data) for GUI_pContext
    lcd_set.o(i.LCD_SetVisEx) refers to gui_device.o(i.GUI_DEVICE__GetpDriver) for GUI_DEVICE__GetpDriver
    f13b_ascii.o(.constdata) refers to f13b_ascii.o(.constdata) for acFont13B_ASCII_0020
    f13b_ascii.o(.constdata) refers to f13b_ascii.o(.constdata) for acFont13B_ASCII_0021
    f13b_ascii.o(.constdata) refers to f13b_ascii.o(.constdata) for acFont13B_ASCII_0022
    f13b_ascii.o(.constdata) refers to f13b_ascii.o(.constdata) for acFont13B_ASCII_0023
    f13b_ascii.o(.constdata) refers to f13b_ascii.o(.constdata) for acFont13B_ASCII_0024
    f13b_ascii.o(.constdata) refers to f13b_ascii.o(.constdata) for acFont13B_ASCII_0025
    f13b_ascii.o(.constdata) refers to f13b_ascii.o(.constdata) for acFont13B_ASCII_0026
    f13b_ascii.o(.constdata) refers to f13b_ascii.o(.constdata) for acFont13B_ASCII_0027
    f13b_ascii.o(.constdata) refers to f13b_ascii.o(.constdata) for acFont13B_ASCII_0028
    f13b_ascii.o(.constdata) refers to f13b_ascii.o(.constdata) for acFont13B_ASCII_0029
    f13b_ascii.o(.constdata) refers to f13b_ascii.o(.constdata) for acFont13B_ASCII_002A
    f13b_ascii.o(.constdata) refers to f13b_ascii.o(.constdata) for acFont13B_ASCII_002B
    f13b_ascii.o(.constdata) refers to f13b_ascii.o(.constdata) for acFont13B_ASCII_002C
    f13b_ascii.o(.constdata) refers to f13b_ascii.o(.constdata) for acFont13B_ASCII_002D
    f13b_ascii.o(.constdata) refers to f13b_ascii.o(.constdata) for acFont13B_ASCII_002E
    f13b_ascii.o(.constdata) refers to f13b_ascii.o(.constdata) for acFont13B_ASCII_002F
    f13b_ascii.o(.constdata) refers to f13b_ascii.o(.constdata) for acFont13B_ASCII_0030
    f13b_ascii.o(.constdata) refers to f13b_ascii.o(.constdata) for acFont13B_ASCII_0031
    f13b_ascii.o(.constdata) refers to f13b_ascii.o(.constdata) for acFont13B_ASCII_0032
    f13b_ascii.o(.constdata) refers to f13b_ascii.o(.constdata) for acFont13B_ASCII_0033
    f13b_ascii.o(.constdata) refers to f13b_ascii.o(.constdata) for acFont13B_ASCII_0034
    f13b_ascii.o(.constdata) refers to f13b_ascii.o(.constdata) for acFont13B_ASCII_0035
    f13b_ascii.o(.constdata) refers to f13b_ascii.o(.constdata) for acFont13B_ASCII_0036
    f13b_ascii.o(.constdata) refers to f13b_ascii.o(.constdata) for acFont13B_ASCII_0037
    f13b_ascii.o(.constdata) refers to f13b_ascii.o(.constdata) for acFont13B_ASCII_0038
    f13b_ascii.o(.constdata) refers to f13b_ascii.o(.constdata) for acFont13B_ASCII_0039
    f13b_ascii.o(.constdata) refers to f13b_ascii.o(.constdata) for acFont13B_ASCII_003A
    f13b_ascii.o(.constdata) refers to f13b_ascii.o(.constdata) for acFont13B_ASCII_003B
    f13b_ascii.o(.constdata) refers to f13b_ascii.o(.constdata) for acFont13B_ASCII_003C
    f13b_ascii.o(.constdata) refers to f13b_ascii.o(.constdata) for acFont13B_ASCII_003D
    f13b_ascii.o(.constdata) refers to f13b_ascii.o(.constdata) for acFont13B_ASCII_003E
    f13b_ascii.o(.constdata) refers to f13b_ascii.o(.constdata) for acFont13B_ASCII_003F
    f13b_ascii.o(.constdata) refers to f13b_ascii.o(.constdata) for acFont13B_ASCII_0040
    f13b_ascii.o(.constdata) refers to f13b_ascii.o(.constdata) for acFont13B_ASCII_0041
    f13b_ascii.o(.constdata) refers to f13b_ascii.o(.constdata) for acFont13B_ASCII_0042
    f13b_ascii.o(.constdata) refers to f13b_ascii.o(.constdata) for acFont13B_ASCII_0043
    f13b_ascii.o(.constdata) refers to f13b_ascii.o(.constdata) for acFont13B_ASCII_0044
    f13b_ascii.o(.constdata) refers to f13b_ascii.o(.constdata) for acFont13B_ASCII_0045
    f13b_ascii.o(.constdata) refers to f13b_ascii.o(.constdata) for acFont13B_ASCII_0046
    f13b_ascii.o(.constdata) refers to f13b_ascii.o(.constdata) for acFont13B_ASCII_0047
    f13b_ascii.o(.constdata) refers to f13b_ascii.o(.constdata) for acFont13B_ASCII_0048
    f13b_ascii.o(.constdata) refers to f13b_ascii.o(.constdata) for acFont13B_ASCII_0049
    f13b_ascii.o(.constdata) refers to f13b_ascii.o(.constdata) for acFont13B_ASCII_004A
    f13b_ascii.o(.constdata) refers to f13b_ascii.o(.constdata) for acFont13B_ASCII_004B
    f13b_ascii.o(.constdata) refers to f13b_ascii.o(.constdata) for acFont13B_ASCII_004C
    f13b_ascii.o(.constdata) refers to f13b_ascii.o(.constdata) for acFont13B_ASCII_004D
    f13b_ascii.o(.constdata) refers to f13b_ascii.o(.constdata) for acFont13B_ASCII_004E
    f13b_ascii.o(.constdata) refers to f13b_ascii.o(.constdata) for acFont13B_ASCII_004F
    f13b_ascii.o(.constdata) refers to f13b_ascii.o(.constdata) for acFont13B_ASCII_0050
    f13b_ascii.o(.constdata) refers to f13b_ascii.o(.constdata) for acFont13B_ASCII_0051
    f13b_ascii.o(.constdata) refers to f13b_ascii.o(.constdata) for acFont13B_ASCII_0052
    f13b_ascii.o(.constdata) refers to f13b_ascii.o(.constdata) for acFont13B_ASCII_0053
    f13b_ascii.o(.constdata) refers to f13b_ascii.o(.constdata) for acFont13B_ASCII_0054
    f13b_ascii.o(.constdata) refers to f13b_ascii.o(.constdata) for acFont13B_ASCII_0055
    f13b_ascii.o(.constdata) refers to f13b_ascii.o(.constdata) for acFont13B_ASCII_0056
    f13b_ascii.o(.constdata) refers to f13b_ascii.o(.constdata) for acFont13B_ASCII_0057
    f13b_ascii.o(.constdata) refers to f13b_ascii.o(.constdata) for acFont13B_ASCII_0058
    f13b_ascii.o(.constdata) refers to f13b_ascii.o(.constdata) for acFont13B_ASCII_0059
    f13b_ascii.o(.constdata) refers to f13b_ascii.o(.constdata) for acFont13B_ASCII_005A
    f13b_ascii.o(.constdata) refers to f13b_ascii.o(.constdata) for acFont13B_ASCII_005B
    f13b_ascii.o(.constdata) refers to f13b_ascii.o(.constdata) for acFont13B_ASCII_005C
    f13b_ascii.o(.constdata) refers to f13b_ascii.o(.constdata) for acFont13B_ASCII_005D
    f13b_ascii.o(.constdata) refers to f13b_ascii.o(.constdata) for acFont13B_ASCII_005E
    f13b_ascii.o(.constdata) refers to f13b_ascii.o(.constdata) for acFont13B_ASCII_005F
    f13b_ascii.o(.constdata) refers to f13b_ascii.o(.constdata) for acFont13B_ASCII_0060
    f13b_ascii.o(.constdata) refers to f13b_ascii.o(.constdata) for acFont13B_ASCII_0061
    f13b_ascii.o(.constdata) refers to f13b_ascii.o(.constdata) for acFont13B_ASCII_0062
    f13b_ascii.o(.constdata) refers to f13b_ascii.o(.constdata) for acFont13B_ASCII_0063
    f13b_ascii.o(.constdata) refers to f13b_ascii.o(.constdata) for acFont13B_ASCII_0064
    f13b_ascii.o(.constdata) refers to f13b_ascii.o(.constdata) for acFont13B_ASCII_0065
    f13b_ascii.o(.constdata) refers to f13b_ascii.o(.constdata) for acFont13B_ASCII_0066
    f13b_ascii.o(.constdata) refers to f13b_ascii.o(.constdata) for acFont13B_ASCII_0067
    f13b_ascii.o(.constdata) refers to f13b_ascii.o(.constdata) for acFont13B_ASCII_0068
    f13b_ascii.o(.constdata) refers to f13b_ascii.o(.constdata) for acFont13B_ASCII_0069
    f13b_ascii.o(.constdata) refers to f13b_ascii.o(.constdata) for acFont13B_ASCII_006A
    f13b_ascii.o(.constdata) refers to f13b_ascii.o(.constdata) for acFont13B_ASCII_006B
    f13b_ascii.o(.constdata) refers to f13b_ascii.o(.constdata) for acFont13B_ASCII_006C
    f13b_ascii.o(.constdata) refers to f13b_ascii.o(.constdata) for acFont13B_ASCII_006D
    f13b_ascii.o(.constdata) refers to f13b_ascii.o(.constdata) for acFont13B_ASCII_006E
    f13b_ascii.o(.constdata) refers to f13b_ascii.o(.constdata) for acFont13B_ASCII_006F
    f13b_ascii.o(.constdata) refers to f13b_ascii.o(.constdata) for acFont13B_ASCII_0070
    f13b_ascii.o(.constdata) refers to f13b_ascii.o(.constdata) for acFont13B_ASCII_0071
    f13b_ascii.o(.constdata) refers to f13b_ascii.o(.constdata) for acFont13B_ASCII_0072
    f13b_ascii.o(.constdata) refers to f13b_ascii.o(.constdata) for acFont13B_ASCII_0073
    f13b_ascii.o(.constdata) refers to f13b_ascii.o(.constdata) for acFont13B_ASCII_0074
    f13b_ascii.o(.constdata) refers to f13b_ascii.o(.constdata) for acFont13B_ASCII_0075
    f13b_ascii.o(.constdata) refers to f13b_ascii.o(.constdata) for acFont13B_ASCII_0076
    f13b_ascii.o(.constdata) refers to f13b_ascii.o(.constdata) for acFont13B_ASCII_0077
    f13b_ascii.o(.constdata) refers to f13b_ascii.o(.constdata) for acFont13B_ASCII_0078
    f13b_ascii.o(.constdata) refers to f13b_ascii.o(.constdata) for acFont13B_ASCII_0079
    f13b_ascii.o(.constdata) refers to f13b_ascii.o(.constdata) for acFont13B_ASCII_007A
    f13b_ascii.o(.constdata) refers to f13b_ascii.o(.constdata) for acFont13B_ASCII_007B
    f13b_ascii.o(.constdata) refers to f13b_ascii.o(.constdata) for acFont13B_ASCII_007C
    f13b_ascii.o(.constdata) refers to f13b_ascii.o(.constdata) for acFont13B_ASCII_007D
    f13b_ascii.o(.constdata) refers to f13b_ascii.o(.constdata) for acFont13B_ASCII_007E
    f13b_ascii.o(.constdata) refers to f13b_ascii.o(.constdata) for GUI_Font13B_ASCII_CharInfo
    f13b_ascii.o(.constdata) refers to gui_charp.o(i.GUIPROP_DispChar) for GUIPROP_DispChar
    f13b_ascii.o(.constdata) refers to gui_charp.o(i.GUIPROP_GetCharDistX) for GUIPROP_GetCharDistX
    f13b_ascii.o(.constdata) refers to gui_charp.o(i.GUIPROP_GetFontInfo) for GUIPROP_GetFontInfo
    f13b_ascii.o(.constdata) refers to gui_charp.o(i.GUIPROP_IsInFont) for GUIPROP_IsInFont
    f13b_ascii.o(.constdata) refers to f13b_ascii.o(.constdata) for GUI_Font13B_ASCII_Prop1
    f16_1.o(.constdata) refers to f16_1.o(.constdata) for acFont16_1_160
    f16_1.o(.constdata) refers to f16_1.o(.constdata) for acFont16_1_161
    f16_1.o(.constdata) refers to f16_1.o(.constdata) for acFont16_1_162
    f16_1.o(.constdata) refers to f16_1.o(.constdata) for acFont16_1_163
    f16_1.o(.constdata) refers to f16_1.o(.constdata) for acFont16_1_164
    f16_1.o(.constdata) refers to f16_1.o(.constdata) for acFont16_1_165
    f16_1.o(.constdata) refers to f16_1.o(.constdata) for acFont16_1_166
    f16_1.o(.constdata) refers to f16_1.o(.constdata) for acFont16_1_167
    f16_1.o(.constdata) refers to f16_1.o(.constdata) for acFont16_1_168
    f16_1.o(.constdata) refers to f16_1.o(.constdata) for acFont16_1_169
    f16_1.o(.constdata) refers to f16_1.o(.constdata) for acFont16_1_170
    f16_1.o(.constdata) refers to f16_1.o(.constdata) for acFont16_1_171
    f16_1.o(.constdata) refers to f16_1.o(.constdata) for acFont16_1_172
    f16_1.o(.constdata) refers to f16_1.o(.constdata) for acFont16_1_173
    f16_1.o(.constdata) refers to f16_1.o(.constdata) for acFont16_1_174
    f16_1.o(.constdata) refers to f16_1.o(.constdata) for acFont16_1_175
    f16_1.o(.constdata) refers to f16_1.o(.constdata) for acFont16_1_176
    f16_1.o(.constdata) refers to f16_1.o(.constdata) for acFont16_1_177
    f16_1.o(.constdata) refers to f16_1.o(.constdata) for acFont16_1_178
    f16_1.o(.constdata) refers to f16_1.o(.constdata) for acFont16_1_179
    f16_1.o(.constdata) refers to f16_1.o(.constdata) for acFont16_1_180
    f16_1.o(.constdata) refers to f16_1.o(.constdata) for acFont16_1_181
    f16_1.o(.constdata) refers to f16_1.o(.constdata) for acFont16_1_182
    f16_1.o(.constdata) refers to f16_1.o(.constdata) for acFont16_1_183
    f16_1.o(.constdata) refers to f16_1.o(.constdata) for acFont16_1_184
    f16_1.o(.constdata) refers to f16_1.o(.constdata) for acFont16_1_185
    f16_1.o(.constdata) refers to f16_1.o(.constdata) for acFont16_1_186
    f16_1.o(.constdata) refers to f16_1.o(.constdata) for acFont16_1_187
    f16_1.o(.constdata) refers to f16_1.o(.constdata) for acFont16_1_188
    f16_1.o(.constdata) refers to f16_1.o(.constdata) for acFont16_1_189
    f16_1.o(.constdata) refers to f16_1.o(.constdata) for acFont16_1_190
    f16_1.o(.constdata) refers to f16_1.o(.constdata) for acFont16_1_191
    f16_1.o(.constdata) refers to f16_1.o(.constdata) for acFont16_1_192
    f16_1.o(.constdata) refers to f16_1.o(.constdata) for acFont16_1_193
    f16_1.o(.constdata) refers to f16_1.o(.constdata) for acFont16_1_194
    f16_1.o(.constdata) refers to f16_1.o(.constdata) for acFont16_1_195
    f16_1.o(.constdata) refers to f16_1.o(.constdata) for acFont16_1_196
    f16_1.o(.constdata) refers to f16_1.o(.constdata) for acFont16_1_197
    f16_1.o(.constdata) refers to f16_1.o(.constdata) for acFont16_1_198
    f16_1.o(.constdata) refers to f16_1.o(.constdata) for acFont16_1_199
    f16_1.o(.constdata) refers to f16_1.o(.constdata) for acFont16_1_200
    f16_1.o(.constdata) refers to f16_1.o(.constdata) for acFont16_1_201
    f16_1.o(.constdata) refers to f16_1.o(.constdata) for acFont16_1_202
    f16_1.o(.constdata) refers to f16_1.o(.constdata) for acFont16_1_203
    f16_1.o(.constdata) refers to f16_1.o(.constdata) for acFont16_1_204
    f16_1.o(.constdata) refers to f16_1.o(.constdata) for acFont16_1_205
    f16_1.o(.constdata) refers to f16_1.o(.constdata) for acFont16_1_206
    f16_1.o(.constdata) refers to f16_1.o(.constdata) for acFont16_1_207
    f16_1.o(.constdata) refers to f16_1.o(.constdata) for acFont16_1_208
    f16_1.o(.constdata) refers to f16_1.o(.constdata) for acFont16_1_209
    f16_1.o(.constdata) refers to f16_1.o(.constdata) for acFont16_1_210
    f16_1.o(.constdata) refers to f16_1.o(.constdata) for acFont16_1_211
    f16_1.o(.constdata) refers to f16_1.o(.constdata) for acFont16_1_212
    f16_1.o(.constdata) refers to f16_1.o(.constdata) for acFont16_1_213
    f16_1.o(.constdata) refers to f16_1.o(.constdata) for acFont16_1_214
    f16_1.o(.constdata) refers to f16_1.o(.constdata) for acFont16_1_215
    f16_1.o(.constdata) refers to f16_1.o(.constdata) for acFont16_1_216
    f16_1.o(.constdata) refers to f16_1.o(.constdata) for acFont16_1_217
    f16_1.o(.constdata) refers to f16_1.o(.constdata) for acFont16_1_218
    f16_1.o(.constdata) refers to f16_1.o(.constdata) for acFont16_1_219
    f16_1.o(.constdata) refers to f16_1.o(.constdata) for acFont16_1_220
    f16_1.o(.constdata) refers to f16_1.o(.constdata) for acFont16_1_221
    f16_1.o(.constdata) refers to f16_1.o(.constdata) for acFont16_1_222
    f16_1.o(.constdata) refers to f16_1.o(.constdata) for acFont16_1_223
    f16_1.o(.constdata) refers to f16_1.o(.constdata) for acFont16_1_224
    f16_1.o(.constdata) refers to f16_1.o(.constdata) for acFont16_1_225
    f16_1.o(.constdata) refers to f16_1.o(.constdata) for acFont16_1_226
    f16_1.o(.constdata) refers to f16_1.o(.constdata) for acFont16_1_227
    f16_1.o(.constdata) refers to f16_1.o(.constdata) for acFont16_1_228
    f16_1.o(.constdata) refers to f16_1.o(.constdata) for acFont16_1_229
    f16_1.o(.constdata) refers to f16_1.o(.constdata) for acFont16_1_230
    f16_1.o(.constdata) refers to f16_1.o(.constdata) for acFont16_1_231
    f16_1.o(.constdata) refers to f16_1.o(.constdata) for acFont16_1_232
    f16_1.o(.constdata) refers to f16_1.o(.constdata) for acFont16_1_233
    f16_1.o(.constdata) refers to f16_1.o(.constdata) for acFont16_1_234
    f16_1.o(.constdata) refers to f16_1.o(.constdata) for acFont16_1_235
    f16_1.o(.constdata) refers to f16_1.o(.constdata) for acFont16_1_236
    f16_1.o(.constdata) refers to f16_1.o(.constdata) for acFont16_1_237
    f16_1.o(.constdata) refers to f16_1.o(.constdata) for acFont16_1_238
    f16_1.o(.constdata) refers to f16_1.o(.constdata) for acFont16_1_239
    f16_1.o(.constdata) refers to f16_1.o(.constdata) for acFont16_1_240
    f16_1.o(.constdata) refers to f16_1.o(.constdata) for acFont16_1_241
    f16_1.o(.constdata) refers to f16_1.o(.constdata) for acFont16_1_242
    f16_1.o(.constdata) refers to f16_1.o(.constdata) for acFont16_1_243
    f16_1.o(.constdata) refers to f16_1.o(.constdata) for acFont16_1_244
    f16_1.o(.constdata) refers to f16_1.o(.constdata) for acFont16_1_245
    f16_1.o(.constdata) refers to f16_1.o(.constdata) for acFont16_1_246
    f16_1.o(.constdata) refers to f16_1.o(.constdata) for acFont16_1_247
    f16_1.o(.constdata) refers to f16_1.o(.constdata) for acFont16_1_248
    f16_1.o(.constdata) refers to f16_1.o(.constdata) for acFont16_1_249
    f16_1.o(.constdata) refers to f16_1.o(.constdata) for acFont16_1_250
    f16_1.o(.constdata) refers to f16_1.o(.constdata) for acFont16_1_251
    f16_1.o(.constdata) refers to f16_1.o(.constdata) for acFont16_1_252
    f16_1.o(.constdata) refers to f16_1.o(.constdata) for acFont16_1_253
    f16_1.o(.constdata) refers to f16_1.o(.constdata) for acFont16_1_254
    f16_1.o(.constdata) refers to f16_1.o(.constdata) for acFont16_1_255
    f16_1.o(.constdata) refers to f16_1.o(.constdata) for GUI_CharInfo_Font16_1
    f16_1.o(.constdata) refers to f16_ascii.o(.constdata) for GUI_Font16ASCIIProp1
    f16_1.o(.constdata) refers to gui_charp.o(i.GUIPROP_DispChar) for GUIPROP_DispChar
    f16_1.o(.constdata) refers to gui_charp.o(i.GUIPROP_GetCharDistX) for GUIPROP_GetCharDistX
    f16_1.o(.constdata) refers to gui_charp.o(i.GUIPROP_GetFontInfo) for GUIPROP_GetFontInfo
    f16_1.o(.constdata) refers to gui_charp.o(i.GUIPROP_IsInFont) for GUIPROP_IsInFont
    f16_1.o(.constdata) refers to f16_1.o(.constdata) for GUI_Font16_1_FontProp1
    f16_ascii.o(.constdata) refers to f16_ascii.o(.constdata) for acFont16ASCII_32
    f16_ascii.o(.constdata) refers to f16_ascii.o(.constdata) for acFont16ASCII_33
    f16_ascii.o(.constdata) refers to f16_ascii.o(.constdata) for acFont16ASCII_34
    f16_ascii.o(.constdata) refers to f16_ascii.o(.constdata) for acFont16ASCII_35
    f16_ascii.o(.constdata) refers to f16_ascii.o(.constdata) for acFont16ASCII_36
    f16_ascii.o(.constdata) refers to f16_ascii.o(.constdata) for acFont16ASCII_37
    f16_ascii.o(.constdata) refers to f16_ascii.o(.constdata) for acFont16ASCII_38
    f16_ascii.o(.constdata) refers to f16_ascii.o(.constdata) for acFont16ASCII_39
    f16_ascii.o(.constdata) refers to f16_ascii.o(.constdata) for acFont16ASCII_40
    f16_ascii.o(.constdata) refers to f16_ascii.o(.constdata) for acFont16ASCII_41
    f16_ascii.o(.constdata) refers to f16_ascii.o(.constdata) for acFont16ASCII_42
    f16_ascii.o(.constdata) refers to f16_ascii.o(.constdata) for acFont16ASCII_43
    f16_ascii.o(.constdata) refers to f16_ascii.o(.constdata) for acFont16ASCII_44
    f16_ascii.o(.constdata) refers to f16_ascii.o(.constdata) for acFont16ASCII_45
    f16_ascii.o(.constdata) refers to f16_ascii.o(.constdata) for acFont16ASCII_46
    f16_ascii.o(.constdata) refers to f16_ascii.o(.constdata) for acFont16ASCII_47
    f16_ascii.o(.constdata) refers to f16_ascii.o(.constdata) for acFont16ASCII_48
    f16_ascii.o(.constdata) refers to f16_ascii.o(.constdata) for acFont16ASCII_49
    f16_ascii.o(.constdata) refers to f16_ascii.o(.constdata) for acFont16ASCII_50
    f16_ascii.o(.constdata) refers to f16_ascii.o(.constdata) for acFont16ASCII_51
    f16_ascii.o(.constdata) refers to f16_ascii.o(.constdata) for acFont16ASCII_52
    f16_ascii.o(.constdata) refers to f16_ascii.o(.constdata) for acFont16ASCII_53
    f16_ascii.o(.constdata) refers to f16_ascii.o(.constdata) for acFont16ASCII_54
    f16_ascii.o(.constdata) refers to f16_ascii.o(.constdata) for acFont16ASCII_55
    f16_ascii.o(.constdata) refers to f16_ascii.o(.constdata) for acFont16ASCII_56
    f16_ascii.o(.constdata) refers to f16_ascii.o(.constdata) for acFont16ASCII_57
    f16_ascii.o(.constdata) refers to f16_ascii.o(.constdata) for acFont16ASCII_58
    f16_ascii.o(.constdata) refers to f16_ascii.o(.constdata) for acFont16ASCII_59
    f16_ascii.o(.constdata) refers to f16_ascii.o(.constdata) for acFont16ASCII_60
    f16_ascii.o(.constdata) refers to f16_ascii.o(.constdata) for acFont16ASCII_61
    f16_ascii.o(.constdata) refers to f16_ascii.o(.constdata) for acFont16ASCII_62
    f16_ascii.o(.constdata) refers to f16_ascii.o(.constdata) for acFont16ASCII_63
    f16_ascii.o(.constdata) refers to f16_ascii.o(.constdata) for acFont16ASCII_64
    f16_ascii.o(.constdata) refers to f16_ascii.o(.constdata) for acFont16ASCII_65
    f16_ascii.o(.constdata) refers to f16_ascii.o(.constdata) for acFont16ASCII_66
    f16_ascii.o(.constdata) refers to f16_ascii.o(.constdata) for acFont16ASCII_67
    f16_ascii.o(.constdata) refers to f16_ascii.o(.constdata) for acFont16ASCII_68
    f16_ascii.o(.constdata) refers to f16_ascii.o(.constdata) for acFont16ASCII_69
    f16_ascii.o(.constdata) refers to f16_ascii.o(.constdata) for acFont16ASCII_70
    f16_ascii.o(.constdata) refers to f16_ascii.o(.constdata) for acFont16ASCII_71
    f16_ascii.o(.constdata) refers to f16_ascii.o(.constdata) for acFont16ASCII_72
    f16_ascii.o(.constdata) refers to f16_ascii.o(.constdata) for acFont16ASCII_73
    f16_ascii.o(.constdata) refers to f16_ascii.o(.constdata) for acFont16ASCII_74
    f16_ascii.o(.constdata) refers to f16_ascii.o(.constdata) for acFont16ASCII_75
    f16_ascii.o(.constdata) refers to f16_ascii.o(.constdata) for acFont16ASCII_76
    f16_ascii.o(.constdata) refers to f16_ascii.o(.constdata) for acFont16ASCII_77
    f16_ascii.o(.constdata) refers to f16_ascii.o(.constdata) for acFont16ASCII_78
    f16_ascii.o(.constdata) refers to f16_ascii.o(.constdata) for acFont16ASCII_79
    f16_ascii.o(.constdata) refers to f16_ascii.o(.constdata) for acFont16ASCII_80
    f16_ascii.o(.constdata) refers to f16_ascii.o(.constdata) for acFont16ASCII_81
    f16_ascii.o(.constdata) refers to f16_ascii.o(.constdata) for acFont16ASCII_82
    f16_ascii.o(.constdata) refers to f16_ascii.o(.constdata) for acFont16ASCII_83
    f16_ascii.o(.constdata) refers to f16_ascii.o(.constdata) for acFont16ASCII_84
    f16_ascii.o(.constdata) refers to f16_ascii.o(.constdata) for acFont16ASCII_85
    f16_ascii.o(.constdata) refers to f16_ascii.o(.constdata) for acFont16ASCII_86
    f16_ascii.o(.constdata) refers to f16_ascii.o(.constdata) for acFont16ASCII_87
    f16_ascii.o(.constdata) refers to f16_ascii.o(.constdata) for acFont16ASCII_88
    f16_ascii.o(.constdata) refers to f16_ascii.o(.constdata) for acFont16ASCII_89
    f16_ascii.o(.constdata) refers to f16_ascii.o(.constdata) for acFont16ASCII_90
    f16_ascii.o(.constdata) refers to f16_ascii.o(.constdata) for acFont16ASCII_91
    f16_ascii.o(.constdata) refers to f16_ascii.o(.constdata) for acFont16ASCII_92
    f16_ascii.o(.constdata) refers to f16_ascii.o(.constdata) for acFont16ASCII_93
    f16_ascii.o(.constdata) refers to f16_ascii.o(.constdata) for acFont16ASCII_94
    f16_ascii.o(.constdata) refers to f16_ascii.o(.constdata) for acFont16ASCII_95
    f16_ascii.o(.constdata) refers to f16_ascii.o(.constdata) for acFont16ASCII_96
    f16_ascii.o(.constdata) refers to f16_ascii.o(.constdata) for acFont16ASCII_97
    f16_ascii.o(.constdata) refers to f16_ascii.o(.constdata) for acFont16ASCII_98
    f16_ascii.o(.constdata) refers to f16_ascii.o(.constdata) for acFont16ASCII_99
    f16_ascii.o(.constdata) refers to f16_ascii.o(.constdata) for acFont16ASCII_100
    f16_ascii.o(.constdata) refers to f16_ascii.o(.constdata) for acFont16ASCII_101
    f16_ascii.o(.constdata) refers to f16_ascii.o(.constdata) for acFont16ASCII_102
    f16_ascii.o(.constdata) refers to f16_ascii.o(.constdata) for acFont16ASCII_103
    f16_ascii.o(.constdata) refers to f16_ascii.o(.constdata) for acFont16ASCII_104
    f16_ascii.o(.constdata) refers to f16_ascii.o(.constdata) for acFont16ASCII_105
    f16_ascii.o(.constdata) refers to f16_ascii.o(.constdata) for acFont16ASCII_106
    f16_ascii.o(.constdata) refers to f16_ascii.o(.constdata) for acFont16ASCII_107
    f16_ascii.o(.constdata) refers to f16_ascii.o(.constdata) for acFont16ASCII_108
    f16_ascii.o(.constdata) refers to f16_ascii.o(.constdata) for acFont16ASCII_109
    f16_ascii.o(.constdata) refers to f16_ascii.o(.constdata) for acFont16ASCII_110
    f16_ascii.o(.constdata) refers to f16_ascii.o(.constdata) for acFont16ASCII_111
    f16_ascii.o(.constdata) refers to f16_ascii.o(.constdata) for acFont16ASCII_112
    f16_ascii.o(.constdata) refers to f16_ascii.o(.constdata) for acFont16ASCII_113
    f16_ascii.o(.constdata) refers to f16_ascii.o(.constdata) for acFont16ASCII_114
    f16_ascii.o(.constdata) refers to f16_ascii.o(.constdata) for acFont16ASCII_115
    f16_ascii.o(.constdata) refers to f16_ascii.o(.constdata) for acFont16ASCII_116
    f16_ascii.o(.constdata) refers to f16_ascii.o(.constdata) for acFont16ASCII_117
    f16_ascii.o(.constdata) refers to f16_ascii.o(.constdata) for acFont16ASCII_118
    f16_ascii.o(.constdata) refers to f16_ascii.o(.constdata) for acFont16ASCII_119
    f16_ascii.o(.constdata) refers to f16_ascii.o(.constdata) for acFont16ASCII_120
    f16_ascii.o(.constdata) refers to f16_ascii.o(.constdata) for acFont16ASCII_121
    f16_ascii.o(.constdata) refers to f16_ascii.o(.constdata) for acFont16ASCII_122
    f16_ascii.o(.constdata) refers to f16_ascii.o(.constdata) for acFont16ASCII_123
    f16_ascii.o(.constdata) refers to f16_ascii.o(.constdata) for acFont16ASCII_124
    f16_ascii.o(.constdata) refers to f16_ascii.o(.constdata) for acFont16ASCII_125
    f16_ascii.o(.constdata) refers to f16_ascii.o(.constdata) for acFont16ASCII_126
    f16_ascii.o(.constdata) refers to f16_ascii.o(.constdata) for GUI_CharInfo_Font16ASCII
    f16_ascii.o(.constdata) refers to gui_charp.o(i.GUIPROP_DispChar) for GUIPROP_DispChar
    f16_ascii.o(.constdata) refers to gui_charp.o(i.GUIPROP_GetCharDistX) for GUIPROP_GetCharDistX
    f16_ascii.o(.constdata) refers to gui_charp.o(i.GUIPROP_GetFontInfo) for GUIPROP_GetFontInfo
    f16_ascii.o(.constdata) refers to gui_charp.o(i.GUIPROP_IsInFont) for GUIPROP_IsInFont
    f16_ascii.o(.constdata) refers to f16_ascii.o(.constdata) for GUI_Font16ASCIIProp1
    f24_1.o(.constdata) refers to f24_1.o(.constdata) for acFont24_1_00A0
    f24_1.o(.constdata) refers to f24_1.o(.constdata) for acFont24_1_00A1
    f24_1.o(.constdata) refers to f24_1.o(.constdata) for acFont24_1_00A2
    f24_1.o(.constdata) refers to f24_1.o(.constdata) for acFont24_1_00A3
    f24_1.o(.constdata) refers to f24_1.o(.constdata) for acFont24_1_00A4
    f24_1.o(.constdata) refers to f24_1.o(.constdata) for acFont24_1_00A5
    f24_1.o(.constdata) refers to f24_1.o(.constdata) for acFont24_1_00A6
    f24_1.o(.constdata) refers to f24_1.o(.constdata) for acFont24_1_00A7
    f24_1.o(.constdata) refers to f24_1.o(.constdata) for acFont24_1_00A8
    f24_1.o(.constdata) refers to f24_1.o(.constdata) for acFont24_1_00A9
    f24_1.o(.constdata) refers to f24_1.o(.constdata) for acFont24_1_00AA
    f24_1.o(.constdata) refers to f24_1.o(.constdata) for acFont24_1_00AB
    f24_1.o(.constdata) refers to f24_1.o(.constdata) for acFont24_1_00AC
    f24_1.o(.constdata) refers to f24_1.o(.constdata) for acFont24_1_00AD
    f24_1.o(.constdata) refers to f24_1.o(.constdata) for acFont24_1_00AE
    f24_1.o(.constdata) refers to f24_1.o(.constdata) for acFont24_1_00AF
    f24_1.o(.constdata) refers to f24_1.o(.constdata) for acFont24_1_00B0
    f24_1.o(.constdata) refers to f24_1.o(.constdata) for acFont24_1_00B1
    f24_1.o(.constdata) refers to f24_1.o(.constdata) for acFont24_1_00B2
    f24_1.o(.constdata) refers to f24_1.o(.constdata) for acFont24_1_00B3
    f24_1.o(.constdata) refers to f24_1.o(.constdata) for acFont24_1_00B4
    f24_1.o(.constdata) refers to f24_1.o(.constdata) for acFont24_1_00B5
    f24_1.o(.constdata) refers to f24_1.o(.constdata) for acFont24_1_00B6
    f24_1.o(.constdata) refers to f24_1.o(.constdata) for acFont24_1_00B7
    f24_1.o(.constdata) refers to f24_1.o(.constdata) for acFont24_1_00B8
    f24_1.o(.constdata) refers to f24_1.o(.constdata) for acFont24_1_00B9
    f24_1.o(.constdata) refers to f24_1.o(.constdata) for acFont24_1_00BA
    f24_1.o(.constdata) refers to f24_1.o(.constdata) for acFont24_1_00BB
    f24_1.o(.constdata) refers to f24_1.o(.constdata) for acFont24_1_00BC
    f24_1.o(.constdata) refers to f24_1.o(.constdata) for acFont24_1_00BD
    f24_1.o(.constdata) refers to f24_1.o(.constdata) for acFont24_1_00BE
    f24_1.o(.constdata) refers to f24_1.o(.constdata) for acFont24_1_00BF
    f24_1.o(.constdata) refers to f24_1.o(.constdata) for acFont24_1_00C0
    f24_1.o(.constdata) refers to f24_1.o(.constdata) for acFont24_1_00C1
    f24_1.o(.constdata) refers to f24_1.o(.constdata) for acFont24_1_00C2
    f24_1.o(.constdata) refers to f24_1.o(.constdata) for acFont24_1_00C3
    f24_1.o(.constdata) refers to f24_1.o(.constdata) for acFont24_1_00C4
    f24_1.o(.constdata) refers to f24_1.o(.constdata) for acFont24_1_00C5
    f24_1.o(.constdata) refers to f24_1.o(.constdata) for acFont24_1_00C6
    f24_1.o(.constdata) refers to f24_1.o(.constdata) for acFont24_1_00C7
    f24_1.o(.constdata) refers to f24_1.o(.constdata) for acFont24_1_00C8
    f24_1.o(.constdata) refers to f24_1.o(.constdata) for acFont24_1_00C9
    f24_1.o(.constdata) refers to f24_1.o(.constdata) for acFont24_1_00CA
    f24_1.o(.constdata) refers to f24_1.o(.constdata) for acFont24_1_00CB
    f24_1.o(.constdata) refers to f24_1.o(.constdata) for acFont24_1_00CC
    f24_1.o(.constdata) refers to f24_1.o(.constdata) for acFont24_1_00CD
    f24_1.o(.constdata) refers to f24_1.o(.constdata) for acFont24_1_00CE
    f24_1.o(.constdata) refers to f24_1.o(.constdata) for acFont24_1_00CF
    f24_1.o(.constdata) refers to f24_1.o(.constdata) for acFont24_1_00D0
    f24_1.o(.constdata) refers to f24_1.o(.constdata) for acFont24_1_00D1
    f24_1.o(.constdata) refers to f24_1.o(.constdata) for acFont24_1_00D2
    f24_1.o(.constdata) refers to f24_1.o(.constdata) for acFont24_1_00D3
    f24_1.o(.constdata) refers to f24_1.o(.constdata) for acFont24_1_00D4
    f24_1.o(.constdata) refers to f24_1.o(.constdata) for acFont24_1_00D5
    f24_1.o(.constdata) refers to f24_1.o(.constdata) for acFont24_1_00D6
    f24_1.o(.constdata) refers to f24_1.o(.constdata) for acFont24_1_00D7
    f24_1.o(.constdata) refers to f24_1.o(.constdata) for acFont24_1_00D8
    f24_1.o(.constdata) refers to f24_1.o(.constdata) for acFont24_1_00D9
    f24_1.o(.constdata) refers to f24_1.o(.constdata) for acFont24_1_00DA
    f24_1.o(.constdata) refers to f24_1.o(.constdata) for acFont24_1_00DB
    f24_1.o(.constdata) refers to f24_1.o(.constdata) for acFont24_1_00DC
    f24_1.o(.constdata) refers to f24_1.o(.constdata) for acFont24_1_00DD
    f24_1.o(.constdata) refers to f24_1.o(.constdata) for acFont24_1_00DE
    f24_1.o(.constdata) refers to f24_1.o(.constdata) for acFont24_1_00DF
    f24_1.o(.constdata) refers to f24_1.o(.constdata) for acFont24_1_00E0
    f24_1.o(.constdata) refers to f24_1.o(.constdata) for acFont24_1_00E1
    f24_1.o(.constdata) refers to f24_1.o(.constdata) for acFont24_1_00E2
    f24_1.o(.constdata) refers to f24_1.o(.constdata) for acFont24_1_00E3
    f24_1.o(.constdata) refers to f24_1.o(.constdata) for acFont24_1_00E4
    f24_1.o(.constdata) refers to f24_1.o(.constdata) for acFont24_1_00E5
    f24_1.o(.constdata) refers to f24_1.o(.constdata) for acFont24_1_00E6
    f24_1.o(.constdata) refers to f24_1.o(.constdata) for acFont24_1_00E7
    f24_1.o(.constdata) refers to f24_1.o(.constdata) for acFont24_1_00E8
    f24_1.o(.constdata) refers to f24_1.o(.constdata) for acFont24_1_00E9
    f24_1.o(.constdata) refers to f24_1.o(.constdata) for acFont24_1_00EA
    f24_1.o(.constdata) refers to f24_1.o(.constdata) for acFont24_1_00EB
    f24_1.o(.constdata) refers to f24_1.o(.constdata) for acFont24_1_00EC
    f24_1.o(.constdata) refers to f24_1.o(.constdata) for acFont24_1_00ED
    f24_1.o(.constdata) refers to f24_1.o(.constdata) for acFont24_1_00EE
    f24_1.o(.constdata) refers to f24_1.o(.constdata) for acFont24_1_00EF
    f24_1.o(.constdata) refers to f24_1.o(.constdata) for acFont24_1_00F0
    f24_1.o(.constdata) refers to f24_1.o(.constdata) for acFont24_1_00F1
    f24_1.o(.constdata) refers to f24_1.o(.constdata) for acFont24_1_00F2
    f24_1.o(.constdata) refers to f24_1.o(.constdata) for acFont24_1_00F3
    f24_1.o(.constdata) refers to f24_1.o(.constdata) for acFont24_1_00F4
    f24_1.o(.constdata) refers to f24_1.o(.constdata) for acFont24_1_00F5
    f24_1.o(.constdata) refers to f24_1.o(.constdata) for acFont24_1_00F6
    f24_1.o(.constdata) refers to f24_1.o(.constdata) for acFont24_1_00F7
    f24_1.o(.constdata) refers to f24_1.o(.constdata) for acFont24_1_00F8
    f24_1.o(.constdata) refers to f24_1.o(.constdata) for acFont24_1_00F9
    f24_1.o(.constdata) refers to f24_1.o(.constdata) for acFont24_1_00FA
    f24_1.o(.constdata) refers to f24_1.o(.constdata) for acFont24_1_00FB
    f24_1.o(.constdata) refers to f24_1.o(.constdata) for acFont24_1_00FC
    f24_1.o(.constdata) refers to f24_1.o(.constdata) for acFont24_1_00FD
    f24_1.o(.constdata) refers to f24_1.o(.constdata) for acFont24_1_00FE
    f24_1.o(.constdata) refers to f24_1.o(.constdata) for acFont24_1_00FF
    f24_1.o(.constdata) refers to f24_1.o(.constdata) for GUI_Font24_1_CharInfo
    f24_1.o(.constdata) refers to f24_ascii.o(.constdata) for GUI_Font24_ASCII_Prop1
    f24_1.o(.constdata) refers to gui_charp.o(i.GUIPROP_DispChar) for GUIPROP_DispChar
    f24_1.o(.constdata) refers to gui_charp.o(i.GUIPROP_GetCharDistX) for GUIPROP_GetCharDistX
    f24_1.o(.constdata) refers to gui_charp.o(i.GUIPROP_GetFontInfo) for GUIPROP_GetFontInfo
    f24_1.o(.constdata) refers to gui_charp.o(i.GUIPROP_IsInFont) for GUIPROP_IsInFont
    f24_1.o(.constdata) refers to f24_1.o(.constdata) for GUI_Font24_1_Prop1
    f24_ascii.o(.constdata) refers to f24_ascii.o(.constdata) for acFont24_ASCII_0020
    f24_ascii.o(.constdata) refers to f24_ascii.o(.constdata) for acFont24_ASCII_0021
    f24_ascii.o(.constdata) refers to f24_ascii.o(.constdata) for acFont24_ASCII_0022
    f24_ascii.o(.constdata) refers to f24_ascii.o(.constdata) for acFont24_ASCII_0023
    f24_ascii.o(.constdata) refers to f24_ascii.o(.constdata) for acFont24_ASCII_0024
    f24_ascii.o(.constdata) refers to f24_ascii.o(.constdata) for acFont24_ASCII_0025
    f24_ascii.o(.constdata) refers to f24_ascii.o(.constdata) for acFont24_ASCII_0026
    f24_ascii.o(.constdata) refers to f24_ascii.o(.constdata) for acFont24_ASCII_0027
    f24_ascii.o(.constdata) refers to f24_ascii.o(.constdata) for acFont24_ASCII_0028
    f24_ascii.o(.constdata) refers to f24_ascii.o(.constdata) for acFont24_ASCII_0029
    f24_ascii.o(.constdata) refers to f24_ascii.o(.constdata) for acFont24_ASCII_002A
    f24_ascii.o(.constdata) refers to f24_ascii.o(.constdata) for acFont24_ASCII_002B
    f24_ascii.o(.constdata) refers to f24_ascii.o(.constdata) for acFont24_ASCII_002C
    f24_ascii.o(.constdata) refers to f24_ascii.o(.constdata) for acFont24_ASCII_002D
    f24_ascii.o(.constdata) refers to f24_ascii.o(.constdata) for acFont24_ASCII_002E
    f24_ascii.o(.constdata) refers to f24_ascii.o(.constdata) for acFont24_ASCII_002F
    f24_ascii.o(.constdata) refers to f24_ascii.o(.constdata) for acFont24_ASCII_0030
    f24_ascii.o(.constdata) refers to f24_ascii.o(.constdata) for acFont24_ASCII_0031
    f24_ascii.o(.constdata) refers to f24_ascii.o(.constdata) for acFont24_ASCII_0032
    f24_ascii.o(.constdata) refers to f24_ascii.o(.constdata) for acFont24_ASCII_0033
    f24_ascii.o(.constdata) refers to f24_ascii.o(.constdata) for acFont24_ASCII_0034
    f24_ascii.o(.constdata) refers to f24_ascii.o(.constdata) for acFont24_ASCII_0035
    f24_ascii.o(.constdata) refers to f24_ascii.o(.constdata) for acFont24_ASCII_0036
    f24_ascii.o(.constdata) refers to f24_ascii.o(.constdata) for acFont24_ASCII_0037
    f24_ascii.o(.constdata) refers to f24_ascii.o(.constdata) for acFont24_ASCII_0038
    f24_ascii.o(.constdata) refers to f24_ascii.o(.constdata) for acFont24_ASCII_0039
    f24_ascii.o(.constdata) refers to f24_ascii.o(.constdata) for acFont24_ASCII_003A
    f24_ascii.o(.constdata) refers to f24_ascii.o(.constdata) for acFont24_ASCII_003B
    f24_ascii.o(.constdata) refers to f24_ascii.o(.constdata) for acFont24_ASCII_003C
    f24_ascii.o(.constdata) refers to f24_ascii.o(.constdata) for acFont24_ASCII_003D
    f24_ascii.o(.constdata) refers to f24_ascii.o(.constdata) for acFont24_ASCII_003E
    f24_ascii.o(.constdata) refers to f24_ascii.o(.constdata) for acFont24_ASCII_003F
    f24_ascii.o(.constdata) refers to f24_ascii.o(.constdata) for acFont24_ASCII_0040
    f24_ascii.o(.constdata) refers to f24_ascii.o(.constdata) for acFont24_ASCII_0041
    f24_ascii.o(.constdata) refers to f24_ascii.o(.constdata) for acFont24_ASCII_0042
    f24_ascii.o(.constdata) refers to f24_ascii.o(.constdata) for acFont24_ASCII_0043
    f24_ascii.o(.constdata) refers to f24_ascii.o(.constdata) for acFont24_ASCII_0044
    f24_ascii.o(.constdata) refers to f24_ascii.o(.constdata) for acFont24_ASCII_0045
    f24_ascii.o(.constdata) refers to f24_ascii.o(.constdata) for acFont24_ASCII_0046
    f24_ascii.o(.constdata) refers to f24_ascii.o(.constdata) for acFont24_ASCII_0047
    f24_ascii.o(.constdata) refers to f24_ascii.o(.constdata) for acFont24_ASCII_0048
    f24_ascii.o(.constdata) refers to f24_ascii.o(.constdata) for acFont24_ASCII_0049
    f24_ascii.o(.constdata) refers to f24_ascii.o(.constdata) for acFont24_ASCII_004A
    f24_ascii.o(.constdata) refers to f24_ascii.o(.constdata) for acFont24_ASCII_004B
    f24_ascii.o(.constdata) refers to f24_ascii.o(.constdata) for acFont24_ASCII_004C
    f24_ascii.o(.constdata) refers to f24_ascii.o(.constdata) for acFont24_ASCII_004D
    f24_ascii.o(.constdata) refers to f24_ascii.o(.constdata) for acFont24_ASCII_004E
    f24_ascii.o(.constdata) refers to f24_ascii.o(.constdata) for acFont24_ASCII_004F
    f24_ascii.o(.constdata) refers to f24_ascii.o(.constdata) for acFont24_ASCII_0050
    f24_ascii.o(.constdata) refers to f24_ascii.o(.constdata) for acFont24_ASCII_0051
    f24_ascii.o(.constdata) refers to f24_ascii.o(.constdata) for acFont24_ASCII_0052
    f24_ascii.o(.constdata) refers to f24_ascii.o(.constdata) for acFont24_ASCII_0053
    f24_ascii.o(.constdata) refers to f24_ascii.o(.constdata) for acFont24_ASCII_0054
    f24_ascii.o(.constdata) refers to f24_ascii.o(.constdata) for acFont24_ASCII_0055
    f24_ascii.o(.constdata) refers to f24_ascii.o(.constdata) for acFont24_ASCII_0056
    f24_ascii.o(.constdata) refers to f24_ascii.o(.constdata) for acFont24_ASCII_0057
    f24_ascii.o(.constdata) refers to f24_ascii.o(.constdata) for acFont24_ASCII_0058
    f24_ascii.o(.constdata) refers to f24_ascii.o(.constdata) for acFont24_ASCII_0059
    f24_ascii.o(.constdata) refers to f24_ascii.o(.constdata) for acFont24_ASCII_005A
    f24_ascii.o(.constdata) refers to f24_ascii.o(.constdata) for acFont24_ASCII_005B
    f24_ascii.o(.constdata) refers to f24_ascii.o(.constdata) for acFont24_ASCII_005C
    f24_ascii.o(.constdata) refers to f24_ascii.o(.constdata) for acFont24_ASCII_005D
    f24_ascii.o(.constdata) refers to f24_ascii.o(.constdata) for acFont24_ASCII_005E
    f24_ascii.o(.constdata) refers to f24_ascii.o(.constdata) for acFont24_ASCII_005F
    f24_ascii.o(.constdata) refers to f24_ascii.o(.constdata) for acFont24_ASCII_0060
    f24_ascii.o(.constdata) refers to f24_ascii.o(.constdata) for acFont24_ASCII_0061
    f24_ascii.o(.constdata) refers to f24_ascii.o(.constdata) for acFont24_ASCII_0062
    f24_ascii.o(.constdata) refers to f24_ascii.o(.constdata) for acFont24_ASCII_0063
    f24_ascii.o(.constdata) refers to f24_ascii.o(.constdata) for acFont24_ASCII_0064
    f24_ascii.o(.constdata) refers to f24_ascii.o(.constdata) for acFont24_ASCII_0065
    f24_ascii.o(.constdata) refers to f24_ascii.o(.constdata) for acFont24_ASCII_0066
    f24_ascii.o(.constdata) refers to f24_ascii.o(.constdata) for acFont24_ASCII_0067
    f24_ascii.o(.constdata) refers to f24_ascii.o(.constdata) for acFont24_ASCII_0068
    f24_ascii.o(.constdata) refers to f24_ascii.o(.constdata) for acFont24_ASCII_0069
    f24_ascii.o(.constdata) refers to f24_ascii.o(.constdata) for acFont24_ASCII_006A
    f24_ascii.o(.constdata) refers to f24_ascii.o(.constdata) for acFont24_ASCII_006B
    f24_ascii.o(.constdata) refers to f24_ascii.o(.constdata) for acFont24_ASCII_006C
    f24_ascii.o(.constdata) refers to f24_ascii.o(.constdata) for acFont24_ASCII_006D
    f24_ascii.o(.constdata) refers to f24_ascii.o(.constdata) for acFont24_ASCII_006E
    f24_ascii.o(.constdata) refers to f24_ascii.o(.constdata) for acFont24_ASCII_006F
    f24_ascii.o(.constdata) refers to f24_ascii.o(.constdata) for acFont24_ASCII_0070
    f24_ascii.o(.constdata) refers to f24_ascii.o(.constdata) for acFont24_ASCII_0071
    f24_ascii.o(.constdata) refers to f24_ascii.o(.constdata) for acFont24_ASCII_0072
    f24_ascii.o(.constdata) refers to f24_ascii.o(.constdata) for acFont24_ASCII_0073
    f24_ascii.o(.constdata) refers to f24_ascii.o(.constdata) for acFont24_ASCII_0074
    f24_ascii.o(.constdata) refers to f24_ascii.o(.constdata) for acFont24_ASCII_0075
    f24_ascii.o(.constdata) refers to f24_ascii.o(.constdata) for acFont24_ASCII_0076
    f24_ascii.o(.constdata) refers to f24_ascii.o(.constdata) for acFont24_ASCII_0077
    f24_ascii.o(.constdata) refers to f24_ascii.o(.constdata) for acFont24_ASCII_0078
    f24_ascii.o(.constdata) refers to f24_ascii.o(.constdata) for acFont24_ASCII_0079
    f24_ascii.o(.constdata) refers to f24_ascii.o(.constdata) for acFont24_ASCII_007A
    f24_ascii.o(.constdata) refers to f24_ascii.o(.constdata) for acFont24_ASCII_007B
    f24_ascii.o(.constdata) refers to f24_ascii.o(.constdata) for acFont24_ASCII_007C
    f24_ascii.o(.constdata) refers to f24_ascii.o(.constdata) for acFont24_ASCII_007D
    f24_ascii.o(.constdata) refers to f24_ascii.o(.constdata) for acFont24_ASCII_007E
    f24_ascii.o(.constdata) refers to f24_ascii.o(.constdata) for GUI_Font24_ASCII_CharInfo
    f24_ascii.o(.constdata) refers to gui_charp.o(i.GUIPROP_DispChar) for GUIPROP_DispChar
    f24_ascii.o(.constdata) refers to gui_charp.o(i.GUIPROP_GetCharDistX) for GUIPROP_GetCharDistX
    f24_ascii.o(.constdata) refers to gui_charp.o(i.GUIPROP_GetFontInfo) for GUIPROP_GetFontInfo
    f24_ascii.o(.constdata) refers to gui_charp.o(i.GUIPROP_IsInFont) for GUIPROP_IsInFont
    f24_ascii.o(.constdata) refers to f24_ascii.o(.constdata) for GUI_Font24_ASCII_Prop1
    f32_1.o(.constdata) refers to f32_1.o(.constdata) for acFont32_1_00A0
    f32_1.o(.constdata) refers to f32_1.o(.constdata) for acFont32_1_00A1
    f32_1.o(.constdata) refers to f32_1.o(.constdata) for acFont32_1_00A2
    f32_1.o(.constdata) refers to f32_1.o(.constdata) for acFont32_1_00A3
    f32_1.o(.constdata) refers to f32_1.o(.constdata) for acFont32_1_00A4
    f32_1.o(.constdata) refers to f32_1.o(.constdata) for acFont32_1_00A5
    f32_1.o(.constdata) refers to f32_1.o(.constdata) for acFont32_1_00A6
    f32_1.o(.constdata) refers to f32_1.o(.constdata) for acFont32_1_00A7
    f32_1.o(.constdata) refers to f32_1.o(.constdata) for acFont32_1_00A8
    f32_1.o(.constdata) refers to f32_1.o(.constdata) for acFont32_1_00A9
    f32_1.o(.constdata) refers to f32_1.o(.constdata) for acFont32_1_00AA
    f32_1.o(.constdata) refers to f32_1.o(.constdata) for acFont32_1_00AB
    f32_1.o(.constdata) refers to f32_1.o(.constdata) for acFont32_1_00AC
    f32_1.o(.constdata) refers to f32_1.o(.constdata) for acFont32_1_00AD
    f32_1.o(.constdata) refers to f32_1.o(.constdata) for acFont32_1_00AE
    f32_1.o(.constdata) refers to f32_1.o(.constdata) for acFont32_1_00AF
    f32_1.o(.constdata) refers to f32_1.o(.constdata) for acFont32_1_00B0
    f32_1.o(.constdata) refers to f32_1.o(.constdata) for acFont32_1_00B1
    f32_1.o(.constdata) refers to f32_1.o(.constdata) for acFont32_1_00B2
    f32_1.o(.constdata) refers to f32_1.o(.constdata) for acFont32_1_00B3
    f32_1.o(.constdata) refers to f32_1.o(.constdata) for acFont32_1_00B4
    f32_1.o(.constdata) refers to f32_1.o(.constdata) for acFont32_1_00B5
    f32_1.o(.constdata) refers to f32_1.o(.constdata) for acFont32_1_00B6
    f32_1.o(.constdata) refers to f32_1.o(.constdata) for acFont32_1_00B7
    f32_1.o(.constdata) refers to f32_1.o(.constdata) for acFont32_1_00B8
    f32_1.o(.constdata) refers to f32_1.o(.constdata) for acFont32_1_00B9
    f32_1.o(.constdata) refers to f32_1.o(.constdata) for acFont32_1_00BA
    f32_1.o(.constdata) refers to f32_1.o(.constdata) for acFont32_1_00BB
    f32_1.o(.constdata) refers to f32_1.o(.constdata) for acFont32_1_00BC
    f32_1.o(.constdata) refers to f32_1.o(.constdata) for acFont32_1_00BD
    f32_1.o(.constdata) refers to f32_1.o(.constdata) for acFont32_1_00BE
    f32_1.o(.constdata) refers to f32_1.o(.constdata) for acFont32_1_00BF
    f32_1.o(.constdata) refers to f32_1.o(.constdata) for acFont32_1_00C0
    f32_1.o(.constdata) refers to f32_1.o(.constdata) for acFont32_1_00C1
    f32_1.o(.constdata) refers to f32_1.o(.constdata) for acFont32_1_00C2
    f32_1.o(.constdata) refers to f32_1.o(.constdata) for acFont32_1_00C3
    f32_1.o(.constdata) refers to f32_1.o(.constdata) for acFont32_1_00C4
    f32_1.o(.constdata) refers to f32_1.o(.constdata) for acFont32_1_00C5
    f32_1.o(.constdata) refers to f32_1.o(.constdata) for acFont32_1_00C6
    f32_1.o(.constdata) refers to f32_1.o(.constdata) for acFont32_1_00C7
    f32_1.o(.constdata) refers to f32_1.o(.constdata) for acFont32_1_00C8
    f32_1.o(.constdata) refers to f32_1.o(.constdata) for acFont32_1_00C9
    f32_1.o(.constdata) refers to f32_1.o(.constdata) for acFont32_1_00CA
    f32_1.o(.constdata) refers to f32_1.o(.constdata) for acFont32_1_00CB
    f32_1.o(.constdata) refers to f32_1.o(.constdata) for acFont32_1_00CC
    f32_1.o(.constdata) refers to f32_1.o(.constdata) for acFont32_1_00CD
    f32_1.o(.constdata) refers to f32_1.o(.constdata) for acFont32_1_00CE
    f32_1.o(.constdata) refers to f32_1.o(.constdata) for acFont32_1_00CF
    f32_1.o(.constdata) refers to f32_1.o(.constdata) for acFont32_1_00D0
    f32_1.o(.constdata) refers to f32_1.o(.constdata) for acFont32_1_00D1
    f32_1.o(.constdata) refers to f32_1.o(.constdata) for acFont32_1_00D2
    f32_1.o(.constdata) refers to f32_1.o(.constdata) for acFont32_1_00D3
    f32_1.o(.constdata) refers to f32_1.o(.constdata) for acFont32_1_00D4
    f32_1.o(.constdata) refers to f32_1.o(.constdata) for acFont32_1_00D5
    f32_1.o(.constdata) refers to f32_1.o(.constdata) for acFont32_1_00D6
    f32_1.o(.constdata) refers to f32_1.o(.constdata) for acFont32_1_00D7
    f32_1.o(.constdata) refers to f32_1.o(.constdata) for acFont32_1_00D8
    f32_1.o(.constdata) refers to f32_1.o(.constdata) for acFont32_1_00D9
    f32_1.o(.constdata) refers to f32_1.o(.constdata) for acFont32_1_00DA
    f32_1.o(.constdata) refers to f32_1.o(.constdata) for acFont32_1_00DB
    f32_1.o(.constdata) refers to f32_1.o(.constdata) for acFont32_1_00DC
    f32_1.o(.constdata) refers to f32_1.o(.constdata) for acFont32_1_00DD
    f32_1.o(.constdata) refers to f32_1.o(.constdata) for acFont32_1_00DE
    f32_1.o(.constdata) refers to f32_1.o(.constdata) for acFont32_1_00DF
    f32_1.o(.constdata) refers to f32_1.o(.constdata) for acFont32_1_00E0
    f32_1.o(.constdata) refers to f32_1.o(.constdata) for acFont32_1_00E1
    f32_1.o(.constdata) refers to f32_1.o(.constdata) for acFont32_1_00E2
    f32_1.o(.constdata) refers to f32_1.o(.constdata) for acFont32_1_00E3
    f32_1.o(.constdata) refers to f32_1.o(.constdata) for acFont32_1_00E4
    f32_1.o(.constdata) refers to f32_1.o(.constdata) for acFont32_1_00E5
    f32_1.o(.constdata) refers to f32_1.o(.constdata) for acFont32_1_00E6
    f32_1.o(.constdata) refers to f32_1.o(.constdata) for acFont32_1_00E7
    f32_1.o(.constdata) refers to f32_1.o(.constdata) for acFont32_1_00E8
    f32_1.o(.constdata) refers to f32_1.o(.constdata) for acFont32_1_00E9
    f32_1.o(.constdata) refers to f32_1.o(.constdata) for acFont32_1_00EA
    f32_1.o(.constdata) refers to f32_1.o(.constdata) for acFont32_1_00EB
    f32_1.o(.constdata) refers to f32_1.o(.constdata) for acFont32_1_00EC
    f32_1.o(.constdata) refers to f32_1.o(.constdata) for acFont32_1_00ED
    f32_1.o(.constdata) refers to f32_1.o(.constdata) for acFont32_1_00EE
    f32_1.o(.constdata) refers to f32_1.o(.constdata) for acFont32_1_00EF
    f32_1.o(.constdata) refers to f32_1.o(.constdata) for acFont32_1_00F0
    f32_1.o(.constdata) refers to f32_1.o(.constdata) for acFont32_1_00F1
    f32_1.o(.constdata) refers to f32_1.o(.constdata) for acFont32_1_00F2
    f32_1.o(.constdata) refers to f32_1.o(.constdata) for acFont32_1_00F3
    f32_1.o(.constdata) refers to f32_1.o(.constdata) for acFont32_1_00F4
    f32_1.o(.constdata) refers to f32_1.o(.constdata) for acFont32_1_00F5
    f32_1.o(.constdata) refers to f32_1.o(.constdata) for acFont32_1_00F6
    f32_1.o(.constdata) refers to f32_1.o(.constdata) for acFont32_1_00F7
    f32_1.o(.constdata) refers to f32_1.o(.constdata) for acFont32_1_00F8
    f32_1.o(.constdata) refers to f32_1.o(.constdata) for acFont32_1_00F9
    f32_1.o(.constdata) refers to f32_1.o(.constdata) for acFont32_1_00FA
    f32_1.o(.constdata) refers to f32_1.o(.constdata) for acFont32_1_00FB
    f32_1.o(.constdata) refers to f32_1.o(.constdata) for acFont32_1_00FC
    f32_1.o(.constdata) refers to f32_1.o(.constdata) for acFont32_1_00FD
    f32_1.o(.constdata) refers to f32_1.o(.constdata) for acFont32_1_00FE
    f32_1.o(.constdata) refers to f32_1.o(.constdata) for acFont32_1_00FF
    f32_1.o(.constdata) refers to f32_1.o(.constdata) for GUI_Font32_1_CharInfo
    f32_1.o(.constdata) refers to f32_ascii.o(.constdata) for GUI_Font32_ASCII_Prop1
    f32_1.o(.constdata) refers to gui_charp.o(i.GUIPROP_DispChar) for GUIPROP_DispChar
    f32_1.o(.constdata) refers to gui_charp.o(i.GUIPROP_GetCharDistX) for GUIPROP_GetCharDistX
    f32_1.o(.constdata) refers to gui_charp.o(i.GUIPROP_GetFontInfo) for GUIPROP_GetFontInfo
    f32_1.o(.constdata) refers to gui_charp.o(i.GUIPROP_IsInFont) for GUIPROP_IsInFont
    f32_1.o(.constdata) refers to f32_1.o(.constdata) for GUI_Font32_1_Prop1
    f32_ascii.o(.constdata) refers to f32_ascii.o(.constdata) for acFont32_ASCII_0020
    f32_ascii.o(.constdata) refers to f32_ascii.o(.constdata) for acFont32_ASCII_0021
    f32_ascii.o(.constdata) refers to f32_ascii.o(.constdata) for acFont32_ASCII_0022
    f32_ascii.o(.constdata) refers to f32_ascii.o(.constdata) for acFont32_ASCII_0023
    f32_ascii.o(.constdata) refers to f32_ascii.o(.constdata) for acFont32_ASCII_0024
    f32_ascii.o(.constdata) refers to f32_ascii.o(.constdata) for acFont32_ASCII_0025
    f32_ascii.o(.constdata) refers to f32_ascii.o(.constdata) for acFont32_ASCII_0026
    f32_ascii.o(.constdata) refers to f32_ascii.o(.constdata) for acFont32_ASCII_0027
    f32_ascii.o(.constdata) refers to f32_ascii.o(.constdata) for acFont32_ASCII_0028
    f32_ascii.o(.constdata) refers to f32_ascii.o(.constdata) for acFont32_ASCII_0029
    f32_ascii.o(.constdata) refers to f32_ascii.o(.constdata) for acFont32_ASCII_002A
    f32_ascii.o(.constdata) refers to f32_ascii.o(.constdata) for acFont32_ASCII_002B
    f32_ascii.o(.constdata) refers to f32_ascii.o(.constdata) for acFont32_ASCII_002C
    f32_ascii.o(.constdata) refers to f32_ascii.o(.constdata) for acFont32_ASCII_002D
    f32_ascii.o(.constdata) refers to f32_ascii.o(.constdata) for acFont32_ASCII_002E
    f32_ascii.o(.constdata) refers to f32_ascii.o(.constdata) for acFont32_ASCII_002F
    f32_ascii.o(.constdata) refers to f32_ascii.o(.constdata) for acFont32_ASCII_0030
    f32_ascii.o(.constdata) refers to f32_ascii.o(.constdata) for acFont32_ASCII_0031
    f32_ascii.o(.constdata) refers to f32_ascii.o(.constdata) for acFont32_ASCII_0032
    f32_ascii.o(.constdata) refers to f32_ascii.o(.constdata) for acFont32_ASCII_0033
    f32_ascii.o(.constdata) refers to f32_ascii.o(.constdata) for acFont32_ASCII_0034
    f32_ascii.o(.constdata) refers to f32_ascii.o(.constdata) for acFont32_ASCII_0035
    f32_ascii.o(.constdata) refers to f32_ascii.o(.constdata) for acFont32_ASCII_0036
    f32_ascii.o(.constdata) refers to f32_ascii.o(.constdata) for acFont32_ASCII_0037
    f32_ascii.o(.constdata) refers to f32_ascii.o(.constdata) for acFont32_ASCII_0038
    f32_ascii.o(.constdata) refers to f32_ascii.o(.constdata) for acFont32_ASCII_0039
    f32_ascii.o(.constdata) refers to f32_ascii.o(.constdata) for acFont32_ASCII_003A
    f32_ascii.o(.constdata) refers to f32_ascii.o(.constdata) for acFont32_ASCII_003B
    f32_ascii.o(.constdata) refers to f32_ascii.o(.constdata) for acFont32_ASCII_003C
    f32_ascii.o(.constdata) refers to f32_ascii.o(.constdata) for acFont32_ASCII_003D
    f32_ascii.o(.constdata) refers to f32_ascii.o(.constdata) for acFont32_ASCII_003E
    f32_ascii.o(.constdata) refers to f32_ascii.o(.constdata) for acFont32_ASCII_003F
    f32_ascii.o(.constdata) refers to f32_ascii.o(.constdata) for acFont32_ASCII_0040
    f32_ascii.o(.constdata) refers to f32_ascii.o(.constdata) for acFont32_ASCII_0041
    f32_ascii.o(.constdata) refers to f32_ascii.o(.constdata) for acFont32_ASCII_0042
    f32_ascii.o(.constdata) refers to f32_ascii.o(.constdata) for acFont32_ASCII_0043
    f32_ascii.o(.constdata) refers to f32_ascii.o(.constdata) for acFont32_ASCII_0044
    f32_ascii.o(.constdata) refers to f32_ascii.o(.constdata) for acFont32_ASCII_0045
    f32_ascii.o(.constdata) refers to f32_ascii.o(.constdata) for acFont32_ASCII_0046
    f32_ascii.o(.constdata) refers to f32_ascii.o(.constdata) for acFont32_ASCII_0047
    f32_ascii.o(.constdata) refers to f32_ascii.o(.constdata) for acFont32_ASCII_0048
    f32_ascii.o(.constdata) refers to f32_ascii.o(.constdata) for acFont32_ASCII_0049
    f32_ascii.o(.constdata) refers to f32_ascii.o(.constdata) for acFont32_ASCII_004A
    f32_ascii.o(.constdata) refers to f32_ascii.o(.constdata) for acFont32_ASCII_004B
    f32_ascii.o(.constdata) refers to f32_ascii.o(.constdata) for acFont32_ASCII_004C
    f32_ascii.o(.constdata) refers to f32_ascii.o(.constdata) for acFont32_ASCII_004D
    f32_ascii.o(.constdata) refers to f32_ascii.o(.constdata) for acFont32_ASCII_004E
    f32_ascii.o(.constdata) refers to f32_ascii.o(.constdata) for acFont32_ASCII_004F
    f32_ascii.o(.constdata) refers to f32_ascii.o(.constdata) for acFont32_ASCII_0050
    f32_ascii.o(.constdata) refers to f32_ascii.o(.constdata) for acFont32_ASCII_0051
    f32_ascii.o(.constdata) refers to f32_ascii.o(.constdata) for acFont32_ASCII_0052
    f32_ascii.o(.constdata) refers to f32_ascii.o(.constdata) for acFont32_ASCII_0053
    f32_ascii.o(.constdata) refers to f32_ascii.o(.constdata) for acFont32_ASCII_0054
    f32_ascii.o(.constdata) refers to f32_ascii.o(.constdata) for acFont32_ASCII_0055
    f32_ascii.o(.constdata) refers to f32_ascii.o(.constdata) for acFont32_ASCII_0056
    f32_ascii.o(.constdata) refers to f32_ascii.o(.constdata) for acFont32_ASCII_0057
    f32_ascii.o(.constdata) refers to f32_ascii.o(.constdata) for acFont32_ASCII_0058
    f32_ascii.o(.constdata) refers to f32_ascii.o(.constdata) for acFont32_ASCII_0059
    f32_ascii.o(.constdata) refers to f32_ascii.o(.constdata) for acFont32_ASCII_005A
    f32_ascii.o(.constdata) refers to f32_ascii.o(.constdata) for acFont32_ASCII_005B
    f32_ascii.o(.constdata) refers to f32_ascii.o(.constdata) for acFont32_ASCII_005C
    f32_ascii.o(.constdata) refers to f32_ascii.o(.constdata) for acFont32_ASCII_005D
    f32_ascii.o(.constdata) refers to f32_ascii.o(.constdata) for acFont32_ASCII_005E
    f32_ascii.o(.constdata) refers to f32_ascii.o(.constdata) for acFont32_ASCII_005F
    f32_ascii.o(.constdata) refers to f32_ascii.o(.constdata) for acFont32_ASCII_0060
    f32_ascii.o(.constdata) refers to f32_ascii.o(.constdata) for acFont32_ASCII_0061
    f32_ascii.o(.constdata) refers to f32_ascii.o(.constdata) for acFont32_ASCII_0062
    f32_ascii.o(.constdata) refers to f32_ascii.o(.constdata) for acFont32_ASCII_0063
    f32_ascii.o(.constdata) refers to f32_ascii.o(.constdata) for acFont32_ASCII_0064
    f32_ascii.o(.constdata) refers to f32_ascii.o(.constdata) for acFont32_ASCII_0065
    f32_ascii.o(.constdata) refers to f32_ascii.o(.constdata) for acFont32_ASCII_0066
    f32_ascii.o(.constdata) refers to f32_ascii.o(.constdata) for acFont32_ASCII_0067
    f32_ascii.o(.constdata) refers to f32_ascii.o(.constdata) for acFont32_ASCII_0068
    f32_ascii.o(.constdata) refers to f32_ascii.o(.constdata) for acFont32_ASCII_0069
    f32_ascii.o(.constdata) refers to f32_ascii.o(.constdata) for acFont32_ASCII_006A
    f32_ascii.o(.constdata) refers to f32_ascii.o(.constdata) for acFont32_ASCII_006B
    f32_ascii.o(.constdata) refers to f32_ascii.o(.constdata) for acFont32_ASCII_006C
    f32_ascii.o(.constdata) refers to f32_ascii.o(.constdata) for acFont32_ASCII_006D
    f32_ascii.o(.constdata) refers to f32_ascii.o(.constdata) for acFont32_ASCII_006E
    f32_ascii.o(.constdata) refers to f32_ascii.o(.constdata) for acFont32_ASCII_006F
    f32_ascii.o(.constdata) refers to f32_ascii.o(.constdata) for acFont32_ASCII_0070
    f32_ascii.o(.constdata) refers to f32_ascii.o(.constdata) for acFont32_ASCII_0071
    f32_ascii.o(.constdata) refers to f32_ascii.o(.constdata) for acFont32_ASCII_0072
    f32_ascii.o(.constdata) refers to f32_ascii.o(.constdata) for acFont32_ASCII_0073
    f32_ascii.o(.constdata) refers to f32_ascii.o(.constdata) for acFont32_ASCII_0074
    f32_ascii.o(.constdata) refers to f32_ascii.o(.constdata) for acFont32_ASCII_0075
    f32_ascii.o(.constdata) refers to f32_ascii.o(.constdata) for acFont32_ASCII_0076
    f32_ascii.o(.constdata) refers to f32_ascii.o(.constdata) for acFont32_ASCII_0077
    f32_ascii.o(.constdata) refers to f32_ascii.o(.constdata) for acFont32_ASCII_0078
    f32_ascii.o(.constdata) refers to f32_ascii.o(.constdata) for acFont32_ASCII_0079
    f32_ascii.o(.constdata) refers to f32_ascii.o(.constdata) for acFont32_ASCII_007A
    f32_ascii.o(.constdata) refers to f32_ascii.o(.constdata) for acFont32_ASCII_007B
    f32_ascii.o(.constdata) refers to f32_ascii.o(.constdata) for acFont32_ASCII_007C
    f32_ascii.o(.constdata) refers to f32_ascii.o(.constdata) for acFont32_ASCII_007D
    f32_ascii.o(.constdata) refers to f32_ascii.o(.constdata) for acFont32_ASCII_007E
    f32_ascii.o(.constdata) refers to f32_ascii.o(.constdata) for GUI_Font32_ASCII_CharInfo
    f32_ascii.o(.constdata) refers to gui_charp.o(i.GUIPROP_DispChar) for GUIPROP_DispChar
    f32_ascii.o(.constdata) refers to gui_charp.o(i.GUIPROP_GetCharDistX) for GUIPROP_GetCharDistX
    f32_ascii.o(.constdata) refers to gui_charp.o(i.GUIPROP_GetFontInfo) for GUIPROP_GetFontInfo
    f32_ascii.o(.constdata) refers to gui_charp.o(i.GUIPROP_IsInFont) for GUIPROP_IsInFont
    f32_ascii.o(.constdata) refers to f32_ascii.o(.constdata) for GUI_Font32_ASCII_Prop1
    f32b_1.o(.constdata) refers to f32b_1.o(.constdata) for acFont32B_1_00A0
    f32b_1.o(.constdata) refers to f32b_1.o(.constdata) for acFont32B_1_00A1
    f32b_1.o(.constdata) refers to f32b_1.o(.constdata) for acFont32B_1_00A2
    f32b_1.o(.constdata) refers to f32b_1.o(.constdata) for acFont32B_1_00A3
    f32b_1.o(.constdata) refers to f32b_1.o(.constdata) for acFont32B_1_00A4
    f32b_1.o(.constdata) refers to f32b_1.o(.constdata) for acFont32B_1_00A5
    f32b_1.o(.constdata) refers to f32b_1.o(.constdata) for acFont32B_1_00A6
    f32b_1.o(.constdata) refers to f32b_1.o(.constdata) for acFont32B_1_00A7
    f32b_1.o(.constdata) refers to f32b_1.o(.constdata) for acFont32B_1_00A8
    f32b_1.o(.constdata) refers to f32b_1.o(.constdata) for acFont32B_1_00A9
    f32b_1.o(.constdata) refers to f32b_1.o(.constdata) for acFont32B_1_00AA
    f32b_1.o(.constdata) refers to f32b_1.o(.constdata) for acFont32B_1_00AB
    f32b_1.o(.constdata) refers to f32b_1.o(.constdata) for acFont32B_1_00AC
    f32b_1.o(.constdata) refers to f32b_1.o(.constdata) for acFont32B_1_00AD
    f32b_1.o(.constdata) refers to f32b_1.o(.constdata) for acFont32B_1_00AE
    f32b_1.o(.constdata) refers to f32b_1.o(.constdata) for acFont32B_1_00AF
    f32b_1.o(.constdata) refers to f32b_1.o(.constdata) for acFont32B_1_00B0
    f32b_1.o(.constdata) refers to f32b_1.o(.constdata) for acFont32B_1_00B1
    f32b_1.o(.constdata) refers to f32b_1.o(.constdata) for acFont32B_1_00B2
    f32b_1.o(.constdata) refers to f32b_1.o(.constdata) for acFont32B_1_00B3
    f32b_1.o(.constdata) refers to f32b_1.o(.constdata) for acFont32B_1_00B4
    f32b_1.o(.constdata) refers to f32b_1.o(.constdata) for acFont32B_1_00B5
    f32b_1.o(.constdata) refers to f32b_1.o(.constdata) for acFont32B_1_00B6
    f32b_1.o(.constdata) refers to f32b_1.o(.constdata) for acFont32B_1_00B7
    f32b_1.o(.constdata) refers to f32b_1.o(.constdata) for acFont32B_1_00B8
    f32b_1.o(.constdata) refers to f32b_1.o(.constdata) for acFont32B_1_00B9
    f32b_1.o(.constdata) refers to f32b_1.o(.constdata) for acFont32B_1_00BA
    f32b_1.o(.constdata) refers to f32b_1.o(.constdata) for acFont32B_1_00BB
    f32b_1.o(.constdata) refers to f32b_1.o(.constdata) for acFont32B_1_00BC
    f32b_1.o(.constdata) refers to f32b_1.o(.constdata) for acFont32B_1_00BD
    f32b_1.o(.constdata) refers to f32b_1.o(.constdata) for acFont32B_1_00BE
    f32b_1.o(.constdata) refers to f32b_1.o(.constdata) for acFont32B_1_00BF
    f32b_1.o(.constdata) refers to f32b_1.o(.constdata) for acFont32B_1_00C0
    f32b_1.o(.constdata) refers to f32b_1.o(.constdata) for acFont32B_1_00C1
    f32b_1.o(.constdata) refers to f32b_1.o(.constdata) for acFont32B_1_00C2
    f32b_1.o(.constdata) refers to f32b_1.o(.constdata) for acFont32B_1_00C3
    f32b_1.o(.constdata) refers to f32b_1.o(.constdata) for acFont32B_1_00C4
    f32b_1.o(.constdata) refers to f32b_1.o(.constdata) for acFont32B_1_00C5
    f32b_1.o(.constdata) refers to f32b_1.o(.constdata) for acFont32B_1_00C6
    f32b_1.o(.constdata) refers to f32b_1.o(.constdata) for acFont32B_1_00C7
    f32b_1.o(.constdata) refers to f32b_1.o(.constdata) for acFont32B_1_00C8
    f32b_1.o(.constdata) refers to f32b_1.o(.constdata) for acFont32B_1_00C9
    f32b_1.o(.constdata) refers to f32b_1.o(.constdata) for acFont32B_1_00CA
    f32b_1.o(.constdata) refers to f32b_1.o(.constdata) for acFont32B_1_00CB
    f32b_1.o(.constdata) refers to f32b_1.o(.constdata) for acFont32B_1_00CC
    f32b_1.o(.constdata) refers to f32b_1.o(.constdata) for acFont32B_1_00CD
    f32b_1.o(.constdata) refers to f32b_1.o(.constdata) for acFont32B_1_00CE
    f32b_1.o(.constdata) refers to f32b_1.o(.constdata) for acFont32B_1_00CF
    f32b_1.o(.constdata) refers to f32b_1.o(.constdata) for acFont32B_1_00D0
    f32b_1.o(.constdata) refers to f32b_1.o(.constdata) for acFont32B_1_00D1
    f32b_1.o(.constdata) refers to f32b_1.o(.constdata) for acFont32B_1_00D2
    f32b_1.o(.constdata) refers to f32b_1.o(.constdata) for acFont32B_1_00D3
    f32b_1.o(.constdata) refers to f32b_1.o(.constdata) for acFont32B_1_00D4
    f32b_1.o(.constdata) refers to f32b_1.o(.constdata) for acFont32B_1_00D5
    f32b_1.o(.constdata) refers to f32b_1.o(.constdata) for acFont32B_1_00D6
    f32b_1.o(.constdata) refers to f32b_1.o(.constdata) for acFont32B_1_00D7
    f32b_1.o(.constdata) refers to f32b_1.o(.constdata) for acFont32B_1_00D8
    f32b_1.o(.constdata) refers to f32b_1.o(.constdata) for acFont32B_1_00D9
    f32b_1.o(.constdata) refers to f32b_1.o(.constdata) for acFont32B_1_00DA
    f32b_1.o(.constdata) refers to f32b_1.o(.constdata) for acFont32B_1_00DB
    f32b_1.o(.constdata) refers to f32b_1.o(.constdata) for acFont32B_1_00DC
    f32b_1.o(.constdata) refers to f32b_1.o(.constdata) for acFont32B_1_00DD
    f32b_1.o(.constdata) refers to f32b_1.o(.constdata) for acFont32B_1_00DE
    f32b_1.o(.constdata) refers to f32b_1.o(.constdata) for acFont32B_1_00DF
    f32b_1.o(.constdata) refers to f32b_1.o(.constdata) for acFont32B_1_00E0
    f32b_1.o(.constdata) refers to f32b_1.o(.constdata) for acFont32B_1_00E1
    f32b_1.o(.constdata) refers to f32b_1.o(.constdata) for acFont32B_1_00E2
    f32b_1.o(.constdata) refers to f32b_1.o(.constdata) for acFont32B_1_00E3
    f32b_1.o(.constdata) refers to f32b_1.o(.constdata) for acFont32B_1_00E4
    f32b_1.o(.constdata) refers to f32b_1.o(.constdata) for acFont32B_1_00E5
    f32b_1.o(.constdata) refers to f32b_1.o(.constdata) for acFont32B_1_00E6
    f32b_1.o(.constdata) refers to f32b_1.o(.constdata) for acFont32B_1_00E7
    f32b_1.o(.constdata) refers to f32b_1.o(.constdata) for acFont32B_1_00E8
    f32b_1.o(.constdata) refers to f32b_1.o(.constdata) for acFont32B_1_00E9
    f32b_1.o(.constdata) refers to f32b_1.o(.constdata) for acFont32B_1_00EA
    f32b_1.o(.constdata) refers to f32b_1.o(.constdata) for acFont32B_1_00EB
    f32b_1.o(.constdata) refers to f32b_1.o(.constdata) for acFont32B_1_00EC
    f32b_1.o(.constdata) refers to f32b_1.o(.constdata) for acFont32B_1_00ED
    f32b_1.o(.constdata) refers to f32b_1.o(.constdata) for acFont32B_1_00EE
    f32b_1.o(.constdata) refers to f32b_1.o(.constdata) for acFont32B_1_00EF
    f32b_1.o(.constdata) refers to f32b_1.o(.constdata) for acFont32B_1_00F0
    f32b_1.o(.constdata) refers to f32b_1.o(.constdata) for acFont32B_1_00F1
    f32b_1.o(.constdata) refers to f32b_1.o(.constdata) for acFont32B_1_00F2
    f32b_1.o(.constdata) refers to f32b_1.o(.constdata) for acFont32B_1_00F3
    f32b_1.o(.constdata) refers to f32b_1.o(.constdata) for acFont32B_1_00F4
    f32b_1.o(.constdata) refers to f32b_1.o(.constdata) for acFont32B_1_00F5
    f32b_1.o(.constdata) refers to f32b_1.o(.constdata) for acFont32B_1_00F6
    f32b_1.o(.constdata) refers to f32b_1.o(.constdata) for acFont32B_1_00F7
    f32b_1.o(.constdata) refers to f32b_1.o(.constdata) for acFont32B_1_00F8
    f32b_1.o(.constdata) refers to f32b_1.o(.constdata) for acFont32B_1_00F9
    f32b_1.o(.constdata) refers to f32b_1.o(.constdata) for acFont32B_1_00FA
    f32b_1.o(.constdata) refers to f32b_1.o(.constdata) for acFont32B_1_00FB
    f32b_1.o(.constdata) refers to f32b_1.o(.constdata) for acFont32B_1_00FC
    f32b_1.o(.constdata) refers to f32b_1.o(.constdata) for acFont32B_1_00FD
    f32b_1.o(.constdata) refers to f32b_1.o(.constdata) for acFont32B_1_00FE
    f32b_1.o(.constdata) refers to f32b_1.o(.constdata) for acFont32B_1_00FF
    f32b_1.o(.constdata) refers to f32b_1.o(.constdata) for GUI_Font32B_1_CharInfo
    f32b_1.o(.constdata) refers to f32b_ascii.o(.constdata) for GUI_Font32B_ASCII_Prop1
    f32b_1.o(.constdata) refers to gui_charp.o(i.GUIPROP_DispChar) for GUIPROP_DispChar
    f32b_1.o(.constdata) refers to gui_charp.o(i.GUIPROP_GetCharDistX) for GUIPROP_GetCharDistX
    f32b_1.o(.constdata) refers to gui_charp.o(i.GUIPROP_GetFontInfo) for GUIPROP_GetFontInfo
    f32b_1.o(.constdata) refers to gui_charp.o(i.GUIPROP_IsInFont) for GUIPROP_IsInFont
    f32b_1.o(.constdata) refers to f32b_1.o(.constdata) for GUI_Font32B_1_Prop1
    f32b_ascii.o(.constdata) refers to f32b_ascii.o(.constdata) for acFont32B_ASCII_0020
    f32b_ascii.o(.constdata) refers to f32b_ascii.o(.constdata) for acFont32B_ASCII_0021
    f32b_ascii.o(.constdata) refers to f32b_ascii.o(.constdata) for acFont32B_ASCII_0022
    f32b_ascii.o(.constdata) refers to f32b_ascii.o(.constdata) for acFont32B_ASCII_0023
    f32b_ascii.o(.constdata) refers to f32b_ascii.o(.constdata) for acFont32B_ASCII_0024
    f32b_ascii.o(.constdata) refers to f32b_ascii.o(.constdata) for acFont32B_ASCII_0025
    f32b_ascii.o(.constdata) refers to f32b_ascii.o(.constdata) for acFont32B_ASCII_0026
    f32b_ascii.o(.constdata) refers to f32b_ascii.o(.constdata) for acFont32B_ASCII_0027
    f32b_ascii.o(.constdata) refers to f32b_ascii.o(.constdata) for acFont32B_ASCII_0028
    f32b_ascii.o(.constdata) refers to f32b_ascii.o(.constdata) for acFont32B_ASCII_0029
    f32b_ascii.o(.constdata) refers to f32b_ascii.o(.constdata) for acFont32B_ASCII_002A
    f32b_ascii.o(.constdata) refers to f32b_ascii.o(.constdata) for acFont32B_ASCII_002B
    f32b_ascii.o(.constdata) refers to f32b_ascii.o(.constdata) for acFont32B_ASCII_002C
    f32b_ascii.o(.constdata) refers to f32b_ascii.o(.constdata) for acFont32B_ASCII_002D
    f32b_ascii.o(.constdata) refers to f32b_ascii.o(.constdata) for acFont32B_ASCII_002E
    f32b_ascii.o(.constdata) refers to f32b_ascii.o(.constdata) for acFont32B_ASCII_002F
    f32b_ascii.o(.constdata) refers to f32b_ascii.o(.constdata) for acFont32B_ASCII_0030
    f32b_ascii.o(.constdata) refers to f32b_ascii.o(.constdata) for acFont32B_ASCII_0031
    f32b_ascii.o(.constdata) refers to f32b_ascii.o(.constdata) for acFont32B_ASCII_0032
    f32b_ascii.o(.constdata) refers to f32b_ascii.o(.constdata) for acFont32B_ASCII_0033
    f32b_ascii.o(.constdata) refers to f32b_ascii.o(.constdata) for acFont32B_ASCII_0034
    f32b_ascii.o(.constdata) refers to f32b_ascii.o(.constdata) for acFont32B_ASCII_0035
    f32b_ascii.o(.constdata) refers to f32b_ascii.o(.constdata) for acFont32B_ASCII_0036
    f32b_ascii.o(.constdata) refers to f32b_ascii.o(.constdata) for acFont32B_ASCII_0037
    f32b_ascii.o(.constdata) refers to f32b_ascii.o(.constdata) for acFont32B_ASCII_0038
    f32b_ascii.o(.constdata) refers to f32b_ascii.o(.constdata) for acFont32B_ASCII_0039
    f32b_ascii.o(.constdata) refers to f32b_ascii.o(.constdata) for acFont32B_ASCII_003A
    f32b_ascii.o(.constdata) refers to f32b_ascii.o(.constdata) for acFont32B_ASCII_003B
    f32b_ascii.o(.constdata) refers to f32b_ascii.o(.constdata) for acFont32B_ASCII_003C
    f32b_ascii.o(.constdata) refers to f32b_ascii.o(.constdata) for acFont32B_ASCII_003D
    f32b_ascii.o(.constdata) refers to f32b_ascii.o(.constdata) for acFont32B_ASCII_003E
    f32b_ascii.o(.constdata) refers to f32b_ascii.o(.constdata) for acFont32B_ASCII_003F
    f32b_ascii.o(.constdata) refers to f32b_ascii.o(.constdata) for acFont32B_ASCII_0040
    f32b_ascii.o(.constdata) refers to f32b_ascii.o(.constdata) for acFont32B_ASCII_0041
    f32b_ascii.o(.constdata) refers to f32b_ascii.o(.constdata) for acFont32B_ASCII_0042
    f32b_ascii.o(.constdata) refers to f32b_ascii.o(.constdata) for acFont32B_ASCII_0043
    f32b_ascii.o(.constdata) refers to f32b_ascii.o(.constdata) for acFont32B_ASCII_0044
    f32b_ascii.o(.constdata) refers to f32b_ascii.o(.constdata) for acFont32B_ASCII_0045
    f32b_ascii.o(.constdata) refers to f32b_ascii.o(.constdata) for acFont32B_ASCII_0046
    f32b_ascii.o(.constdata) refers to f32b_ascii.o(.constdata) for acFont32B_ASCII_0047
    f32b_ascii.o(.constdata) refers to f32b_ascii.o(.constdata) for acFont32B_ASCII_0048
    f32b_ascii.o(.constdata) refers to f32b_ascii.o(.constdata) for acFont32B_ASCII_0049
    f32b_ascii.o(.constdata) refers to f32b_ascii.o(.constdata) for acFont32B_ASCII_004A
    f32b_ascii.o(.constdata) refers to f32b_ascii.o(.constdata) for acFont32B_ASCII_004B
    f32b_ascii.o(.constdata) refers to f32b_ascii.o(.constdata) for acFont32B_ASCII_004C
    f32b_ascii.o(.constdata) refers to f32b_ascii.o(.constdata) for acFont32B_ASCII_004D
    f32b_ascii.o(.constdata) refers to f32b_ascii.o(.constdata) for acFont32B_ASCII_004E
    f32b_ascii.o(.constdata) refers to f32b_ascii.o(.constdata) for acFont32B_ASCII_004F
    f32b_ascii.o(.constdata) refers to f32b_ascii.o(.constdata) for acFont32B_ASCII_0050
    f32b_ascii.o(.constdata) refers to f32b_ascii.o(.constdata) for acFont32B_ASCII_0051
    f32b_ascii.o(.constdata) refers to f32b_ascii.o(.constdata) for acFont32B_ASCII_0052
    f32b_ascii.o(.constdata) refers to f32b_ascii.o(.constdata) for acFont32B_ASCII_0053
    f32b_ascii.o(.constdata) refers to f32b_ascii.o(.constdata) for acFont32B_ASCII_0054
    f32b_ascii.o(.constdata) refers to f32b_ascii.o(.constdata) for acFont32B_ASCII_0055
    f32b_ascii.o(.constdata) refers to f32b_ascii.o(.constdata) for acFont32B_ASCII_0056
    f32b_ascii.o(.constdata) refers to f32b_ascii.o(.constdata) for acFont32B_ASCII_0057
    f32b_ascii.o(.constdata) refers to f32b_ascii.o(.constdata) for acFont32B_ASCII_0058
    f32b_ascii.o(.constdata) refers to f32b_ascii.o(.constdata) for acFont32B_ASCII_0059
    f32b_ascii.o(.constdata) refers to f32b_ascii.o(.constdata) for acFont32B_ASCII_005A
    f32b_ascii.o(.constdata) refers to f32b_ascii.o(.constdata) for acFont32B_ASCII_005B
    f32b_ascii.o(.constdata) refers to f32b_ascii.o(.constdata) for acFont32B_ASCII_005C
    f32b_ascii.o(.constdata) refers to f32b_ascii.o(.constdata) for acFont32B_ASCII_005D
    f32b_ascii.o(.constdata) refers to f32b_ascii.o(.constdata) for acFont32B_ASCII_005E
    f32b_ascii.o(.constdata) refers to f32b_ascii.o(.constdata) for acFont32B_ASCII_005F
    f32b_ascii.o(.constdata) refers to f32b_ascii.o(.constdata) for acFont32B_ASCII_0060
    f32b_ascii.o(.constdata) refers to f32b_ascii.o(.constdata) for acFont32B_ASCII_0061
    f32b_ascii.o(.constdata) refers to f32b_ascii.o(.constdata) for acFont32B_ASCII_0062
    f32b_ascii.o(.constdata) refers to f32b_ascii.o(.constdata) for acFont32B_ASCII_0063
    f32b_ascii.o(.constdata) refers to f32b_ascii.o(.constdata) for acFont32B_ASCII_0064
    f32b_ascii.o(.constdata) refers to f32b_ascii.o(.constdata) for acFont32B_ASCII_0065
    f32b_ascii.o(.constdata) refers to f32b_ascii.o(.constdata) for acFont32B_ASCII_0066
    f32b_ascii.o(.constdata) refers to f32b_ascii.o(.constdata) for acFont32B_ASCII_0067
    f32b_ascii.o(.constdata) refers to f32b_ascii.o(.constdata) for acFont32B_ASCII_0068
    f32b_ascii.o(.constdata) refers to f32b_ascii.o(.constdata) for acFont32B_ASCII_0069
    f32b_ascii.o(.constdata) refers to f32b_ascii.o(.constdata) for acFont32B_ASCII_006A
    f32b_ascii.o(.constdata) refers to f32b_ascii.o(.constdata) for acFont32B_ASCII_006B
    f32b_ascii.o(.constdata) refers to f32b_ascii.o(.constdata) for acFont32B_ASCII_006C
    f32b_ascii.o(.constdata) refers to f32b_ascii.o(.constdata) for acFont32B_ASCII_006D
    f32b_ascii.o(.constdata) refers to f32b_ascii.o(.constdata) for acFont32B_ASCII_006E
    f32b_ascii.o(.constdata) refers to f32b_ascii.o(.constdata) for acFont32B_ASCII_006F
    f32b_ascii.o(.constdata) refers to f32b_ascii.o(.constdata) for acFont32B_ASCII_0070
    f32b_ascii.o(.constdata) refers to f32b_ascii.o(.constdata) for acFont32B_ASCII_0071
    f32b_ascii.o(.constdata) refers to f32b_ascii.o(.constdata) for acFont32B_ASCII_0072
    f32b_ascii.o(.constdata) refers to f32b_ascii.o(.constdata) for acFont32B_ASCII_0073
    f32b_ascii.o(.constdata) refers to f32b_ascii.o(.constdata) for acFont32B_ASCII_0074
    f32b_ascii.o(.constdata) refers to f32b_ascii.o(.constdata) for acFont32B_ASCII_0075
    f32b_ascii.o(.constdata) refers to f32b_ascii.o(.constdata) for acFont32B_ASCII_0076
    f32b_ascii.o(.constdata) refers to f32b_ascii.o(.constdata) for acFont32B_ASCII_0077
    f32b_ascii.o(.constdata) refers to f32b_ascii.o(.constdata) for acFont32B_ASCII_0078
    f32b_ascii.o(.constdata) refers to f32b_ascii.o(.constdata) for acFont32B_ASCII_0079
    f32b_ascii.o(.constdata) refers to f32b_ascii.o(.constdata) for acFont32B_ASCII_007A
    f32b_ascii.o(.constdata) refers to f32b_ascii.o(.constdata) for acFont32B_ASCII_007B
    f32b_ascii.o(.constdata) refers to f32b_ascii.o(.constdata) for acFont32B_ASCII_007C
    f32b_ascii.o(.constdata) refers to f32b_ascii.o(.constdata) for acFont32B_ASCII_007D
    f32b_ascii.o(.constdata) refers to f32b_ascii.o(.constdata) for acFont32B_ASCII_007E
    f32b_ascii.o(.constdata) refers to f32b_ascii.o(.constdata) for GUI_Font32B_ASCII_CharInfo
    f32b_ascii.o(.constdata) refers to gui_charp.o(i.GUIPROP_DispChar) for GUIPROP_DispChar
    f32b_ascii.o(.constdata) refers to gui_charp.o(i.GUIPROP_GetCharDistX) for GUIPROP_GetCharDistX
    f32b_ascii.o(.constdata) refers to gui_charp.o(i.GUIPROP_GetFontInfo) for GUIPROP_GetFontInfo
    f32b_ascii.o(.constdata) refers to gui_charp.o(i.GUIPROP_IsInFont) for GUIPROP_IsInFont
    f32b_ascii.o(.constdata) refers to f32b_ascii.o(.constdata) for GUI_Font32B_ASCII_Prop1
    fd48.o(.constdata) refers to fd48.o(.constdata) for acFontD48_Space
    fd48.o(.constdata) refers to fd48.o(.constdata) for acFontD48_Add
    fd48.o(.constdata) refers to fd48.o(.constdata) for acFontD48_Comma
    fd48.o(.constdata) refers to fd48.o(.constdata) for acFontD48_Sub
    fd48.o(.constdata) refers to fd48.o(.constdata) for acFontD48_DP
    fd48.o(.constdata) refers to fd48.o(.constdata) for acFontD48
    fd48.o(.constdata) refers to fd48.o(.constdata) for acFontD48_Colon
    fd48.o(.constdata) refers to fd48.o(.constdata) for GUI_FontD48_CharInfo
    fd48.o(.constdata) refers to fd48.o(.constdata) for GUI_FontD48_CharInfo
    fd48.o(.constdata) refers to fd48.o(.constdata) for GUI_FontD48_Prop2
    fd48.o(.constdata) refers to fd48.o(.constdata) for GUI_FontD48_CharInfo
    fd48.o(.constdata) refers to fd48.o(.constdata) for GUI_FontD48_Prop1
    fd48.o(.constdata) refers to gui_charp.o(i.GUIPROP_DispChar) for GUIPROP_DispChar
    fd48.o(.constdata) refers to gui_charp.o(i.GUIPROP_GetCharDistX) for GUIPROP_GetCharDistX
    fd48.o(.constdata) refers to gui_charp.o(i.GUIPROP_GetFontInfo) for GUIPROP_GetFontInfo
    fd48.o(.constdata) refers to gui_charp.o(i.GUIPROP_IsInFont) for GUIPROP_IsInFont
    fd48.o(.constdata) refers to fd48.o(.constdata) for GUI_FontD48_Prop0
    guidev_16.o(i.GUI_MEMDEV_SetDrawMemdev16bppFunc) refers to guidev_16.o(.data) for .data
    guidev_16.o(i._DrawBitmap) refers to gui_alloc.o(i.GUI_ALLOC_LockH) for GUI_ALLOC_LockH
    guidev_16.o(i._DrawBitmap) refers to gui_alloc.o(i.GUI_ALLOC_UnlockH) for GUI_ALLOC_UnlockH
    guidev_16.o(i._DrawBitmap) refers to guidev_usage.o(i.GUI_USAGE_AddRect) for GUI_USAGE_AddRect
    guidev_16.o(i._DrawBitmap) refers to gui_core.o(.data) for GUI_pContext
    guidev_16.o(i._DrawBitmap) refers to gui__private.o(.data) for GUI__pfMemcpy
    guidev_16.o(i._DrawBitmap) refers to guidev_16.o(.data) for .data
    guidev_16.o(i._DrawBitmap) refers to guidev_16.o(.constdata) for .constdata
    guidev_16.o(i._DrawBitmap) refers to lcd_mirror.o(.constdata) for LCD_aMirror
    guidev_16.o(i._DrawHLine) refers to guidev_16.o(i._FillRect) for _FillRect
    guidev_16.o(i._DrawVLine) refers to gui_alloc.o(i.GUI_ALLOC_LockH) for GUI_ALLOC_LockH
    guidev_16.o(i._DrawVLine) refers to gui_alloc.o(i.GUI_ALLOC_UnlockH) for GUI_ALLOC_UnlockH
    guidev_16.o(i._DrawVLine) refers to gui_core.o(.data) for GUI_pContext
    guidev_16.o(i._FillRect) refers to gui_alloc.o(i.GUI_ALLOC_LockH) for GUI_ALLOC_LockH
    guidev_16.o(i._FillRect) refers to gui_alloc.o(i.GUI_ALLOC_UnlockH) for GUI_ALLOC_UnlockH
    guidev_16.o(i._FillRect) refers to guidev_usage.o(i.GUI_USAGE_AddRect) for GUI_USAGE_AddRect
    guidev_16.o(i._FillRect) refers to gui__private.o(i.GUI__memset16) for GUI__memset16
    guidev_16.o(i._FillRect) refers to gui_core.o(.data) for GUI_pContext
    guidev_16.o(i._GetDevData) refers to guidev_16.o(.constdata) for .constdata
    guidev_16.o(i._GetDevFunc) refers to guidev_writetoactiveopaque.o(i.GUI_MEMDEV__WriteToActiveOpaque) for GUI_MEMDEV__WriteToActiveOpaque
    guidev_16.o(i._GetPixelIndex) refers to gui_alloc.o(i.GUI_ALLOC_LockH) for GUI_ALLOC_LockH
    guidev_16.o(i._GetPixelIndex) refers to gui_alloc.o(i.GUI_ALLOC_UnlockH) for GUI_ALLOC_UnlockH
    guidev_16.o(i._GetPixelIndex) refers to gui_core.o(.data) for GUI_pContext
    guidev_16.o(i._GetRect) refers to gui_alloc.o(i.GUI_ALLOC_LockH) for GUI_ALLOC_LockH
    guidev_16.o(i._GetRect) refers to gui_alloc.o(i.GUI_ALLOC_UnlockH) for GUI_ALLOC_UnlockH
    guidev_16.o(i._SetPixelIndex) refers to gui_alloc.o(i.GUI_ALLOC_LockH) for GUI_ALLOC_LockH
    guidev_16.o(i._SetPixelIndex) refers to gui_alloc.o(i.GUI_ALLOC_UnlockH) for GUI_ALLOC_UnlockH
    guidev_16.o(i._SetPixelIndex) refers to gui_core.o(.data) for GUI_pContext
    guidev_16.o(i._XorPixel) refers to gui_alloc.o(i.GUI_ALLOC_LockH) for GUI_ALLOC_LockH
    guidev_16.o(i._XorPixel) refers to gui_alloc.o(i.GUI_ALLOC_UnlockH) for GUI_ALLOC_UnlockH
    guidev_16.o(i._XorPixel) refers to gui_core.o(.data) for GUI_pContext
    guidev_16.o(.constdata) refers to guidev_16.o(i._DrawBitmap) for _DrawBitmap
    guidev_16.o(.constdata) refers to guidev_16.o(i._DrawHLine) for _DrawHLine
    guidev_16.o(.constdata) refers to guidev_16.o(i._DrawVLine) for _DrawVLine
    guidev_16.o(.constdata) refers to guidev_16.o(i._FillRect) for _FillRect
    guidev_16.o(.constdata) refers to guidev_16.o(i._GetPixelIndex) for _GetPixelIndex
    guidev_16.o(.constdata) refers to guidev_16.o(i._SetPixelIndex) for _SetPixelIndex
    guidev_16.o(.constdata) refers to guidev_16.o(i._XorPixel) for _XorPixel
    guidev_16.o(.constdata) refers to guidev_16.o(i._SetOrg) for _SetOrg
    guidev_16.o(.constdata) refers to guidev_16.o(i._GetDevFunc) for _GetDevFunc
    guidev_16.o(.constdata) refers to guidev_16.o(i._GetDevProp) for _GetDevProp
    guidev_16.o(.constdata) refers to guidev_16.o(i._GetDevData) for _GetDevData
    guidev_16.o(.constdata) refers to guidev_16.o(i._GetRect) for _GetRect
    checkbox.o(i.CHECKBOX_Callback) refers to widget.o(i.WIDGET_HandleActive) for WIDGET_HandleActive
    checkbox.o(i.CHECKBOX_Callback) refers to gui_alloc.o(i.GUI_ALLOC_LockH) for GUI_ALLOC_LockH
    checkbox.o(i.CHECKBOX_Callback) refers to gui_alloc.o(i.GUI_ALLOC_UnlockH) for GUI_ALLOC_UnlockH
    checkbox.o(i.CHECKBOX_Callback) refers to wm__private.o(i.WM__IsEnabled) for WM__IsEnabled
    checkbox.o(i.CHECKBOX_Callback) refers to gui_task.o(i.GUI_Lock) for GUI_Lock
    checkbox.o(i.CHECKBOX_Callback) refers to wm.o(i.WM_InvalidateWindow) for WM_InvalidateWindow
    checkbox.o(i.CHECKBOX_Callback) refers to wm_lib.o(i.WM_NotifyParent) for WM_NotifyParent
    checkbox.o(i.CHECKBOX_Callback) refers to gui_task.o(i.GUI_Unlock) for GUI_Unlock
    checkbox.o(i.CHECKBOX_Callback) refers to wm_lib.o(i.WM_HasCaptured) for WM_HasCaptured
    checkbox.o(i.CHECKBOX_Callback) refers to wm_setcapture.o(i.WM_SetCapture) for WM_SetCapture
    checkbox.o(i.CHECKBOX_Callback) refers to gui_onkey.o(i.GUI_StoreKey) for GUI_StoreKey
    checkbox.o(i.CHECKBOX_Callback) refers to gui_alloc.o(i.GUI_ALLOC_FreePtr) for GUI_ALLOC_FreePtr
    checkbox.o(i.CHECKBOX_Callback) refers to wm.o(i.WM_DefaultProc) for WM_DefaultProc
    checkbox.o(i.CHECKBOX_Create) refers to checkbox.o(i.CHECKBOX_CreateUser) for CHECKBOX_CreateUser
    checkbox.o(i.CHECKBOX_CreateEx) refers to checkbox.o(i.CHECKBOX_CreateUser) for CHECKBOX_CreateUser
    checkbox.o(i.CHECKBOX_CreateIndirect) refers to checkbox.o(i.CHECKBOX_CreateUser) for CHECKBOX_CreateUser
    checkbox.o(i.CHECKBOX_CreateUser) refers to gui_task.o(i.GUI_Lock) for GUI_Lock
    checkbox.o(i.CHECKBOX_CreateUser) refers to wm.o(i.WM_CreateWindowAsChild) for WM_CreateWindowAsChild
    checkbox.o(i.CHECKBOX_CreateUser) refers to gui_alloc.o(i.GUI_ALLOC_LockH) for GUI_ALLOC_LockH
    checkbox.o(i.CHECKBOX_CreateUser) refers to widget.o(i.WIDGET__Init) for WIDGET__Init
    checkbox.o(i.CHECKBOX_CreateUser) refers to gui_alloc.o(i.GUI_ALLOC_UnlockH) for GUI_ALLOC_UnlockH
    checkbox.o(i.CHECKBOX_CreateUser) refers to gui_task.o(i.GUI_Unlock) for GUI_Unlock
    checkbox.o(i.CHECKBOX_CreateUser) refers to checkbox.o(.data) for .data
    checkbox.o(i.CHECKBOX_CreateUser) refers to checkbox.o(i.CHECKBOX_Callback) for CHECKBOX_Callback
    checkbox.o(i.CHECKBOX_GetState) refers to gui_task.o(i.GUI_Lock) for GUI_Lock
    checkbox.o(i.CHECKBOX_GetState) refers to gui_alloc.o(i.GUI_ALLOC_LockH) for GUI_ALLOC_LockH
    checkbox.o(i.CHECKBOX_GetState) refers to gui_alloc.o(i.GUI_ALLOC_UnlockH) for GUI_ALLOC_UnlockH
    checkbox.o(i.CHECKBOX_GetState) refers to gui_task.o(i.GUI_Unlock) for GUI_Unlock
    checkbox.o(i.CHECKBOX_GetText) refers to gui_task.o(i.GUI_Lock) for GUI_Lock
    checkbox.o(i.CHECKBOX_GetText) refers to gui_alloc.o(i.GUI_ALLOC_LockH) for GUI_ALLOC_LockH
    checkbox.o(i.CHECKBOX_GetText) refers to gui_alloc.o(i.GUI_ALLOC_UnlockH) for GUI_ALLOC_UnlockH
    checkbox.o(i.CHECKBOX_GetText) refers to strlen.o(.text) for strlen
    checkbox.o(i.CHECKBOX_GetText) refers to gui_task.o(i.GUI_Unlock) for GUI_Unlock
    checkbox.o(i.CHECKBOX_GetText) refers to gui__private.o(.data) for GUI__pfMemcpy
    checkbox.o(i.CHECKBOX_GetUserData) refers to wm_userdata.o(i.WM__GetUserDataEx) for WM__GetUserDataEx
    checkbox.o(i.CHECKBOX_IsChecked) refers to gui_task.o(i.GUI_Lock) for GUI_Lock
    checkbox.o(i.CHECKBOX_IsChecked) refers to gui_alloc.o(i.GUI_ALLOC_LockH) for GUI_ALLOC_LockH
    checkbox.o(i.CHECKBOX_IsChecked) refers to gui_alloc.o(i.GUI_ALLOC_UnlockH) for GUI_ALLOC_UnlockH
    checkbox.o(i.CHECKBOX_IsChecked) refers to gui_task.o(i.GUI_Unlock) for GUI_Unlock
    checkbox.o(i.CHECKBOX_SetBkColor) refers to gui_task.o(i.GUI_Lock) for GUI_Lock
    checkbox.o(i.CHECKBOX_SetBkColor) refers to gui_alloc.o(i.GUI_ALLOC_LockH) for GUI_ALLOC_LockH
    checkbox.o(i.CHECKBOX_SetBkColor) refers to wm_settransstate.o(i.WM_SetTransState) for WM_SetTransState
    checkbox.o(i.CHECKBOX_SetBkColor) refers to wm.o(i.WM_InvalidateWindow) for WM_InvalidateWindow
    checkbox.o(i.CHECKBOX_SetBkColor) refers to gui_alloc.o(i.GUI_ALLOC_UnlockH) for GUI_ALLOC_UnlockH
    checkbox.o(i.CHECKBOX_SetBkColor) refers to gui_task.o(i.GUI_Unlock) for GUI_Unlock
    checkbox.o(i.CHECKBOX_SetBoxBkColor) refers to gui_task.o(i.GUI_Lock) for GUI_Lock
    checkbox.o(i.CHECKBOX_SetBoxBkColor) refers to gui_alloc.o(i.GUI_ALLOC_LockH) for GUI_ALLOC_LockH
    checkbox.o(i.CHECKBOX_SetBoxBkColor) refers to wm.o(i.WM_InvalidateWindow) for WM_InvalidateWindow
    checkbox.o(i.CHECKBOX_SetBoxBkColor) refers to gui_alloc.o(i.GUI_ALLOC_UnlockH) for GUI_ALLOC_UnlockH
    checkbox.o(i.CHECKBOX_SetBoxBkColor) refers to gui_task.o(i.GUI_Unlock) for GUI_Unlock
    checkbox.o(i.CHECKBOX_SetDefaultImage) refers to checkbox.o(.data) for .data
    checkbox.o(i.CHECKBOX_SetFocusColor) refers to gui_task.o(i.GUI_Lock) for GUI_Lock
    checkbox.o(i.CHECKBOX_SetFocusColor) refers to gui_alloc.o(i.GUI_ALLOC_LockH) for GUI_ALLOC_LockH
    checkbox.o(i.CHECKBOX_SetFocusColor) refers to wm.o(i.WM_InvalidateWindow) for WM_InvalidateWindow
    checkbox.o(i.CHECKBOX_SetFocusColor) refers to gui_alloc.o(i.GUI_ALLOC_UnlockH) for GUI_ALLOC_UnlockH
    checkbox.o(i.CHECKBOX_SetFocusColor) refers to gui_task.o(i.GUI_Unlock) for GUI_Unlock
    checkbox.o(i.CHECKBOX_SetFont) refers to gui_task.o(i.GUI_Lock) for GUI_Lock
    checkbox.o(i.CHECKBOX_SetFont) refers to gui_alloc.o(i.GUI_ALLOC_LockH) for GUI_ALLOC_LockH
    checkbox.o(i.CHECKBOX_SetFont) refers to wm.o(i.WM_InvalidateWindow) for WM_InvalidateWindow
    checkbox.o(i.CHECKBOX_SetFont) refers to gui_alloc.o(i.GUI_ALLOC_UnlockH) for GUI_ALLOC_UnlockH
    checkbox.o(i.CHECKBOX_SetFont) refers to gui_task.o(i.GUI_Unlock) for GUI_Unlock
    checkbox.o(i.CHECKBOX_SetImage) refers to gui_task.o(i.GUI_Lock) for GUI_Lock
    checkbox.o(i.CHECKBOX_SetImage) refers to gui_alloc.o(i.GUI_ALLOC_LockH) for GUI_ALLOC_LockH
    checkbox.o(i.CHECKBOX_SetImage) refers to gui_alloc.o(i.GUI_ALLOC_UnlockH) for GUI_ALLOC_UnlockH
    checkbox.o(i.CHECKBOX_SetImage) refers to gui_task.o(i.GUI_Unlock) for GUI_Unlock
    checkbox.o(i.CHECKBOX_SetSpacing) refers to gui_task.o(i.GUI_Lock) for GUI_Lock
    checkbox.o(i.CHECKBOX_SetSpacing) refers to gui_alloc.o(i.GUI_ALLOC_LockH) for GUI_ALLOC_LockH
    checkbox.o(i.CHECKBOX_SetSpacing) refers to wm.o(i.WM_InvalidateWindow) for WM_InvalidateWindow
    checkbox.o(i.CHECKBOX_SetSpacing) refers to gui_alloc.o(i.GUI_ALLOC_UnlockH) for GUI_ALLOC_UnlockH
    checkbox.o(i.CHECKBOX_SetSpacing) refers to gui_task.o(i.GUI_Unlock) for GUI_Unlock
    checkbox.o(i.CHECKBOX_SetState) refers to gui_task.o(i.GUI_Lock) for GUI_Lock
    checkbox.o(i.CHECKBOX_SetState) refers to gui_alloc.o(i.GUI_ALLOC_LockH) for GUI_ALLOC_LockH
    checkbox.o(i.CHECKBOX_SetState) refers to gui_alloc.o(i.GUI_ALLOC_UnlockH) for GUI_ALLOC_UnlockH
    checkbox.o(i.CHECKBOX_SetState) refers to wm.o(i.WM_InvalidateWindow) for WM_InvalidateWindow
    checkbox.o(i.CHECKBOX_SetState) refers to wm_lib.o(i.WM_NotifyParent) for WM_NotifyParent
    checkbox.o(i.CHECKBOX_SetState) refers to gui_task.o(i.GUI_Unlock) for GUI_Unlock
    checkbox.o(i.CHECKBOX_SetText) refers to gui_task.o(i.GUI_Lock) for GUI_Lock
    checkbox.o(i.CHECKBOX_SetText) refers to gui_alloc.o(i.GUI_ALLOC_LockH) for GUI_ALLOC_LockH
    checkbox.o(i.CHECKBOX_SetText) refers to gui_alloc.o(i.GUI_ALLOC_UnlockH) for GUI_ALLOC_UnlockH
    checkbox.o(i.CHECKBOX_SetText) refers to gui__private.o(i.GUI__SetText) for GUI__SetText
    checkbox.o(i.CHECKBOX_SetText) refers to wm.o(i.WM_InvalidateWindow) for WM_InvalidateWindow
    checkbox.o(i.CHECKBOX_SetText) refers to gui_task.o(i.GUI_Unlock) for GUI_Unlock
    checkbox.o(i.CHECKBOX_SetTextAlign) refers to gui_task.o(i.GUI_Lock) for GUI_Lock
    checkbox.o(i.CHECKBOX_SetTextAlign) refers to gui_alloc.o(i.GUI_ALLOC_LockH) for GUI_ALLOC_LockH
    checkbox.o(i.CHECKBOX_SetTextAlign) refers to wm.o(i.WM_InvalidateWindow) for WM_InvalidateWindow
    checkbox.o(i.CHECKBOX_SetTextAlign) refers to gui_alloc.o(i.GUI_ALLOC_UnlockH) for GUI_ALLOC_UnlockH
    checkbox.o(i.CHECKBOX_SetTextAlign) refers to gui_task.o(i.GUI_Unlock) for GUI_Unlock
    checkbox.o(i.CHECKBOX_SetTextColor) refers to gui_task.o(i.GUI_Lock) for GUI_Lock
    checkbox.o(i.CHECKBOX_SetTextColor) refers to gui_alloc.o(i.GUI_ALLOC_LockH) for GUI_ALLOC_LockH
    checkbox.o(i.CHECKBOX_SetTextColor) refers to wm.o(i.WM_InvalidateWindow) for WM_InvalidateWindow
    checkbox.o(i.CHECKBOX_SetTextColor) refers to gui_alloc.o(i.GUI_ALLOC_UnlockH) for GUI_ALLOC_UnlockH
    checkbox.o(i.CHECKBOX_SetTextColor) refers to gui_task.o(i.GUI_Unlock) for GUI_Unlock
    checkbox.o(i.CHECKBOX_SetUserData) refers to wm_userdata.o(i.WM__SetUserDataEx) for WM__SetUserDataEx
    checkbox.o(i.CHECKBOX__GetButtonSize) refers to checkbox.o(.data) for .data
    checkbox.o(.data) refers to checkbox_skin.o(.data) for CHECKBOX__Skin
    checkbox.o(.data) refers to f13_1.o(.constdata) for GUI_Font13_1
    checkbox.o(.data) refers to checkbox.o(i.CHECKBOX__GetButtonSize) for CHECKBOX__GetButtonSize
    checkbox.o(.data) refers to checkbox_skinflex.o(i.CHECKBOX_DrawSkinFlex) for CHECKBOX_DrawSkinFlex
    checkbox.o(.data) refers to checkbox_image.o(.constdata) for CHECKBOX__abmCheck
    edit.o(i.EDIT_AddKey) refers to gui_task.o(i.GUI_Lock) for GUI_Lock
    edit.o(i.EDIT_AddKey) refers to gui_alloc.o(i.GUI_ALLOC_LockH) for GUI_ALLOC_LockH
    edit.o(i.EDIT_AddKey) refers to gui_alloc.o(i.GUI_ALLOC_UnlockH) for GUI_ALLOC_UnlockH
    edit.o(i.EDIT_AddKey) refers to gui_uc.o(i.GUI_UC__NumChars2NumBytes) for GUI_UC__NumChars2NumBytes
    edit.o(i.EDIT_AddKey) refers to strlen.o(.text) for strlen
    edit.o(i.EDIT_AddKey) refers to gui_uc.o(i.GUI_UC_GetCharSize) for GUI_UC_GetCharSize
    edit.o(i.EDIT_AddKey) refers to strcpy.o(.text) for strcpy
    edit.o(i.EDIT_AddKey) refers to wm_lib.o(i.WM_NotifyParent) for WM_NotifyParent
    edit.o(i.EDIT_AddKey) refers to gui_uc.o(i.GUI_UC_GetCharCode) for GUI_UC_GetCharCode
    edit.o(i.EDIT_AddKey) refers to gui_uc.o(i.GUI_UC__CalcSizeOfChar) for GUI_UC__CalcSizeOfChar
    edit.o(i.EDIT_AddKey) refers to gui_uc.o(i.GUI_UC_Encode) for GUI_UC_Encode
    edit.o(i.EDIT_AddKey) refers to rt_memcpy_v6.o(.text) for __aeabi_memcpy
    edit.o(i.EDIT_AddKey) refers to edit.o(i.EDIT__SetCursorPos) for EDIT__SetCursorPos
    edit.o(i.EDIT_AddKey) refers to gui_uc.o(i.GUI__GetNumChars) for GUI__GetNumChars
    edit.o(i.EDIT_AddKey) refers to gui_alloc.o(i.GUI_ALLOC_Realloc) for GUI_ALLOC_Realloc
    edit.o(i.EDIT_AddKey) refers to rt_memmove_v6.o(.text) for __aeabi_memmove
    edit.o(i.EDIT_AddKey) refers to wm.o(i.WM_InvalidateWindow) for WM_InvalidateWindow
    edit.o(i.EDIT_AddKey) refers to gui_task.o(i.GUI_Unlock) for GUI_Unlock
    edit.o(i.EDIT_AddKey) refers to gui__private.o(.data) for GUI__pfMemset
    edit.o(i.EDIT_Callback) refers to wm__private.o(i.WM__IsEnabled) for WM__IsEnabled
    edit.o(i.EDIT_Callback) refers to widget.o(i.WIDGET_HandleActive) for WIDGET_HandleActive
    edit.o(i.EDIT_Callback) refers to wm.o(i.WM_SelectWindow) for WM_SelectWindow
    edit.o(i.EDIT_Callback) refers to gui_alloc.o(i.GUI_ALLOC_LockH) for GUI_ALLOC_LockH
    edit.o(i.EDIT_Callback) refers to gui_alloc.o(i.GUI_ALLOC_UnlockH) for GUI_ALLOC_UnlockH
    edit.o(i.EDIT_Callback) refers to edit.o(i._Paint) for _Paint
    edit.o(i.EDIT_Callback) refers to wm_timer.o(i.WM_RestartTimer) for WM_RestartTimer
    edit.o(i.EDIT_Callback) refers to edit.o(i.EDIT_SetCursorAtPixel) for EDIT_SetCursorAtPixel
    edit.o(i.EDIT_Callback) refers to wm_lib.o(i.WM_NotifyParent) for WM_NotifyParent
    edit.o(i.EDIT_Callback) refers to gui_alloc.o(i.GUI_ALLOC_FreePtr) for GUI_ALLOC_FreePtr
    edit.o(i.EDIT_Callback) refers to edit.o(i.EDIT_AddKey) for EDIT_AddKey
    edit.o(i.EDIT_Callback) refers to wm.o(i.WM_DefaultProc) for WM_DefaultProc
    edit.o(i.EDIT_Create) refers to edit.o(i.EDIT_CreateUser) for EDIT_CreateUser
    edit.o(i.EDIT_CreateAsChild) refers to edit.o(i.EDIT_CreateUser) for EDIT_CreateUser
    edit.o(i.EDIT_CreateEx) refers to edit.o(i.EDIT_CreateUser) for EDIT_CreateUser
    edit.o(i.EDIT_CreateIndirect) refers to edit.o(i.EDIT_CreateUser) for EDIT_CreateUser
    edit.o(i.EDIT_CreateIndirect) refers to gui_task.o(i.GUI_Lock) for GUI_Lock
    edit.o(i.EDIT_CreateIndirect) refers to gui_alloc.o(i.GUI_ALLOC_LockH) for GUI_ALLOC_LockH
    edit.o(i.EDIT_CreateIndirect) refers to wm.o(i.WM_InvalidateWindow) for WM_InvalidateWindow
    edit.o(i.EDIT_CreateIndirect) refers to gui_alloc.o(i.GUI_ALLOC_UnlockH) for GUI_ALLOC_UnlockH
    edit.o(i.EDIT_CreateIndirect) refers to gui_task.o(i.GUI_Unlock) for GUI_Unlock
    edit.o(i.EDIT_CreateUser) refers to gui_task.o(i.GUI_Lock) for GUI_Lock
    edit.o(i.EDIT_CreateUser) refers to wm.o(i.WM_CreateWindowAsChild) for WM_CreateWindowAsChild
    edit.o(i.EDIT_CreateUser) refers to gui_alloc.o(i.GUI_ALLOC_LockH) for GUI_ALLOC_LockH
    edit.o(i.EDIT_CreateUser) refers to widget.o(i.WIDGET__Init) for WIDGET__Init
    edit.o(i.EDIT_CreateUser) refers to gui_alloc.o(i.GUI_ALLOC_UnlockH) for GUI_ALLOC_UnlockH
    edit.o(i.EDIT_CreateUser) refers to gui_alloc.o(i.GUI_ALLOC_Realloc) for GUI_ALLOC_Realloc
    edit.o(i.EDIT_CreateUser) refers to wm.o(i.WM_DeleteWindow) for WM_DeleteWindow
    edit.o(i.EDIT_CreateUser) refers to gui_task.o(i.GUI_Unlock) for GUI_Unlock
    edit.o(i.EDIT_CreateUser) refers to edit.o(i.EDIT_Callback) for EDIT_Callback
    edit.o(i.EDIT_CreateUser) refers to edit.o(.data) for .data
    edit.o(i.EDIT_CreateUser) refers to gui__private.o(.data) for GUI__pfMemset
    edit.o(i.EDIT_EnableBlink) refers to gui_task.o(i.GUI_Lock) for GUI_Lock
    edit.o(i.EDIT_EnableBlink) refers to wm_timer.o(i.WM_CreateTimer) for WM_CreateTimer
    edit.o(i.EDIT_EnableBlink) refers to gui_alloc.o(i.GUI_ALLOC_LockH) for GUI_ALLOC_LockH
    edit.o(i.EDIT_EnableBlink) refers to gui_alloc.o(i.GUI_ALLOC_UnlockH) for GUI_ALLOC_UnlockH
    edit.o(i.EDIT_EnableBlink) refers to wm_timer.o(i.WM_DeleteTimer) for WM_DeleteTimer
    edit.o(i.EDIT_EnableBlink) refers to wm.o(i.WM_InvalidateWindow) for WM_InvalidateWindow
    edit.o(i.EDIT_EnableBlink) refers to gui_task.o(i.GUI_Unlock) for GUI_Unlock
    edit.o(i.EDIT_EnableInversion) refers to gui_task.o(i.GUI_Lock) for GUI_Lock
    edit.o(i.EDIT_EnableInversion) refers to gui_alloc.o(i.GUI_ALLOC_LockH) for GUI_ALLOC_LockH
    edit.o(i.EDIT_EnableInversion) refers to wm.o(i.WM_InvalidateWindow) for WM_InvalidateWindow
    edit.o(i.EDIT_EnableInversion) refers to gui_alloc.o(i.GUI_ALLOC_UnlockH) for GUI_ALLOC_UnlockH
    edit.o(i.EDIT_EnableInversion) refers to gui_task.o(i.GUI_Unlock) for GUI_Unlock
    edit.o(i.EDIT_GetBkColor) refers to gui_task.o(i.GUI_Lock) for GUI_Lock
    edit.o(i.EDIT_GetBkColor) refers to gui_alloc.o(i.GUI_ALLOC_LockH) for GUI_ALLOC_LockH
    edit.o(i.EDIT_GetBkColor) refers to gui_alloc.o(i.GUI_ALLOC_UnlockH) for GUI_ALLOC_UnlockH
    edit.o(i.EDIT_GetBkColor) refers to gui_task.o(i.GUI_Unlock) for GUI_Unlock
    edit.o(i.EDIT_GetCursorCharPos) refers to gui_task.o(i.GUI_Lock) for GUI_Lock
    edit.o(i.EDIT_GetCursorCharPos) refers to gui_alloc.o(i.GUI_ALLOC_LockH) for GUI_ALLOC_LockH
    edit.o(i.EDIT_GetCursorCharPos) refers to gui_alloc.o(i.GUI_ALLOC_UnlockH) for GUI_ALLOC_UnlockH
    edit.o(i.EDIT_GetCursorCharPos) refers to gui_task.o(i.GUI_Unlock) for GUI_Unlock
    edit.o(i.EDIT_GetCursorPixelPos) refers to gui_task.o(i.GUI_Lock) for GUI_Lock
    edit.o(i.EDIT_GetCursorPixelPos) refers to gui_alloc.o(i.GUI_ALLOC_LockH) for GUI_ALLOC_LockH
    edit.o(i.EDIT_GetCursorPixelPos) refers to gui_common.o(i.GUI_SetFont) for GUI_SetFont
    edit.o(i.EDIT_GetCursorPixelPos) refers to widget.o(i.WIDGET__GetInsideRect) for WIDGET__GetInsideRect
    edit.o(i.EDIT_GetCursorPixelPos) refers to gui_uc.o(i.GUI__GetNumChars) for GUI__GetNumChars
    edit.o(i.EDIT_GetCursorPixelPos) refers to gui__private.o(i.GUI__CalcTextRect) for GUI__CalcTextRect
    edit.o(i.EDIT_GetCursorPixelPos) refers to gui__getcursorpos.o(i.GUI__GetCursorPosX) for GUI__GetCursorPosX
    edit.o(i.EDIT_GetCursorPixelPos) refers to gui_alloc.o(i.GUI_ALLOC_UnlockH) for GUI_ALLOC_UnlockH
    edit.o(i.EDIT_GetCursorPixelPos) refers to gui_task.o(i.GUI_Unlock) for GUI_Unlock
    edit.o(i.EDIT_GetFont) refers to gui_task.o(i.GUI_Lock) for GUI_Lock
    edit.o(i.EDIT_GetFont) refers to gui_alloc.o(i.GUI_ALLOC_LockH) for GUI_ALLOC_LockH
    edit.o(i.EDIT_GetFont) refers to gui_alloc.o(i.GUI_ALLOC_UnlockH) for GUI_ALLOC_UnlockH
    edit.o(i.EDIT_GetFont) refers to gui_task.o(i.GUI_Unlock) for GUI_Unlock
    edit.o(i.EDIT_GetNumChars) refers to gui_task.o(i.GUI_Lock) for GUI_Lock
    edit.o(i.EDIT_GetNumChars) refers to gui_alloc.o(i.GUI_ALLOC_LockH) for GUI_ALLOC_LockH
    edit.o(i.EDIT_GetNumChars) refers to gui_uc.o(i.GUI__GetNumChars) for GUI__GetNumChars
    edit.o(i.EDIT_GetNumChars) refers to gui_alloc.o(i.GUI_ALLOC_UnlockH) for GUI_ALLOC_UnlockH
    edit.o(i.EDIT_GetNumChars) refers to gui_task.o(i.GUI_Unlock) for GUI_Unlock
    edit.o(i.EDIT_GetText) refers to gui_task.o(i.GUI_Lock) for GUI_Lock
    edit.o(i.EDIT_GetText) refers to gui_alloc.o(i.GUI_ALLOC_LockH) for GUI_ALLOC_LockH
    edit.o(i.EDIT_GetText) refers to gui_uc.o(i.GUI__GetNumChars) for GUI__GetNumChars
    edit.o(i.EDIT_GetText) refers to gui_uc.o(i.GUI_UC__NumChars2NumBytes) for GUI_UC__NumChars2NumBytes
    edit.o(i.EDIT_GetText) refers to gui_alloc.o(i.GUI_ALLOC_UnlockH) for GUI_ALLOC_UnlockH
    edit.o(i.EDIT_GetText) refers to gui_task.o(i.GUI_Unlock) for GUI_Unlock
    edit.o(i.EDIT_GetText) refers to gui__private.o(.data) for GUI__pfMemcpy
    edit.o(i.EDIT_GetTextColor) refers to gui_task.o(i.GUI_Lock) for GUI_Lock
    edit.o(i.EDIT_GetTextColor) refers to gui_alloc.o(i.GUI_ALLOC_LockH) for GUI_ALLOC_LockH
    edit.o(i.EDIT_GetTextColor) refers to gui_alloc.o(i.GUI_ALLOC_UnlockH) for GUI_ALLOC_UnlockH
    edit.o(i.EDIT_GetTextColor) refers to gui_task.o(i.GUI_Unlock) for GUI_Unlock
    edit.o(i.EDIT_GetUserData) refers to wm_userdata.o(i.WM__GetUserDataEx) for WM__GetUserDataEx
    edit.o(i.EDIT_GetValue) refers to gui_task.o(i.GUI_Lock) for GUI_Lock
    edit.o(i.EDIT_GetValue) refers to gui_alloc.o(i.GUI_ALLOC_LockH) for GUI_ALLOC_LockH
    edit.o(i.EDIT_GetValue) refers to gui_alloc.o(i.GUI_ALLOC_UnlockH) for GUI_ALLOC_UnlockH
    edit.o(i.EDIT_GetValue) refers to gui_task.o(i.GUI_Unlock) for GUI_Unlock
    edit.o(i.EDIT_SetBkColor) refers to gui_task.o(i.GUI_Lock) for GUI_Lock
    edit.o(i.EDIT_SetBkColor) refers to gui_alloc.o(i.GUI_ALLOC_LockH) for GUI_ALLOC_LockH
    edit.o(i.EDIT_SetBkColor) refers to wm.o(i.WM_InvalidateWindow) for WM_InvalidateWindow
    edit.o(i.EDIT_SetBkColor) refers to gui_alloc.o(i.GUI_ALLOC_UnlockH) for GUI_ALLOC_UnlockH
    edit.o(i.EDIT_SetBkColor) refers to gui_task.o(i.GUI_Unlock) for GUI_Unlock
    edit.o(i.EDIT_SetCursorAtChar) refers to gui_task.o(i.GUI_Lock) for GUI_Lock
    edit.o(i.EDIT_SetCursorAtChar) refers to edit.o(i.EDIT__SetCursorPos) for EDIT__SetCursorPos
    edit.o(i.EDIT_SetCursorAtChar) refers to wm.o(i.WM_InvalidateWindow) for WM_InvalidateWindow
    edit.o(i.EDIT_SetCursorAtChar) refers to gui_task.o(i.GUI_Unlock) for GUI_Unlock
    edit.o(i.EDIT_SetCursorAtPixel) refers to gui_task.o(i.GUI_Lock) for GUI_Lock
    edit.o(i.EDIT_SetCursorAtPixel) refers to gui_alloc.o(i.GUI_ALLOC_LockH) for GUI_ALLOC_LockH
    edit.o(i.EDIT_SetCursorAtPixel) refers to gui_common.o(i.GUI_SetFont) for GUI_SetFont
    edit.o(i.EDIT_SetCursorAtPixel) refers to wm_getwindowsize.o(i.WM_GetWindowSizeX) for WM_GetWindowSizeX
    edit.o(i.EDIT_SetCursorAtPixel) refers to gui_dispstring.o(i.GUI_GetStringDistX) for GUI_GetStringDistX
    edit.o(i.EDIT_SetCursorAtPixel) refers to gui_uc.o(i.GUI__GetNumChars) for GUI__GetNumChars
    edit.o(i.EDIT_SetCursorAtPixel) refers to edit.o(i.EDIT__SetCursorPos) for EDIT__SetCursorPos
    edit.o(i.EDIT_SetCursorAtPixel) refers to gui__getcursorpos.o(i.GUI__GetCursorPosChar) for GUI__GetCursorPosChar
    edit.o(i.EDIT_SetCursorAtPixel) refers to gui_alloc.o(i.GUI_ALLOC_UnlockH) for GUI_ALLOC_UnlockH
    edit.o(i.EDIT_SetCursorAtPixel) refers to wm.o(i.WM_InvalidateWindow) for WM_InvalidateWindow
    edit.o(i.EDIT_SetCursorAtPixel) refers to gui_task.o(i.GUI_Unlock) for GUI_Unlock
    edit.o(i.EDIT_SetFont) refers to gui_task.o(i.GUI_Lock) for GUI_Lock
    edit.o(i.EDIT_SetFont) refers to gui_alloc.o(i.GUI_ALLOC_LockH) for GUI_ALLOC_LockH
    edit.o(i.EDIT_SetFont) refers to wm.o(i.WM_InvalidateWindow) for WM_InvalidateWindow
    edit.o(i.EDIT_SetFont) refers to gui_alloc.o(i.GUI_ALLOC_UnlockH) for GUI_ALLOC_UnlockH
    edit.o(i.EDIT_SetFont) refers to gui_task.o(i.GUI_Unlock) for GUI_Unlock
    edit.o(i.EDIT_SetInsertMode) refers to gui_task.o(i.GUI_Lock) for GUI_Lock
    edit.o(i.EDIT_SetInsertMode) refers to gui_alloc.o(i.GUI_ALLOC_LockH) for GUI_ALLOC_LockH
    edit.o(i.EDIT_SetInsertMode) refers to gui_alloc.o(i.GUI_ALLOC_UnlockH) for GUI_ALLOC_UnlockH
    edit.o(i.EDIT_SetInsertMode) refers to gui_task.o(i.GUI_Unlock) for GUI_Unlock
    edit.o(i.EDIT_SetMaxLen) refers to gui_task.o(i.GUI_Lock) for GUI_Lock
    edit.o(i.EDIT_SetMaxLen) refers to gui_alloc.o(i.GUI_ALLOC_LockH) for GUI_ALLOC_LockH
    edit.o(i.EDIT_SetMaxLen) refers to gui_uc.o(i.GUI__GetNumChars) for GUI__GetNumChars
    edit.o(i.EDIT_SetMaxLen) refers to gui_uc.o(i.GUI_UC__NumChars2NumBytes) for GUI_UC__NumChars2NumBytes
    edit.o(i.EDIT_SetMaxLen) refers to gui_alloc.o(i.GUI_ALLOC_UnlockH) for GUI_ALLOC_UnlockH
    edit.o(i.EDIT_SetMaxLen) refers to gui_alloc.o(i.GUI_ALLOC_Realloc) for GUI_ALLOC_Realloc
    edit.o(i.EDIT_SetMaxLen) refers to wm.o(i.WM_InvalidateWindow) for WM_InvalidateWindow
    edit.o(i.EDIT_SetMaxLen) refers to gui_task.o(i.GUI_Unlock) for GUI_Unlock
    edit.o(i.EDIT_SetMaxLen) refers to gui__private.o(.data) for GUI__pfMemset
    edit.o(i.EDIT_SetSel) refers to gui_task.o(i.GUI_Lock) for GUI_Lock
    edit.o(i.EDIT_SetSel) refers to gui_alloc.o(i.GUI_ALLOC_LockH) for GUI_ALLOC_LockH
    edit.o(i.EDIT_SetSel) refers to gui_uc.o(i.GUI__GetNumChars) for GUI__GetNumChars
    edit.o(i.EDIT_SetSel) refers to gui_alloc.o(i.GUI_ALLOC_UnlockH) for GUI_ALLOC_UnlockH
    edit.o(i.EDIT_SetSel) refers to gui_task.o(i.GUI_Unlock) for GUI_Unlock
    edit.o(i.EDIT_SetText) refers to gui_task.o(i.GUI_Lock) for GUI_Lock
    edit.o(i.EDIT_SetText) refers to gui_alloc.o(i.GUI_ALLOC_LockH) for GUI_ALLOC_LockH
    edit.o(i.EDIT_SetText) refers to gui_alloc.o(i.GUI_ALLOC_UnlockH) for GUI_ALLOC_UnlockH
    edit.o(i.EDIT_SetText) refers to strlen.o(.text) for strlen
    edit.o(i.EDIT_SetText) refers to gui_uc.o(i.GUI__GetNumChars) for GUI__GetNumChars
    edit.o(i.EDIT_SetText) refers to gui_uc.o(i.GUI_UC__NumChars2NumBytes) for GUI_UC__NumChars2NumBytes
    edit.o(i.EDIT_SetText) refers to gui_alloc.o(i.GUI_ALLOC_Realloc) for GUI_ALLOC_Realloc
    edit.o(i.EDIT_SetText) refers to gui_alloc.o(i.GUI_ALLOC_FreePtr) for GUI_ALLOC_FreePtr
    edit.o(i.EDIT_SetText) refers to wm.o(i.WM_InvalidateWindow) for WM_InvalidateWindow
    edit.o(i.EDIT_SetText) refers to gui_task.o(i.GUI_Unlock) for GUI_Unlock
    edit.o(i.EDIT_SetText) refers to gui__private.o(.data) for GUI__pfMemset
    edit.o(i.EDIT_SetText) refers to gui__private.o(.data) for GUI__pfMemcpy
    edit.o(i.EDIT_SetTextAlign) refers to gui_task.o(i.GUI_Lock) for GUI_Lock
    edit.o(i.EDIT_SetTextAlign) refers to gui_alloc.o(i.GUI_ALLOC_LockH) for GUI_ALLOC_LockH
    edit.o(i.EDIT_SetTextAlign) refers to wm.o(i.WM_InvalidateWindow) for WM_InvalidateWindow
    edit.o(i.EDIT_SetTextAlign) refers to gui_alloc.o(i.GUI_ALLOC_UnlockH) for GUI_ALLOC_UnlockH
    edit.o(i.EDIT_SetTextAlign) refers to gui_task.o(i.GUI_Unlock) for GUI_Unlock
    edit.o(i.EDIT_SetTextColor) refers to gui_task.o(i.GUI_Lock) for GUI_Lock
    edit.o(i.EDIT_SetTextColor) refers to gui_alloc.o(i.GUI_ALLOC_LockH) for GUI_ALLOC_LockH
    edit.o(i.EDIT_SetTextColor) refers to wm.o(i.WM_InvalidateWindow) for WM_InvalidateWindow
    edit.o(i.EDIT_SetTextColor) refers to gui_alloc.o(i.GUI_ALLOC_UnlockH) for GUI_ALLOC_UnlockH
    edit.o(i.EDIT_SetTextColor) refers to gui_task.o(i.GUI_Unlock) for GUI_Unlock
    edit.o(i.EDIT_SetTextMode) refers to gui_task.o(i.GUI_Lock) for GUI_Lock
    edit.o(i.EDIT_SetTextMode) refers to gui_alloc.o(i.GUI_ALLOC_LockH) for GUI_ALLOC_LockH
    edit.o(i.EDIT_SetTextMode) refers to edit.o(i.EDIT_SetText) for EDIT_SetText
    edit.o(i.EDIT_SetTextMode) refers to edit.o(i.EDIT__SetCursorPos) for EDIT__SetCursorPos
    edit.o(i.EDIT_SetTextMode) refers to gui_alloc.o(i.GUI_ALLOC_UnlockH) for GUI_ALLOC_UnlockH
    edit.o(i.EDIT_SetTextMode) refers to wm.o(i.WM_InvalidateWindow) for WM_InvalidateWindow
    edit.o(i.EDIT_SetTextMode) refers to gui_task.o(i.GUI_Unlock) for GUI_Unlock
    edit.o(i.EDIT_SetUserData) refers to wm_userdata.o(i.WM__SetUserDataEx) for WM__SetUserDataEx
    edit.o(i.EDIT_SetValue) refers to gui_task.o(i.GUI_Lock) for GUI_Lock
    edit.o(i.EDIT_SetValue) refers to gui_alloc.o(i.GUI_ALLOC_LockH) for GUI_ALLOC_LockH
    edit.o(i.EDIT_SetValue) refers to wm.o(i.WM_InvalidateWindow) for WM_InvalidateWindow
    edit.o(i.EDIT_SetValue) refers to gui_alloc.o(i.GUI_ALLOC_UnlockH) for GUI_ALLOC_UnlockH
    edit.o(i.EDIT_SetValue) refers to wm_lib.o(i.WM_NotifyParent) for WM_NotifyParent
    edit.o(i.EDIT_SetValue) refers to gui_task.o(i.GUI_Unlock) for GUI_Unlock
    edit.o(i.EDIT_SetpfAddKeyEx) refers to gui_task.o(i.GUI_Lock) for GUI_Lock
    edit.o(i.EDIT_SetpfAddKeyEx) refers to gui_alloc.o(i.GUI_ALLOC_LockH) for GUI_ALLOC_LockH
    edit.o(i.EDIT_SetpfAddKeyEx) refers to gui_alloc.o(i.GUI_ALLOC_UnlockH) for GUI_ALLOC_UnlockH
    edit.o(i.EDIT_SetpfAddKeyEx) refers to gui_task.o(i.GUI_Unlock) for GUI_Unlock
    edit.o(i.EDIT_SetpfUpdateBuffer) refers to gui_task.o(i.GUI_Lock) for GUI_Lock
    edit.o(i.EDIT_SetpfUpdateBuffer) refers to gui_alloc.o(i.GUI_ALLOC_LockH) for GUI_ALLOC_LockH
    edit.o(i.EDIT_SetpfUpdateBuffer) refers to gui_alloc.o(i.GUI_ALLOC_UnlockH) for GUI_ALLOC_UnlockH
    edit.o(i.EDIT_SetpfUpdateBuffer) refers to gui_task.o(i.GUI_Unlock) for GUI_Unlock
    edit.o(i.EDIT__GetCurrentChar) refers to gui_alloc.o(i.GUI_ALLOC_LockH) for GUI_ALLOC_LockH
    edit.o(i.EDIT__GetCurrentChar) refers to gui_uc.o(i.GUI_UC__NumChars2NumBytes) for GUI_UC__NumChars2NumBytes
    edit.o(i.EDIT__GetCurrentChar) refers to gui_uc.o(i.GUI_UC_GetCharCode) for GUI_UC_GetCharCode
    edit.o(i.EDIT__GetCurrentChar) refers to gui_alloc.o(i.GUI_ALLOC_UnlockH) for GUI_ALLOC_UnlockH
    edit.o(i.EDIT__SetCursorPos) refers to gui_alloc.o(i.GUI_ALLOC_LockH) for GUI_ALLOC_LockH
    edit.o(i.EDIT__SetCursorPos) refers to gui_uc.o(i.GUI__GetNumChars) for GUI__GetNumChars
    edit.o(i.EDIT__SetCursorPos) refers to gui_alloc.o(i.GUI_ALLOC_UnlockH) for GUI_ALLOC_UnlockH
    edit.o(i.EDIT__SetValueUnsigned) refers to gui_task.o(i.GUI_Lock) for GUI_Lock
    edit.o(i.EDIT__SetValueUnsigned) refers to gui_alloc.o(i.GUI_ALLOC_LockH) for GUI_ALLOC_LockH
    edit.o(i.EDIT__SetValueUnsigned) refers to wm.o(i.WM_InvalidateWindow) for WM_InvalidateWindow
    edit.o(i.EDIT__SetValueUnsigned) refers to gui_alloc.o(i.GUI_ALLOC_UnlockH) for GUI_ALLOC_UnlockH
    edit.o(i.EDIT__SetValueUnsigned) refers to wm_lib.o(i.WM_NotifyParent) for WM_NotifyParent
    edit.o(i.EDIT__SetValueUnsigned) refers to gui_task.o(i.GUI_Unlock) for GUI_Unlock
    edit.o(i._Paint) refers to wm__private.o(i.WM__IsEnabled) for WM__IsEnabled
    edit.o(i._Paint) refers to gui_alloc.o(i.GUI_ALLOC_LockH) for GUI_ALLOC_LockH
    edit.o(i._Paint) refers to lcd.o(i.LCD_SetBkColor) for LCD_SetBkColor
    edit.o(i._Paint) refers to lcd.o(i.LCD_SetColor) for LCD_SetColor
    edit.o(i._Paint) refers to gui_common.o(i.GUI_SetFont) for GUI_SetFont
    edit.o(i._Paint) refers to widget.o(i.WIDGET__GetInsideRect) for WIDGET__GetInsideRect
    edit.o(i._Paint) refers to gui__private.o(i.GUI__CalcTextRect) for GUI__CalcTextRect
    edit.o(i._Paint) refers to gui_uc.o(i.GUI__GetNumChars) for GUI__GetNumChars
    edit.o(i._Paint) refers to gui__getcursorpos.o(i.GUI__GetCursorCharacter) for GUI__GetCursorCharacter
    edit.o(i._Paint) refers to gui_char.o(i.GUI_GetCharDistX) for GUI_GetCharDistX
    edit.o(i._Paint) refers to gui__getcursorpos.o(i.GUI__GetCursorPosX) for GUI__GetCursorPosX
    edit.o(i._Paint) refers to gui_alloc.o(i.GUI_ALLOC_UnlockH) for GUI_ALLOC_UnlockH
    edit.o(i._Paint) refers to wm.o(i.WM__InitIVRSearch) for WM__InitIVRSearch
    edit.o(i._Paint) refers to wm_lib.o(i.WM_SetUserClipRect) for WM_SetUserClipRect
    edit.o(i._Paint) refers to widget.o(i.WIDGET__FillStringInRect) for WIDGET__FillStringInRect
    edit.o(i._Paint) refers to gui_common.o(i.GUI_SetColor) for GUI_SetColor
    edit.o(i._Paint) refers to gui_common.o(i.GUI_SetBkColor) for GUI_SetBkColor
    edit.o(i._Paint) refers to gui_dispstring.o(i.GUI_DispStringAt) for GUI_DispStringAt
    edit.o(i._Paint) refers to gui_common.o(i.GUI__InvertRectColors) for GUI__InvertRectColors
    edit.o(i._Paint) refers to widget.o(i.WIDGET__EFFECT_DrawDown) for WIDGET__EFFECT_DrawDown
    edit.o(i._Paint) refers to wm.o(i.WM__GetNextIVR) for WM__GetNextIVR
    edit.o(i._Paint) refers to wm_timer.o(i.WM_RestartTimer) for WM_RestartTimer
    edit.o(i._Paint) refers to gui__bidirouting.o(.data) for GUI__BIDI_Enabled
    edit.o(i._Paint) refers to gui__bidirouting.o(.data) for _pfGUI__BIDI_GetCharDir
    edit.o(i._Paint) refers to gui_core.o(.data) for GUI_pContext
    edit.o(.data) refers to f13_1.o(.constdata) for GUI_Font13_1
    text.o(i.TEXT_Callback) refers to widget.o(i.WIDGET_HandleActive) for WIDGET_HandleActive
    text.o(i.TEXT_Callback) refers to wm_lib.o(i.WM_NotifyParent) for WM_NotifyParent
    text.o(i.TEXT_Callback) refers to gui_alloc.o(i.GUI_ALLOC_LockH) for GUI_ALLOC_LockH
    text.o(i.TEXT_Callback) refers to lcd.o(i.LCD_SetColor) for LCD_SetColor
    text.o(i.TEXT_Callback) refers to gui_common.o(i.GUI_SetFont) for GUI_SetFont
    text.o(i.TEXT_Callback) refers to wm_settrans.o(i.WM_GetHasTrans) for WM_GetHasTrans
    text.o(i.TEXT_Callback) refers to lcd.o(i.LCD_SetBkColor) for LCD_SetBkColor
    text.o(i.TEXT_Callback) refers to gui_core.o(i.GUI_Clear) for GUI_Clear
    text.o(i.TEXT_Callback) refers to gui_common.o(i.GUI_SetTextMode) for GUI_SetTextMode
    text.o(i.TEXT_Callback) refers to wm_lib.o(i.WM_GetClientRect) for WM_GetClientRect
    text.o(i.TEXT_Callback) refers to gui_dispstring.o(i.GUI_DispStringInRectWrap) for GUI_DispStringInRectWrap
    text.o(i.TEXT_Callback) refers to gui_alloc.o(i.GUI_ALLOC_UnlockH) for GUI_ALLOC_UnlockH
    text.o(i.TEXT_Callback) refers to gui_alloc.o(i.GUI_ALLOC_FreePtr) for GUI_ALLOC_FreePtr
    text.o(i.TEXT_Callback) refers to wm.o(i.WM_DefaultProc) for WM_DefaultProc
    text.o(i.TEXT_Create) refers to text.o(i.TEXT_CreateUser) for TEXT_CreateUser
    text.o(i.TEXT_CreateAsChild) refers to text.o(i.TEXT_CreateUser) for TEXT_CreateUser
    text.o(i.TEXT_CreateEx) refers to text.o(i.TEXT_CreateUser) for TEXT_CreateUser
    text.o(i.TEXT_CreateIndirect) refers to text.o(i.TEXT_CreateUser) for TEXT_CreateUser
    text.o(i.TEXT_CreateUser) refers to gui_task.o(i.GUI_Lock) for GUI_Lock
    text.o(i.TEXT_CreateUser) refers to wm.o(i.WM_CreateWindowAsChild) for WM_CreateWindowAsChild
    text.o(i.TEXT_CreateUser) refers to strlen.o(.text) for strlen
    text.o(i.TEXT_CreateUser) refers to gui_alloc.o(i.GUI_ALLOC_AllocZero) for GUI_ALLOC_AllocZero
    text.o(i.TEXT_CreateUser) refers to gui_alloc.o(i.GUI_ALLOC_LockH) for GUI_ALLOC_LockH
    text.o(i.TEXT_CreateUser) refers to strcpy.o(.text) for strcpy
    text.o(i.TEXT_CreateUser) refers to gui_alloc.o(i.GUI_ALLOC_UnlockH) for GUI_ALLOC_UnlockH
    text.o(i.TEXT_CreateUser) refers to widget.o(i.WIDGET__Init) for WIDGET__Init
    text.o(i.TEXT_CreateUser) refers to gui_task.o(i.GUI_Unlock) for GUI_Unlock
    text.o(i.TEXT_CreateUser) refers to text.o(i.TEXT_Callback) for TEXT_Callback
    text.o(i.TEXT_CreateUser) refers to text.o(.data) for .data
    text.o(i.TEXT_GetBkColor) refers to gui_task.o(i.GUI_Lock) for GUI_Lock
    text.o(i.TEXT_GetBkColor) refers to gui_alloc.o(i.GUI_ALLOC_LockH) for GUI_ALLOC_LockH
    text.o(i.TEXT_GetBkColor) refers to gui_alloc.o(i.GUI_ALLOC_UnlockH) for GUI_ALLOC_UnlockH
    text.o(i.TEXT_GetBkColor) refers to gui_task.o(i.GUI_Unlock) for GUI_Unlock
    text.o(i.TEXT_GetFont) refers to gui_task.o(i.GUI_Lock) for GUI_Lock
    text.o(i.TEXT_GetFont) refers to gui_alloc.o(i.GUI_ALLOC_LockH) for GUI_ALLOC_LockH
    text.o(i.TEXT_GetFont) refers to gui_alloc.o(i.GUI_ALLOC_UnlockH) for GUI_ALLOC_UnlockH
    text.o(i.TEXT_GetFont) refers to gui_task.o(i.GUI_Unlock) for GUI_Unlock
    text.o(i.TEXT_GetNumLines) refers to gui_task.o(i.GUI_Lock) for GUI_Lock
    text.o(i.TEXT_GetNumLines) refers to wm_lib.o(i.WM_GetClientRectEx) for WM_GetClientRectEx
    text.o(i.TEXT_GetNumLines) refers to gui_alloc.o(i.GUI_ALLOC_LockH) for GUI_ALLOC_LockH
    text.o(i.TEXT_GetNumLines) refers to gui_dispstring.o(i.GUI_WrapGetNumLines) for GUI_WrapGetNumLines
    text.o(i.TEXT_GetNumLines) refers to gui_alloc.o(i.GUI_ALLOC_UnlockH) for GUI_ALLOC_UnlockH
    text.o(i.TEXT_GetNumLines) refers to gui_task.o(i.GUI_Unlock) for GUI_Unlock
    text.o(i.TEXT_GetText) refers to gui_task.o(i.GUI_Lock) for GUI_Lock
    text.o(i.TEXT_GetText) refers to gui_alloc.o(i.GUI_ALLOC_LockH) for GUI_ALLOC_LockH
    text.o(i.TEXT_GetText) refers to strlen.o(.text) for strlen
    text.o(i.TEXT_GetText) refers to gui_alloc.o(i.GUI_ALLOC_UnlockH) for GUI_ALLOC_UnlockH
    text.o(i.TEXT_GetText) refers to gui_task.o(i.GUI_Unlock) for GUI_Unlock
    text.o(i.TEXT_GetText) refers to gui__private.o(.data) for GUI__pfMemcpy
    text.o(i.TEXT_GetTextAlign) refers to gui_task.o(i.GUI_Lock) for GUI_Lock
    text.o(i.TEXT_GetTextAlign) refers to gui_alloc.o(i.GUI_ALLOC_LockH) for GUI_ALLOC_LockH
    text.o(i.TEXT_GetTextAlign) refers to gui_alloc.o(i.GUI_ALLOC_UnlockH) for GUI_ALLOC_UnlockH
    text.o(i.TEXT_GetTextAlign) refers to gui_task.o(i.GUI_Unlock) for GUI_Unlock
    text.o(i.TEXT_GetTextColor) refers to gui_task.o(i.GUI_Lock) for GUI_Lock
    text.o(i.TEXT_GetTextColor) refers to gui_alloc.o(i.GUI_ALLOC_LockH) for GUI_ALLOC_LockH
    text.o(i.TEXT_GetTextColor) refers to gui_alloc.o(i.GUI_ALLOC_UnlockH) for GUI_ALLOC_UnlockH
    text.o(i.TEXT_GetTextColor) refers to gui_task.o(i.GUI_Unlock) for GUI_Unlock
    text.o(i.TEXT_GetUserData) refers to wm_userdata.o(i.WM__GetUserDataEx) for WM__GetUserDataEx
    text.o(i.TEXT_GetWrapMode) refers to gui_task.o(i.GUI_Lock) for GUI_Lock
    text.o(i.TEXT_GetWrapMode) refers to gui_alloc.o(i.GUI_ALLOC_LockH) for GUI_ALLOC_LockH
    text.o(i.TEXT_GetWrapMode) refers to gui_alloc.o(i.GUI_ALLOC_UnlockH) for GUI_ALLOC_UnlockH
    text.o(i.TEXT_GetWrapMode) refers to gui_task.o(i.GUI_Unlock) for GUI_Unlock
    text.o(i.TEXT_SetBkColor) refers to gui_task.o(i.GUI_Lock) for GUI_Lock
    text.o(i.TEXT_SetBkColor) refers to gui_alloc.o(i.GUI_ALLOC_LockH) for GUI_ALLOC_LockH
    text.o(i.TEXT_SetBkColor) refers to wm_settrans.o(i.WM_ClrHasTrans) for WM_ClrHasTrans
    text.o(i.TEXT_SetBkColor) refers to wm_settrans.o(i.WM_SetHasTrans) for WM_SetHasTrans
    text.o(i.TEXT_SetBkColor) refers to wm.o(i.WM_InvalidateWindow) for WM_InvalidateWindow
    text.o(i.TEXT_SetBkColor) refers to gui_alloc.o(i.GUI_ALLOC_UnlockH) for GUI_ALLOC_UnlockH
    text.o(i.TEXT_SetBkColor) refers to gui_task.o(i.GUI_Unlock) for GUI_Unlock
    text.o(i.TEXT_SetFont) refers to gui_task.o(i.GUI_Lock) for GUI_Lock
    text.o(i.TEXT_SetFont) refers to gui_alloc.o(i.GUI_ALLOC_LockH) for GUI_ALLOC_LockH
    text.o(i.TEXT_SetFont) refers to wm.o(i.WM_InvalidateWindow) for WM_InvalidateWindow
    text.o(i.TEXT_SetFont) refers to gui_alloc.o(i.GUI_ALLOC_UnlockH) for GUI_ALLOC_UnlockH
    text.o(i.TEXT_SetFont) refers to gui_task.o(i.GUI_Unlock) for GUI_Unlock
    text.o(i.TEXT_SetText) refers to gui_task.o(i.GUI_Lock) for GUI_Lock
    text.o(i.TEXT_SetText) refers to gui_alloc.o(i.GUI_ALLOC_LockH) for GUI_ALLOC_LockH
    text.o(i.TEXT_SetText) refers to gui_alloc.o(i.GUI_ALLOC_UnlockH) for GUI_ALLOC_UnlockH
    text.o(i.TEXT_SetText) refers to gui__private.o(i.GUI__SetText) for GUI__SetText
    text.o(i.TEXT_SetText) refers to wm.o(i.WM_InvalidateWindow) for WM_InvalidateWindow
    text.o(i.TEXT_SetText) refers to gui_task.o(i.GUI_Unlock) for GUI_Unlock
    text.o(i.TEXT_SetTextAlign) refers to gui_task.o(i.GUI_Lock) for GUI_Lock
    text.o(i.TEXT_SetTextAlign) refers to gui_alloc.o(i.GUI_ALLOC_LockH) for GUI_ALLOC_LockH
    text.o(i.TEXT_SetTextAlign) refers to gui_alloc.o(i.GUI_ALLOC_UnlockH) for GUI_ALLOC_UnlockH
    text.o(i.TEXT_SetTextAlign) refers to wm.o(i.WM_InvalidateWindow) for WM_InvalidateWindow
    text.o(i.TEXT_SetTextAlign) refers to gui_task.o(i.GUI_Unlock) for GUI_Unlock
    text.o(i.TEXT_SetTextColor) refers to gui_task.o(i.GUI_Lock) for GUI_Lock
    text.o(i.TEXT_SetTextColor) refers to gui_alloc.o(i.GUI_ALLOC_LockH) for GUI_ALLOC_LockH
    text.o(i.TEXT_SetTextColor) refers to wm.o(i.WM_InvalidateWindow) for WM_InvalidateWindow
    text.o(i.TEXT_SetTextColor) refers to gui_alloc.o(i.GUI_ALLOC_UnlockH) for GUI_ALLOC_UnlockH
    text.o(i.TEXT_SetTextColor) refers to gui_task.o(i.GUI_Unlock) for GUI_Unlock
    text.o(i.TEXT_SetUserData) refers to wm_userdata.o(i.WM__SetUserDataEx) for WM__SetUserDataEx
    text.o(i.TEXT_SetWrapMode) refers to gui_task.o(i.GUI_Lock) for GUI_Lock
    text.o(i.TEXT_SetWrapMode) refers to gui_alloc.o(i.GUI_ALLOC_LockH) for GUI_ALLOC_LockH
    text.o(i.TEXT_SetWrapMode) refers to wm.o(i.WM_InvalidateWindow) for WM_InvalidateWindow
    text.o(i.TEXT_SetWrapMode) refers to gui_alloc.o(i.GUI_ALLOC_UnlockH) for GUI_ALLOC_UnlockH
    text.o(i.TEXT_SetWrapMode) refers to gui_task.o(i.GUI_Unlock) for GUI_Unlock
    text.o(.data) refers to f13_1.o(.constdata) for GUI_Font13_1
    window.o(i.WINDOW_Callback) refers to gui_alloc.o(i.GUI_ALLOC_LockH) for GUI_ALLOC_LockH
    window.o(i.WINDOW_Callback) refers to gui_alloc.o(i.GUI_ALLOC_UnlockH) for GUI_ALLOC_UnlockH
    window.o(i.WINDOW_Callback) refers to wm_lib.o(i.WM_IsWindow) for WM_IsWindow
    window.o(i.WINDOW_Callback) refers to wm_lib.o(i.WM_SetFocus) for WM_SetFocus
    window.o(i.WINDOW_Callback) refers to wm_lib.o(i.WM_HasFocus) for WM_HasFocus
    window.o(i.WINDOW_Callback) refers to widget.o(i.WIDGET_OrState) for WIDGET_OrState
    window.o(i.WINDOW_Callback) refers to wm_setfocusonnextchild.o(i.WM_SetFocusOnNextChild) for WM_SetFocusOnNextChild
    window.o(i.WINDOW_Callback) refers to widget.o(i.WIDGET_HandleActive) for WIDGET_HandleActive
    window.o(i.WINDOW_Callback) refers to wm__private.o(i.WM__IsAncestorOrSelf) for WM__IsAncestorOrSelf
    window.o(i.WINDOW_Callback) refers to wm__private.o(i.WM__IsAncestor) for WM__IsAncestor
    window.o(i.WINDOW_Callback) refers to wm_setfocusonprevchild.o(i.WM_SetFocusOnPrevChild) for WM_SetFocusOnPrevChild
    window.o(i.WINDOW_Callback) refers to lcd.o(i.LCD_SetBkColor) for LCD_SetBkColor
    window.o(i.WINDOW_Callback) refers to gui_core.o(i.GUI_Clear) for GUI_Clear
    window.o(i.WINDOW_Callback) refers to wm.o(i.WM_DefaultProc) for WM_DefaultProc
    window.o(i.WINDOW_CreateEx) refers to gui_task.o(i.GUI_Lock) for GUI_Lock
    window.o(i.WINDOW_CreateEx) refers to wm.o(i.WM_CreateWindowAsChild) for WM_CreateWindowAsChild
    window.o(i.WINDOW_CreateEx) refers to gui_alloc.o(i.GUI_ALLOC_LockH) for GUI_ALLOC_LockH
    window.o(i.WINDOW_CreateEx) refers to widget.o(i.WIDGET__Init) for WIDGET__Init
    window.o(i.WINDOW_CreateEx) refers to gui_alloc.o(i.GUI_ALLOC_UnlockH) for GUI_ALLOC_UnlockH
    window.o(i.WINDOW_CreateEx) refers to gui_task.o(i.GUI_Unlock) for GUI_Unlock
    window.o(i.WINDOW_CreateEx) refers to window.o(i.WINDOW_Callback) for WINDOW_Callback
    window.o(i.WINDOW_CreateEx) refers to window.o(.data) for .data
    window.o(i.WINDOW_CreateIndirect) refers to gui_task.o(i.GUI_Lock) for GUI_Lock
    window.o(i.WINDOW_CreateIndirect) refers to wm.o(i.WM_CreateWindowAsChild) for WM_CreateWindowAsChild
    window.o(i.WINDOW_CreateIndirect) refers to gui_alloc.o(i.GUI_ALLOC_LockH) for GUI_ALLOC_LockH
    window.o(i.WINDOW_CreateIndirect) refers to widget.o(i.WIDGET__Init) for WIDGET__Init
    window.o(i.WINDOW_CreateIndirect) refers to gui_alloc.o(i.GUI_ALLOC_UnlockH) for GUI_ALLOC_UnlockH
    window.o(i.WINDOW_CreateIndirect) refers to gui_task.o(i.GUI_Unlock) for GUI_Unlock
    window.o(i.WINDOW_CreateIndirect) refers to window.o(i.WINDOW_Callback) for WINDOW_Callback
    window.o(i.WINDOW_CreateIndirect) refers to window.o(.data) for .data
    window.o(i.WINDOW_CreateUser) refers to gui_task.o(i.GUI_Lock) for GUI_Lock
    window.o(i.WINDOW_CreateUser) refers to wm.o(i.WM_CreateWindowAsChild) for WM_CreateWindowAsChild
    window.o(i.WINDOW_CreateUser) refers to gui_alloc.o(i.GUI_ALLOC_LockH) for GUI_ALLOC_LockH
    window.o(i.WINDOW_CreateUser) refers to widget.o(i.WIDGET__Init) for WIDGET__Init
    window.o(i.WINDOW_CreateUser) refers to gui_alloc.o(i.GUI_ALLOC_UnlockH) for GUI_ALLOC_UnlockH
    window.o(i.WINDOW_CreateUser) refers to gui_task.o(i.GUI_Unlock) for GUI_Unlock
    window.o(i.WINDOW_CreateUser) refers to window.o(i.WINDOW_Callback) for WINDOW_Callback
    window.o(i.WINDOW_CreateUser) refers to window.o(.data) for .data
    window.o(i.WINDOW_GetUserData) refers to wm_userdata.o(i.WM__GetUserDataEx) for WM__GetUserDataEx
    window.o(i.WINDOW_SetBkColor) refers to gui_task.o(i.GUI_Lock) for GUI_Lock
    window.o(i.WINDOW_SetBkColor) refers to gui_alloc.o(i.GUI_ALLOC_LockH) for GUI_ALLOC_LockH
    window.o(i.WINDOW_SetBkColor) refers to gui_alloc.o(i.GUI_ALLOC_UnlockH) for GUI_ALLOC_UnlockH
    window.o(i.WINDOW_SetBkColor) refers to wm.o(i.WM_InvalidateWindow) for WM_InvalidateWindow
    window.o(i.WINDOW_SetBkColor) refers to gui_task.o(i.GUI_Unlock) for GUI_Unlock
    window.o(i.WINDOW_SetUserData) refers to wm_userdata.o(i.WM__SetUserDataEx) for WM__SetUserDataEx
    wm.o(i.WM_Activate) refers to gui_core.o(.data) for GUI_pContext
    wm.o(i.WM_CreateWindow) refers to wm.o(i.WM_CreateWindowAsChild) for WM_CreateWindowAsChild
    wm.o(i.WM_CreateWindowAsChild) refers to gui_task.o(i.GUI_Lock) for GUI_Lock
    wm.o(i.WM_CreateWindowAsChild) refers to gui_alloc.o(i.GUI_ALLOC_LockH) for GUI_ALLOC_LockH
    wm.o(i.WM_CreateWindowAsChild) refers to gui_alloc.o(i.GUI_ALLOC_UnlockH) for GUI_ALLOC_UnlockH
    wm.o(i.WM_CreateWindowAsChild) refers to gui_alloc.o(i.GUI_ALLOC_AllocZero) for GUI_ALLOC_AllocZero
    wm.o(i.WM_CreateWindowAsChild) refers to gui_alloc.o(i.GUI_ALLOC_h2p) for GUI_ALLOC_h2p
    wm.o(i.WM_CreateWindowAsChild) refers to wm.o(i.WM__InsertWindowIntoList) for WM__InsertWindowIntoList
    wm.o(i.WM_CreateWindowAsChild) refers to wm.o(i.WM_SelectWindow) for WM_SelectWindow
    wm.o(i.WM_CreateWindowAsChild) refers to wm_lib.o(i.WM_BringToBottom) for WM_BringToBottom
    wm.o(i.WM_CreateWindowAsChild) refers to wm.o(i.WM_InvalidateRect) for WM_InvalidateRect
    wm.o(i.WM_CreateWindowAsChild) refers to wm__private.o(i.WM__SendMessage) for WM__SendMessage
    wm.o(i.WM_CreateWindowAsChild) refers to gui_task.o(i.GUI_Unlock) for GUI_Unlock
    wm.o(i.WM_CreateWindowAsChild) refers to wm.o(.data) for .data
    wm.o(i.WM_CreateWindowAsChild) refers to gui_core.o(.data) for GUI_pContext
    wm.o(i.WM_Deactivate) refers to gui_task.o(i.GUI_Lock) for GUI_Lock
    wm.o(i.WM_Deactivate) refers to lcd.o(i.LCD_SetClipRectMax) for LCD_SetClipRectMax
    wm.o(i.WM_Deactivate) refers to gui_task.o(i.GUI_Unlock) for GUI_Unlock
    wm.o(i.WM_Deactivate) refers to gui_core.o(.data) for GUI_pContext
    wm.o(i.WM_DefaultProc) refers to wm__private.o(i.WM__GetClientRectEx) for WM__GetClientRectEx
    wm.o(i.WM_DefaultProc) refers to wm_lib.o(i.WM_SendToParent) for WM_SendToParent
    wm.o(i.WM_DefaultProc) refers to wm.o(i.WM_InvalidateRect) for WM_InvalidateRect
    wm.o(i.WM_DeleteWindow) refers to gui_task.o(i.GUI_Lock) for GUI_Lock
    wm.o(i.WM_DeleteWindow) refers to gui_alloc.o(i.GUI_ALLOC_h2p) for GUI_ALLOC_h2p
    wm.o(i.WM_DeleteWindow) refers to wm__private.o(i.WM__SendMessage) for WM__SendMessage
    wm.o(i.WM_DeleteWindow) refers to wm_timer.o(i.WM__DeleteAssocTimer) for WM__DeleteAssocTimer
    wm.o(i.WM_DeleteWindow) refers to gui_alloc.o(i.GUI_ALLOC_LockH) for GUI_ALLOC_LockH
    wm.o(i.WM_DeleteWindow) refers to guidev.o(i.GUI_MEMDEV_Delete) for GUI_MEMDEV_Delete
    wm.o(i.WM_DeleteWindow) refers to wm_lib.o(i.WM_NotifyParent) for WM_NotifyParent
    wm.o(i.WM_DeleteWindow) refers to wm.o(i._DeleteAllChildren) for _DeleteAllChildren
    wm.o(i.WM_DeleteWindow) refers to wm.o(i.WM__InvalidateRect) for WM__InvalidateRect
    wm.o(i.WM_DeleteWindow) refers to gui_alloc.o(i.GUI_ALLOC_UnlockH) for GUI_ALLOC_UnlockH
    wm.o(i.WM_DeleteWindow) refers to gui_alloc.o(i.GUI_ALLOC_Free) for GUI_ALLOC_Free
    wm.o(i.WM_DeleteWindow) refers to wm.o(i.WM_SelectWindow) for WM_SelectWindow
    wm.o(i.WM_DeleteWindow) refers to gui_task.o(i.GUI_Unlock) for GUI_Unlock
    wm.o(i.WM_DeleteWindow) refers to wm.o(.data) for .data
    wm.o(i.WM_Exec) refers to gui_task.o(i.GUI_Lock) for GUI_Lock
    wm.o(i.WM_Exec) refers to gui_alloc.o(i.GUI_ALLOC_LockH) for GUI_ALLOC_LockH
    wm.o(i.WM_Exec) refers to gui_alloc.o(i.GUI_ALLOC_UnlockH) for GUI_ALLOC_UnlockH
    wm.o(i.WM_Exec) refers to wm.o(i.WM_DeleteWindow) for WM_DeleteWindow
    wm.o(i.WM_Exec) refers to gui_task.o(i.GUI_Unlock) for GUI_Unlock
    wm.o(i.WM_Exec) refers to gui_onkey.o(i.GUI_PollKeyMsg) for GUI_PollKeyMsg
    wm.o(i.WM_Exec) refers to gui__managecache.o(i.GUI__ManageCache) for GUI__ManageCache
    wm.o(i.WM_Exec) refers to gui_common.o(i.GUI_SaveContext_W) for GUI_SaveContext_W
    wm.o(i.WM_Exec) refers to wm.o(i.WM__ClipAtParentBorders) for WM__ClipAtParentBorders
    wm.o(i.WM_Exec) refers to wm.o(i.WM_SelectWindow) for WM_SelectWindow
    wm.o(i.WM_Exec) refers to guidev_banding.o(i.GUI_MEMDEV_Draw) for GUI_MEMDEV_Draw
    wm.o(i.WM_Exec) refers to wm.o(i.WM__PaintWinAndOverlays) for WM__PaintWinAndOverlays
    wm.o(i.WM_Exec) refers to gui_alloc.o(i.GUI_ALLOC_h2p) for GUI_ALLOC_h2p
    wm.o(i.WM_Exec) refers to gui_common.o(i.GUI_SetColor) for GUI_SetColor
    wm.o(i.WM_Exec) refers to gui_common.o(i.GUI_SetBkColor) for GUI_SetBkColor
    wm.o(i.WM_Exec) refers to gui_common.o(i.GUI_RestoreContext) for GUI_RestoreContext
    wm.o(i.WM_Exec) refers to wm.o(.data) for .data
    wm.o(i.WM_Exec) refers to gui_core.o(.data) for WM_pfHandlePID
    wm.o(i.WM_Exec) refers to gui_core.o(.data) for GUI_pContext
    wm.o(i.WM_Exec) refers to wm.o(i._cbPaintMemDev) for _cbPaintMemDev
    wm.o(i.WM_Exec1) refers to gui_task.o(i.GUI_Lock) for GUI_Lock
    wm.o(i.WM_Exec1) refers to gui_alloc.o(i.GUI_ALLOC_LockH) for GUI_ALLOC_LockH
    wm.o(i.WM_Exec1) refers to gui_alloc.o(i.GUI_ALLOC_UnlockH) for GUI_ALLOC_UnlockH
    wm.o(i.WM_Exec1) refers to wm.o(i.WM_DeleteWindow) for WM_DeleteWindow
    wm.o(i.WM_Exec1) refers to gui_task.o(i.GUI_Unlock) for GUI_Unlock
    wm.o(i.WM_Exec1) refers to gui_onkey.o(i.GUI_PollKeyMsg) for GUI_PollKeyMsg
    wm.o(i.WM_Exec1) refers to wm.o(i._Exec1Draw) for _Exec1Draw
    wm.o(i.WM_Exec1) refers to wm.o(.data) for .data
    wm.o(i.WM_Exec1) refers to gui_core.o(.data) for WM_pfHandlePID
    wm.o(i.WM_Exec1) refers to gui_core.o(.data) for GUI_pContext
    wm.o(i.WM_GetActiveWindow) refers to gui_core.o(.data) for GUI_pContext
    wm.o(i.WM_GetWindowInfo) refers to gui_alloc.o(i.GUI_ALLOC_h2p) for GUI_ALLOC_h2p
    wm.o(i.WM_GetWindowInfo) refers to wm.o(.constdata) for .constdata
    wm.o(i.WM_GetWindowInfo) refers to wm.o(.data) for .data
    wm.o(i.WM_Init) refers to gui_device.o(i.GUI_DEVICE__GetpDriver) for GUI_DEVICE__GetpDriver
    wm.o(i.WM_Init) refers to wm.o(i.WM_CreateWindowAsChild) for WM_CreateWindowAsChild
    wm.o(i.WM_Init) refers to wm.o(i.WM_InvalidateRect) for WM_InvalidateRect
    wm.o(i.WM_Init) refers to wm__private.o(i.WM__AddCriticalHandle) for WM__AddCriticalHandle
    wm.o(i.WM_Init) refers to wm.o(i.WM_SelectWindow) for WM_SelectWindow
    wm.o(i.WM_Init) refers to gui_core.o(i.GUI__RegisterExit) for GUI__RegisterExit
    wm.o(i.WM_Init) refers to wm.o(.data) for .data
    wm.o(i.WM_Init) refers to gui_core.o(.data) for GUI_pContext
    wm.o(i.WM_Init) refers to wm.o(i._cbBackWin) for _cbBackWin
    wm.o(i.WM_Init) refers to wm_touch.o(.bss) for WM__aCHWinModal
    wm.o(i.WM_Init) refers to wm.o(i._OnExit) for _OnExit
    wm.o(i.WM_InvalidateRect) refers to gui_task.o(i.GUI_Lock) for GUI_Lock
    wm.o(i.WM_InvalidateRect) refers to gui_alloc.o(i.GUI_ALLOC_LockH) for GUI_ALLOC_LockH
    wm.o(i.WM_InvalidateRect) refers to guidev.o(i.GUI_MEMDEV_Delete) for GUI_MEMDEV_Delete
    wm.o(i.WM_InvalidateRect) refers to wm_lib.o(i.WM_GetFirstChild) for WM_GetFirstChild
    wm.o(i.WM_InvalidateRect) refers to wm.o(i.WM__InvalidateDrawAndDescs) for WM__InvalidateDrawAndDescs
    wm.o(i.WM_InvalidateRect) refers to gui_alloc.o(i.GUI_ALLOC_h2p) for GUI_ALLOC_h2p
    wm.o(i.WM_InvalidateRect) refers to gui_alloc.o(i.GUI_ALLOC_UnlockH) for GUI_ALLOC_UnlockH
    wm.o(i.WM_InvalidateRect) refers to gui_common.o(i.GUI_MoveRect) for GUI_MoveRect
    wm.o(i.WM_InvalidateRect) refers to gui__private.o(i.GUI__IntersectRect) for GUI__IntersectRect
    wm.o(i.WM_InvalidateRect) refers to wm.o(i.WM__ClipAtParentBorders) for WM__ClipAtParentBorders
    wm.o(i.WM_InvalidateRect) refers to wm.o(i._Invalidate1Abs) for _Invalidate1Abs
    wm.o(i.WM_InvalidateRect) refers to gui_task.o(i.GUI_Unlock) for GUI_Unlock
    wm.o(i.WM_InvalidateRect) refers to wm.o(i.WM__InvalidateRect) for WM__InvalidateRect
    wm.o(i.WM_InvalidateRect) refers to wm.o(.data) for .data
    wm.o(i.WM_InvalidateWindow) refers to wm.o(i.WM_InvalidateRect) for WM_InvalidateRect
    wm.o(i.WM_InvalidateWindowAndDescsEx) refers to gui_alloc.o(i.GUI_ALLOC_LockH) for GUI_ALLOC_LockH
    wm.o(i.WM_InvalidateWindowAndDescsEx) refers to gui__private.o(i.GUI__IntersectRects) for GUI__IntersectRects
    wm.o(i.WM_InvalidateWindowAndDescsEx) refers to gui_alloc.o(i.GUI_ALLOC_UnlockH) for GUI_ALLOC_UnlockH
    wm.o(i.WM_InvalidateWindowAndDescsEx) refers to wm.o(i._Invalidate1Abs) for _Invalidate1Abs
    wm.o(i.WM_InvalidateWindowAndDescsEx) refers to wm_lib.o(i.WM_GetFirstChild) for WM_GetFirstChild
    wm.o(i.WM_InvalidateWindowAndDescsEx) refers to gui_alloc.o(i.GUI_ALLOC_h2p) for GUI_ALLOC_h2p
    wm.o(i.WM_SelectWindow) refers to gui_task.o(i.GUI_Lock) for GUI_Lock
    wm.o(i.WM_SelectWindow) refers to gui_alloc.o(i.GUI_ALLOC_h2p) for GUI_ALLOC_h2p
    wm.o(i.WM_SelectWindow) refers to gui_selectlayer.o(i.GUI_SelectLayer) for GUI_SelectLayer
    wm.o(i.WM_SelectWindow) refers to lcd.o(i.LCD_SetClipRectMax) for LCD_SetClipRectMax
    wm.o(i.WM_SelectWindow) refers to gui_task.o(i.GUI_Unlock) for GUI_Unlock
    wm.o(i.WM_SelectWindow) refers to gui_core.o(.data) for GUI_pContext
    wm.o(i.WM_SelectWindow) refers to wm.o(.data) for .data
    wm.o(i.WM_SendMessage) refers to gui_task.o(i.GUI_Lock) for GUI_Lock
    wm.o(i.WM_SendMessage) refers to wm__private.o(i.WM__SendMessage) for WM__SendMessage
    wm.o(i.WM_SendMessage) refers to gui_task.o(i.GUI_Unlock) for GUI_Unlock
    wm.o(i.WM_SetDefault) refers to gui_common.o(i.GL_SetDefault) for GL_SetDefault
    wm.o(i.WM_SetDefault) refers to gui_core.o(.data) for GUI_pContext
    wm.o(i.WM__ActivateClipRect) refers to gui_alloc.o(i.GUI_ALLOC_LockH) for GUI_ALLOC_LockH
    wm.o(i.WM__ActivateClipRect) refers to gui_common.o(i.GUI_MoveRect) for GUI_MoveRect
    wm.o(i.WM__ActivateClipRect) refers to gui_alloc.o(i.GUI_ALLOC_UnlockH) for GUI_ALLOC_UnlockH
    wm.o(i.WM__ActivateClipRect) refers to gui__private.o(i.GUI__IntersectRect) for GUI__IntersectRect
    wm.o(i.WM__ActivateClipRect) refers to wm.o(i.WM__ClipAtParentBorders) for WM__ClipAtParentBorders
    wm.o(i.WM__ActivateClipRect) refers to lcd_setcliprectex.o(i.LCD_SetClipRectEx) for LCD_SetClipRectEx
    wm.o(i.WM__ActivateClipRect) refers to gui_core.o(.data) for GUI_pContext
    wm.o(i.WM__ActivateClipRect) refers to wm.o(.data) for .data
    wm.o(i.WM__ActivateClipRect) refers to wm.o(.bss) for .bss
    wm.o(i.WM__Client2Screen) refers to gui_common.o(i.GUI_MoveRect) for GUI_MoveRect
    wm.o(i.WM__ClipAtParentBorders) refers to gui_alloc.o(i.GUI_ALLOC_LockH) for GUI_ALLOC_LockH
    wm.o(i.WM__ClipAtParentBorders) refers to gui__private.o(i.GUI__IntersectRect) for GUI__IntersectRect
    wm.o(i.WM__ClipAtParentBorders) refers to gui_alloc.o(i.GUI_ALLOC_UnlockH) for GUI_ALLOC_UnlockH
    wm.o(i.WM__ClipAtParentBorders) refers to wm.o(.data) for .data
    wm.o(i.WM__DeleteSecure) refers to gui_alloc.o(i.GUI_ALLOC_h2p) for GUI_ALLOC_h2p
    wm.o(i.WM__DeleteSecure) refers to wm.o(.data) for .data
    wm.o(i.WM__DetachWindow) refers to gui_alloc.o(i.GUI_ALLOC_LockH) for GUI_ALLOC_LockH
    wm.o(i.WM__DetachWindow) refers to wm.o(i.WM__InvalidateRect) for WM__InvalidateRect
    wm.o(i.WM__DetachWindow) refers to gui_alloc.o(i.GUI_ALLOC_h2p) for GUI_ALLOC_h2p
    wm.o(i.WM__DetachWindow) refers to gui_alloc.o(i.GUI_ALLOC_UnlockH) for GUI_ALLOC_UnlockH
    wm.o(i.WM__GetNextIVR) refers to gui_alloc.o(i.GUI_ALLOC_LockH) for GUI_ALLOC_LockH
    wm.o(i.WM__GetNextIVR) refers to gui_alloc.o(i.GUI_ALLOC_h2p) for GUI_ALLOC_h2p
    wm.o(i.WM__GetNextIVR) refers to gui_common.o(i.GUI_RectsIntersect) for GUI_RectsIntersect
    wm.o(i.WM__GetNextIVR) refers to wm.o(i._Findy1) for _Findy1
    wm.o(i.WM__GetNextIVR) refers to gui_alloc.o(i.GUI_ALLOC_UnlockH) for GUI_ALLOC_UnlockH
    wm.o(i.WM__GetNextIVR) refers to wm.o(i._Findx0) for _Findx0
    wm.o(i.WM__GetNextIVR) refers to wm.o(i._Findx1) for _Findx1
    wm.o(i.WM__GetNextIVR) refers to wm.o(i.WM__ActivateClipRect) for WM__ActivateClipRect
    wm.o(i.WM__GetNextIVR) refers to gui_core.o(.data) for GUI_pContext
    wm.o(i.WM__GetNextIVR) refers to wm.o(.bss) for .bss
    wm.o(i.WM__GetTopLevelLayer) refers to gui_alloc.o(i.GUI_ALLOC_h2p) for GUI_ALLOC_h2p
    wm.o(i.WM__GetTopLevelLayer) refers to wm.o(.data) for .data
    wm.o(i.WM__InitIVRSearch) refers to gui_alloc.o(i.GUI_ALLOC_LockH) for GUI_ALLOC_LockH
    wm.o(i.WM__InitIVRSearch) refers to gui__private.o(i.GUI__IntersectRect) for GUI__IntersectRect
    wm.o(i.WM__InitIVRSearch) refers to gui_alloc.o(i.GUI_ALLOC_UnlockH) for GUI_ALLOC_UnlockH
    wm.o(i.WM__InitIVRSearch) refers to gui_common.o(i.GUI_MoveRect) for GUI_MoveRect
    wm.o(i.WM__InitIVRSearch) refers to wm.o(i.WM__ClipAtParentBorders) for WM__ClipAtParentBorders
    wm.o(i.WM__InitIVRSearch) refers to wm.o(i.WM__GetNextIVR) for WM__GetNextIVR
    wm.o(i.WM__InitIVRSearch) refers to wm.o(i.WM__ActivateClipRect) for WM__ActivateClipRect
    wm.o(i.WM__InitIVRSearch) refers to gui_core.o(.data) for GUI_pContext
    wm.o(i.WM__InitIVRSearch) refers to wm.o(.bss) for .bss
    wm.o(i.WM__InitIVRSearch) refers to wm.o(.data) for .data
    wm.o(i.WM__InsertWindowIntoList) refers to gui_alloc.o(i.GUI_ALLOC_LockH) for GUI_ALLOC_LockH
    wm.o(i.WM__InsertWindowIntoList) refers to gui_alloc.o(i.GUI_ALLOC_UnlockH) for GUI_ALLOC_UnlockH
    wm.o(i.WM__InsertWindowIntoList) refers to gui_alloc.o(i.GUI_ALLOC_h2p) for GUI_ALLOC_h2p
    wm.o(i.WM__Invalidate1Abs) refers to wm.o(i._Invalidate1Abs) for _Invalidate1Abs
    wm.o(i.WM__InvalidateDrawAndDescs) refers to gui_alloc.o(i.GUI_ALLOC_LockH) for GUI_ALLOC_LockH
    wm.o(i.WM__InvalidateDrawAndDescs) refers to guidev.o(i.GUI_MEMDEV_Delete) for GUI_MEMDEV_Delete
    wm.o(i.WM__InvalidateDrawAndDescs) refers to wm_lib.o(i.WM_GetFirstChild) for WM_GetFirstChild
    wm.o(i.WM__InvalidateDrawAndDescs) refers to gui_alloc.o(i.GUI_ALLOC_h2p) for GUI_ALLOC_h2p
    wm.o(i.WM__InvalidateDrawAndDescs) refers to gui_alloc.o(i.GUI_ALLOC_UnlockH) for GUI_ALLOC_UnlockH
    wm.o(i.WM__InvalidateDrawAndDescs) refers to wm.o(.data) for .data
    wm.o(i.WM__InvalidateParent) refers to gui_alloc.o(i.GUI_ALLOC_h2p) for GUI_ALLOC_h2p
    wm.o(i.WM__InvalidateParent) refers to wm.o(i.WM__InvalidateRect) for WM__InvalidateRect
    wm.o(i.WM__InvalidateRect) refers to gui_alloc.o(i.GUI_ALLOC_LockH) for GUI_ALLOC_LockH
    wm.o(i.WM__InvalidateRect) refers to gui__private.o(i.GUI__IntersectRects) for GUI__IntersectRects
    wm.o(i.WM__InvalidateRect) refers to wm.o(i._Invalidate1Abs) for _Invalidate1Abs
    wm.o(i.WM__InvalidateRect) refers to gui_alloc.o(i.GUI_ALLOC_UnlockH) for GUI_ALLOC_UnlockH
    wm.o(i.WM__InvalidateRect) refers to wm_lib.o(i.WM_GetFirstChild) for WM_GetFirstChild
    wm.o(i.WM__InvalidateRect) refers to wm.o(i.WM_InvalidateWindowAndDescsEx) for WM_InvalidateWindowAndDescsEx
    wm.o(i.WM__InvalidateRect) refers to gui_alloc.o(i.GUI_ALLOC_h2p) for GUI_ALLOC_h2p
    wm.o(i.WM__InvalidateRectEx) refers to wm.o(i.WM__InvalidateRect) for WM__InvalidateRect
    wm.o(i.WM__IsWindow) refers to gui_alloc.o(i.GUI_ALLOC_h2p) for GUI_ALLOC_h2p
    wm.o(i.WM__IsWindow) refers to wm.o(.data) for .data
    wm.o(i.WM__Paint) refers to gui_alloc.o(i.GUI_ALLOC_LockH) for GUI_ALLOC_LockH
    wm.o(i.WM__Paint) refers to gui_alloc.o(i.GUI_ALLOC_UnlockH) for GUI_ALLOC_UnlockH
    wm.o(i.WM__Paint) refers to wm.o(i.WM__ClipAtParentBorders) for WM__ClipAtParentBorders
    wm.o(i.WM__Paint) refers to wm.o(i.WM_SelectWindow) for WM_SelectWindow
    wm.o(i.WM__Paint) refers to guidev_banding.o(i.GUI_MEMDEV_Draw) for GUI_MEMDEV_Draw
    wm.o(i.WM__Paint) refers to wm.o(i.WM__PaintWinAndOverlays) for WM__PaintWinAndOverlays
    wm.o(i.WM__Paint) refers to wm.o(i._cbPaintMemDev) for _cbPaintMemDev
    wm.o(i.WM__Paint) refers to wm.o(.data) for .data
    wm.o(i.WM__Paint1) refers to gui_alloc.o(i.GUI_ALLOC_LockH) for GUI_ALLOC_LockH
    wm.o(i.WM__Paint1) refers to gui_alloc.o(i.GUI_ALLOC_UnlockH) for GUI_ALLOC_UnlockH
    wm.o(i.WM__Paint1) refers to wm_lib.o(i.WM_SendMessageNoPara) for WM_SendMessageNoPara
    wm.o(i.WM__Paint1) refers to gui_common.o(i.GL_SetDefault) for GL_SetDefault
    wm.o(i.WM__Paint1) refers to wm__private.o(i.WM__SendMessage) for WM__SendMessage
    wm.o(i.WM__Paint1) refers to wm.o(i.WM__InitIVRSearch) for WM__InitIVRSearch
    wm.o(i.WM__Paint1) refers to wm.o(i.WM__GetNextIVR) for WM__GetNextIVR
    wm.o(i.WM__Paint1) refers to wm.o(.data) for .data
    wm.o(i.WM__Paint1) refers to gui_core.o(.data) for GUI_pContext
    wm.o(i.WM__PaintWinAndOverlays) refers to gui_alloc.o(i.GUI_ALLOC_LockH) for GUI_ALLOC_LockH
    wm.o(i.WM__PaintWinAndOverlays) refers to gui_alloc.o(i.GUI_ALLOC_UnlockH) for GUI_ALLOC_UnlockH
    wm.o(i.WM__PaintWinAndOverlays) refers to gui_alloc.o(i.GUI_ALLOC_h2p) for GUI_ALLOC_h2p
    wm.o(i.WM__PaintWinAndOverlays) refers to wm.o(i._PaintTransChildren) for _PaintTransChildren
    wm.o(i.WM__PaintWinAndOverlays) refers to gui_common.o(i.GUI_RectsIntersect) for GUI_RectsIntersect
    wm.o(i.WM__PaintWinAndOverlays) refers to gui__private.o(i.GUI__IntersectRects) for GUI__IntersectRects
    wm.o(i.WM__PaintWinAndOverlays) refers to wm.o(i.WM__Paint1) for WM__Paint1
    wm.o(i.WM__PaintWinAndOverlays) refers to guidev_staticdevices.o(i.GUI_MEMDEV_Paint1Static) for GUI_MEMDEV_Paint1Static
    wm.o(i.WM__PaintWinAndOverlays) refers to wm.o(.data) for .data
    wm.o(i.WM__PaintWinAndOverlays) refers to gui_core.o(.data) for GUI_pContext
    wm.o(i.WM__RemoveWindowFromList) refers to gui_alloc.o(i.GUI_ALLOC_h2p) for GUI_ALLOC_h2p
    wm.o(i.WM__SelectTopLevelLayer) refers to gui_alloc.o(i.GUI_ALLOC_h2p) for GUI_ALLOC_h2p
    wm.o(i.WM__SelectTopLevelLayer) refers to gui_selectlayer.o(i.GUI_SelectLayer) for GUI_SelectLayer
    wm.o(i.WM__SelectTopLevelLayer) refers to wm.o(.data) for .data
    wm.o(i.WM__SendMsgNoData) refers to wm__private.o(i.WM__SendMessage) for WM__SendMessage
    wm.o(i._DeleteAllChildren) refers to wm.o(i.WM_DeleteWindow) for WM_DeleteWindow
    wm.o(i._Exec1Draw) refers to gui_task.o(i.GUI_Lock) for GUI_Lock
    wm.o(i._Exec1Draw) refers to gui_common.o(i.GUI_SaveContext_W) for GUI_SaveContext_W
    wm.o(i._Exec1Draw) refers to gui_alloc.o(i.GUI_ALLOC_LockH) for GUI_ALLOC_LockH
    wm.o(i._Exec1Draw) refers to gui_alloc.o(i.GUI_ALLOC_UnlockH) for GUI_ALLOC_UnlockH
    wm.o(i._Exec1Draw) refers to wm.o(i.WM__ClipAtParentBorders) for WM__ClipAtParentBorders
    wm.o(i._Exec1Draw) refers to wm.o(i.WM_SelectWindow) for WM_SelectWindow
    wm.o(i._Exec1Draw) refers to guidev_banding.o(i.GUI_MEMDEV_Draw) for GUI_MEMDEV_Draw
    wm.o(i._Exec1Draw) refers to wm.o(i.WM__PaintWinAndOverlays) for WM__PaintWinAndOverlays
    wm.o(i._Exec1Draw) refers to gui_alloc.o(i.GUI_ALLOC_h2p) for GUI_ALLOC_h2p
    wm.o(i._Exec1Draw) refers to gui_common.o(i.GUI_SetColor) for GUI_SetColor
    wm.o(i._Exec1Draw) refers to gui_common.o(i.GUI_SetBkColor) for GUI_SetBkColor
    wm.o(i._Exec1Draw) refers to gui_common.o(i.GUI_RestoreContext) for GUI_RestoreContext
    wm.o(i._Exec1Draw) refers to gui_task.o(i.GUI_Unlock) for GUI_Unlock
    wm.o(i._Exec1Draw) refers to gui_core.o(.data) for GUI_pContext
    wm.o(i._Exec1Draw) refers to wm.o(.data) for .data
    wm.o(i._Exec1Draw) refers to wm.o(i._cbPaintMemDev) for _cbPaintMemDev
    wm.o(i._Findx0) refers to gui_alloc.o(i.GUI_ALLOC_LockH) for GUI_ALLOC_LockH
    wm.o(i._Findx0) refers to gui__private.o(i.GUI__IntersectRects) for GUI__IntersectRects
    wm.o(i._Findx0) refers to gui_common.o(i.GUI_RectsIntersect) for GUI_RectsIntersect
    wm.o(i._Findx0) refers to gui_alloc.o(i.GUI_ALLOC_h2p) for GUI_ALLOC_h2p
    wm.o(i._Findx0) refers to gui_alloc.o(i.GUI_ALLOC_UnlockH) for GUI_ALLOC_UnlockH
    wm.o(i._Findx1) refers to gui_alloc.o(i.GUI_ALLOC_LockH) for GUI_ALLOC_LockH
    wm.o(i._Findx1) refers to gui__private.o(i.GUI__IntersectRects) for GUI__IntersectRects
    wm.o(i._Findx1) refers to gui_common.o(i.GUI_RectsIntersect) for GUI_RectsIntersect
    wm.o(i._Findx1) refers to gui_alloc.o(i.GUI_ALLOC_h2p) for GUI_ALLOC_h2p
    wm.o(i._Findx1) refers to gui_alloc.o(i.GUI_ALLOC_UnlockH) for GUI_ALLOC_UnlockH
    wm.o(i._Findy1) refers to gui_alloc.o(i.GUI_ALLOC_LockH) for GUI_ALLOC_LockH
    wm.o(i._Findy1) refers to gui__private.o(i.GUI__IntersectRects) for GUI__IntersectRects
    wm.o(i._Findy1) refers to gui_common.o(i.GUI_RectsIntersect) for GUI_RectsIntersect
    wm.o(i._Findy1) refers to gui_alloc.o(i.GUI_ALLOC_h2p) for GUI_ALLOC_h2p
    wm.o(i._Findy1) refers to gui_alloc.o(i.GUI_ALLOC_UnlockH) for GUI_ALLOC_UnlockH
    wm.o(i._Invalidate1Abs) refers to gui_alloc.o(i.GUI_ALLOC_h2p) for GUI_ALLOC_h2p
    wm.o(i._Invalidate1Abs) refers to gui_alloc.o(i.GUI_ALLOC_LockH) for GUI_ALLOC_LockH
    wm.o(i._Invalidate1Abs) refers to gui__private.o(i.GUI__IntersectRects) for GUI__IntersectRects
    wm.o(i._Invalidate1Abs) refers to gui_common.o(i.GUI_MergeRect) for GUI_MergeRect
    wm.o(i._Invalidate1Abs) refers to gui_waitevent.o(i.GUI_SignalEvent) for GUI_SignalEvent
    wm.o(i._Invalidate1Abs) refers to gui_alloc.o(i.GUI_ALLOC_UnlockH) for GUI_ALLOC_UnlockH
    wm.o(i._Invalidate1Abs) refers to wm.o(.data) for .data
    wm.o(i._OnExit) refers to wm.o(.data) for .data
    wm.o(i._OnExit) refers to wm.o(.bss) for .bss
    wm.o(i._OnExit) refers to gui__private.o(.data) for GUI__pfMemset
    wm.o(i._OnExit) refers to wm_touch.o(.bss) for WM__aCHWinModal
    wm.o(i._PaintTransChildren) refers to gui_alloc.o(i.GUI_ALLOC_LockH) for GUI_ALLOC_LockH
    wm.o(i._PaintTransChildren) refers to gui_common.o(i.GUI_RectsIntersect) for GUI_RectsIntersect
    wm.o(i._PaintTransChildren) refers to gui_alloc.o(i.GUI_ALLOC_UnlockH) for GUI_ALLOC_UnlockH
    wm.o(i._PaintTransChildren) refers to gui__private.o(i.GUI__IntersectRects) for GUI__IntersectRects
    wm.o(i._PaintTransChildren) refers to gui_alloc.o(i.GUI_ALLOC_h2p) for GUI_ALLOC_h2p
    wm.o(i._PaintTransChildren) refers to gui_core.o(.data) for GUI_pContext
    wm.o(i._PaintTransChildren) refers to wm.o(.data) for .data
    wm.o(i._PaintTransChildren) refers to wm.o(i.WM__Paint1) for WM__Paint1
    wm.o(i._PaintTransChildren) refers to guidev_staticdevices.o(i.GUI_MEMDEV_Paint1Static) for GUI_MEMDEV_Paint1Static
    wm.o(i._cbBackWin) refers to gui_onkey.o(i.GUI_StoreKey) for GUI_StoreKey
    wm.o(i._cbBackWin) refers to gui_common.o(i.GUI_SetBkColor) for GUI_SetBkColor
    wm.o(i._cbBackWin) refers to gui_core.o(i.GUI_Clear) for GUI_Clear
    wm.o(i._cbBackWin) refers to wm__private.o(i.WM__GetClientRectEx) for WM__GetClientRectEx
    wm.o(i._cbBackWin) refers to wm_lib.o(i.WM_SendToParent) for WM_SendToParent
    wm.o(i._cbBackWin) refers to wm.o(i.WM_InvalidateRect) for WM_InvalidateRect
    wm.o(i._cbBackWin) refers to wm.o(.data) for .data
    wm.o(i._cbPaintMemDev) refers to gui_alloc.o(i.GUI_ALLOC_LockH) for GUI_ALLOC_LockH
    wm.o(i._cbPaintMemDev) refers to gui_alloc.o(i.GUI_ALLOC_UnlockH) for GUI_ALLOC_UnlockH
    wm.o(i._cbPaintMemDev) refers to wm.o(i.WM__PaintWinAndOverlays) for WM__PaintWinAndOverlays
    wm.o(i._cbPaintMemDev) refers to gui_core.o(.data) for GUI_pContext
    wm_lib.o(i.WM_AttachWindow) refers to gui_task.o(i.GUI_Lock) for GUI_Lock
    wm_lib.o(i.WM_AttachWindow) refers to gui_alloc.o(i.GUI_ALLOC_LockH) for GUI_ALLOC_LockH
    wm_lib.o(i.WM_AttachWindow) refers to gui_alloc.o(i.GUI_ALLOC_UnlockH) for GUI_ALLOC_UnlockH
    wm_lib.o(i.WM_AttachWindow) refers to wm.o(i.WM__DetachWindow) for WM__DetachWindow
    wm_lib.o(i.WM_AttachWindow) refers to wm_move.o(i.WM_MoveWindow) for WM_MoveWindow
    wm_lib.o(i.WM_AttachWindow) refers to gui_task.o(i.GUI_Unlock) for GUI_Unlock
    wm_lib.o(i.WM_AttachWindow) refers to wm.o(i.WM__InsertWindowIntoList) for WM__InsertWindowIntoList
    wm_lib.o(i.WM_AttachWindow) refers to wm.o(i.WM_InvalidateWindow) for WM_InvalidateWindow
    wm_lib.o(i.WM_AttachWindowAt) refers to gui_task.o(i.GUI_Lock) for GUI_Lock
    wm_lib.o(i.WM_AttachWindowAt) refers to gui_alloc.o(i.GUI_ALLOC_LockH) for GUI_ALLOC_LockH
    wm_lib.o(i.WM_AttachWindowAt) refers to gui_alloc.o(i.GUI_ALLOC_UnlockH) for GUI_ALLOC_UnlockH
    wm_lib.o(i.WM_AttachWindowAt) refers to wm.o(i.WM__DetachWindow) for WM__DetachWindow
    wm_lib.o(i.WM_AttachWindowAt) refers to wm_move.o(i.WM_MoveWindow) for WM_MoveWindow
    wm_lib.o(i.WM_AttachWindowAt) refers to gui_task.o(i.GUI_Unlock) for GUI_Unlock
    wm_lib.o(i.WM_AttachWindowAt) refers to wm_move.o(i.WM_MoveTo) for WM_MoveTo
    wm_lib.o(i.WM_AttachWindowAt) refers to wm_lib.o(i.WM_AttachWindow) for WM_AttachWindow
    wm_lib.o(i.WM_BringToBottom) refers to gui_task.o(i.GUI_Lock) for GUI_Lock
    wm_lib.o(i.WM_BringToBottom) refers to gui_alloc.o(i.GUI_ALLOC_LockH) for GUI_ALLOC_LockH
    wm_lib.o(i.WM_BringToBottom) refers to gui_alloc.o(i.GUI_ALLOC_UnlockH) for GUI_ALLOC_UnlockH
    wm_lib.o(i.WM_BringToBottom) refers to wm__private.o(i.WM__GetPrevSibling) for WM__GetPrevSibling
    wm_lib.o(i.WM_BringToBottom) refers to gui_alloc.o(i.GUI_ALLOC_h2p) for GUI_ALLOC_h2p
    wm_lib.o(i.WM_BringToBottom) refers to gui_task.o(i.GUI_Unlock) for GUI_Unlock
    wm_lib.o(i.WM_BringToBottom) refers to wm.o(i.WM__InvalidateRectEx) for WM__InvalidateRectEx
    wm_lib.o(i.WM_BroadcastMessage) refers to gui_task.o(i.GUI_Lock) for GUI_Lock
    wm_lib.o(i.WM_BroadcastMessage) refers to wm__private.o(i.WM__SendMessage) for WM__SendMessage
    wm_lib.o(i.WM_BroadcastMessage) refers to gui_alloc.o(i.GUI_ALLOC_LockH) for GUI_ALLOC_LockH
    wm_lib.o(i.WM_BroadcastMessage) refers to gui_alloc.o(i.GUI_ALLOC_UnlockH) for GUI_ALLOC_UnlockH
    wm_lib.o(i.WM_BroadcastMessage) refers to gui_task.o(i.GUI_Unlock) for GUI_Unlock
    wm_lib.o(i.WM_BroadcastMessage) refers to wm.o(.data) for WM__FirstWin
    wm_lib.o(i.WM_DetachWindow) refers to gui_task.o(i.GUI_Lock) for GUI_Lock
    wm_lib.o(i.WM_DetachWindow) refers to gui_alloc.o(i.GUI_ALLOC_LockH) for GUI_ALLOC_LockH
    wm_lib.o(i.WM_DetachWindow) refers to gui_alloc.o(i.GUI_ALLOC_UnlockH) for GUI_ALLOC_UnlockH
    wm_lib.o(i.WM_DetachWindow) refers to wm.o(i.WM__DetachWindow) for WM__DetachWindow
    wm_lib.o(i.WM_DetachWindow) refers to wm_move.o(i.WM_MoveWindow) for WM_MoveWindow
    wm_lib.o(i.WM_DetachWindow) refers to gui_task.o(i.GUI_Unlock) for GUI_Unlock
    wm_lib.o(i.WM_DisableWindow) refers to gui_task.o(i.GUI_Lock) for GUI_Lock
    wm_lib.o(i.WM_DisableWindow) refers to gui_alloc.o(i.GUI_ALLOC_LockH) for GUI_ALLOC_LockH
    wm_lib.o(i.WM_DisableWindow) refers to gui_alloc.o(i.GUI_ALLOC_UnlockH) for GUI_ALLOC_UnlockH
    wm_lib.o(i.WM_DisableWindow) refers to wm__private.o(i.WM__SendMessage) for WM__SendMessage
    wm_lib.o(i.WM_DisableWindow) refers to gui_task.o(i.GUI_Unlock) for GUI_Unlock
    wm_lib.o(i.WM_EnableWindow) refers to gui_task.o(i.GUI_Lock) for GUI_Lock
    wm_lib.o(i.WM_EnableWindow) refers to gui_alloc.o(i.GUI_ALLOC_LockH) for GUI_ALLOC_LockH
    wm_lib.o(i.WM_EnableWindow) refers to gui_alloc.o(i.GUI_ALLOC_UnlockH) for GUI_ALLOC_UnlockH
    wm_lib.o(i.WM_EnableWindow) refers to wm__private.o(i.WM__SendMessage) for WM__SendMessage
    wm_lib.o(i.WM_EnableWindow) refers to gui_task.o(i.GUI_Unlock) for GUI_Unlock
    wm_lib.o(i.WM_ForEachDesc) refers to gui_task.o(i.GUI_Lock) for GUI_Lock
    wm_lib.o(i.WM_ForEachDesc) refers to wm__private.o(i.WM__ForEachDesc) for WM__ForEachDesc
    wm_lib.o(i.WM_ForEachDesc) refers to gui_task.o(i.GUI_Unlock) for GUI_Unlock
    wm_lib.o(i.WM_GetBkColor) refers to wm.o(i.WM_SendMessage) for WM_SendMessage
    wm_lib.o(i.WM_GetCallback) refers to gui_task.o(i.GUI_Lock) for GUI_Lock
    wm_lib.o(i.WM_GetCallback) refers to gui_alloc.o(i.GUI_ALLOC_LockH) for GUI_ALLOC_LockH
    wm_lib.o(i.WM_GetCallback) refers to gui_alloc.o(i.GUI_ALLOC_UnlockH) for GUI_ALLOC_UnlockH
    wm_lib.o(i.WM_GetCallback) refers to gui_task.o(i.GUI_Unlock) for GUI_Unlock
    wm_lib.o(i.WM_GetClientRect) refers to gui_task.o(i.GUI_Lock) for GUI_Lock
    wm_lib.o(i.WM_GetClientRect) refers to wm__private.o(i.WM__GetClientRectEx) for WM__GetClientRectEx
    wm_lib.o(i.WM_GetClientRect) refers to gui_task.o(i.GUI_Unlock) for GUI_Unlock
    wm_lib.o(i.WM_GetClientRect) refers to wm.o(.data) for WM__hATransWindow
    wm_lib.o(i.WM_GetClientRect) refers to gui_core.o(.data) for GUI_pContext
    wm_lib.o(i.WM_GetClientRectEx) refers to gui_task.o(i.GUI_Lock) for GUI_Lock
    wm_lib.o(i.WM_GetClientRectEx) refers to wm__private.o(i.WM__GetClientRectEx) for WM__GetClientRectEx
    wm_lib.o(i.WM_GetClientRectEx) refers to gui_task.o(i.GUI_Unlock) for GUI_Unlock
    wm_lib.o(i.WM_GetClientWindow) refers to wm.o(i.WM_SendMessage) for WM_SendMessage
    wm_lib.o(i.WM_GetDesktopWindow) refers to gui_core.o(.data) for GUI_pContext
    wm_lib.o(i.WM_GetDesktopWindow) refers to wm.o(.data) for WM__ahDesktopWin
    wm_lib.o(i.WM_GetDesktopWindowEx) refers to wm.o(.data) for WM__ahDesktopWin
    wm_lib.o(i.WM_GetDialogItem) refers to gui_task.o(i.GUI_Lock) for GUI_Lock
    wm_lib.o(i.WM_GetDialogItem) refers to gui_alloc.o(i.GUI_ALLOC_LockH) for GUI_ALLOC_LockH
    wm_lib.o(i.WM_GetDialogItem) refers to gui_alloc.o(i.GUI_ALLOC_UnlockH) for GUI_ALLOC_UnlockH
    wm_lib.o(i.WM_GetDialogItem) refers to wm.o(i.WM_SendMessage) for WM_SendMessage
    wm_lib.o(i.WM_GetDialogItem) refers to gui_alloc.o(i.GUI_ALLOC_h2p) for GUI_ALLOC_h2p
    wm_lib.o(i.WM_GetDialogItem) refers to wm_lib.o(i._GetDialogItem) for _GetDialogItem
    wm_lib.o(i.WM_GetDialogItem) refers to gui_task.o(i.GUI_Unlock) for GUI_Unlock
    wm_lib.o(i.WM_GetFirstChild) refers to gui_task.o(i.GUI_Lock) for GUI_Lock
    wm_lib.o(i.WM_GetFirstChild) refers to gui_alloc.o(i.GUI_ALLOC_h2p) for GUI_ALLOC_h2p
    wm_lib.o(i.WM_GetFirstChild) refers to gui_task.o(i.GUI_Unlock) for GUI_Unlock
    wm_lib.o(i.WM_GetFlags) refers to gui_task.o(i.GUI_Lock) for GUI_Lock
    wm_lib.o(i.WM_GetFlags) refers to gui_alloc.o(i.GUI_ALLOC_h2p) for GUI_ALLOC_h2p
    wm_lib.o(i.WM_GetFlags) refers to gui_task.o(i.GUI_Unlock) for GUI_Unlock
    wm_lib.o(i.WM_GetFocusedWindow) refers to gui_task.o(i.GUI_Lock) for GUI_Lock
    wm_lib.o(i.WM_GetFocusedWindow) refers to gui_task.o(i.GUI_Unlock) for GUI_Unlock
    wm_lib.o(i.WM_GetFocusedWindow) refers to wm.o(.data) for WM__ahWinFocus
    wm_lib.o(i.WM_GetId) refers to wm.o(i.WM_SendMessage) for WM_SendMessage
    wm_lib.o(i.WM_GetInsideRect) refers to wm.o(i.WM_SendMessage) for WM_SendMessage
    wm_lib.o(i.WM_GetInsideRect) refers to gui_core.o(.data) for GUI_pContext
    wm_lib.o(i.WM_GetInsideRectEx) refers to wm.o(i.WM_SendMessage) for WM_SendMessage
    wm_lib.o(i.WM_GetInsideRectExScrollbar) refers to wm_lib.o(i.WM_GetDialogItem) for WM_GetDialogItem
    wm_lib.o(i.WM_GetInsideRectExScrollbar) refers to gui_task.o(i.GUI_Lock) for GUI_Lock
    wm_lib.o(i.WM_GetInsideRectExScrollbar) refers to gui_alloc.o(i.GUI_ALLOC_h2p) for GUI_ALLOC_h2p
    wm_lib.o(i.WM_GetInsideRectExScrollbar) refers to gui_task.o(i.GUI_Unlock) for GUI_Unlock
    wm_lib.o(i.WM_GetInsideRectExScrollbar) refers to wm.o(i.WM_SendMessage) for WM_SendMessage
    wm_lib.o(i.WM_GetInsideRectExScrollbar) refers to gui_common.o(i.GUI_MoveRect) for GUI_MoveRect
    wm_lib.o(i.WM_GetInvalidRect) refers to gui_task.o(i.GUI_Lock) for GUI_Lock
    wm_lib.o(i.WM_GetInvalidRect) refers to gui_alloc.o(i.GUI_ALLOC_h2p) for GUI_ALLOC_h2p
    wm_lib.o(i.WM_GetInvalidRect) refers to gui_task.o(i.GUI_Unlock) for GUI_Unlock
    wm_lib.o(i.WM_GetNextSibling) refers to gui_task.o(i.GUI_Lock) for GUI_Lock
    wm_lib.o(i.WM_GetNextSibling) refers to gui_alloc.o(i.GUI_ALLOC_h2p) for GUI_ALLOC_h2p
    wm_lib.o(i.WM_GetNextSibling) refers to gui_task.o(i.GUI_Unlock) for GUI_Unlock
    wm_lib.o(i.WM_GetNumInvalidWindows) refers to wm.o(.data) for WM__NumInvalidWindows
    wm_lib.o(i.WM_GetNumWindows) refers to wm.o(.data) for WM__NumWindows
    wm_lib.o(i.WM_GetOrgX) refers to gui_task.o(i.GUI_Lock) for GUI_Lock
    wm_lib.o(i.WM_GetOrgX) refers to gui_alloc.o(i.GUI_ALLOC_h2p) for GUI_ALLOC_h2p
    wm_lib.o(i.WM_GetOrgX) refers to gui_task.o(i.GUI_Unlock) for GUI_Unlock
    wm_lib.o(i.WM_GetOrgX) refers to gui_core.o(.data) for GUI_pContext
    wm_lib.o(i.WM_GetOrgY) refers to gui_task.o(i.GUI_Lock) for GUI_Lock
    wm_lib.o(i.WM_GetOrgY) refers to gui_alloc.o(i.GUI_ALLOC_h2p) for GUI_ALLOC_h2p
    wm_lib.o(i.WM_GetOrgY) refers to gui_task.o(i.GUI_Unlock) for GUI_Unlock
    wm_lib.o(i.WM_GetOrgY) refers to gui_core.o(.data) for GUI_pContext
    wm_lib.o(i.WM_GetParent) refers to gui_task.o(i.GUI_Lock) for GUI_Lock
    wm_lib.o(i.WM_GetParent) refers to gui_alloc.o(i.GUI_ALLOC_h2p) for GUI_ALLOC_h2p
    wm_lib.o(i.WM_GetParent) refers to gui_task.o(i.GUI_Unlock) for GUI_Unlock
    wm_lib.o(i.WM_GetPrevSibling) refers to gui_task.o(i.GUI_Lock) for GUI_Lock
    wm_lib.o(i.WM_GetPrevSibling) refers to wm__private.o(i.WM__GetPrevSibling) for WM__GetPrevSibling
    wm_lib.o(i.WM_GetPrevSibling) refers to gui_task.o(i.GUI_Unlock) for GUI_Unlock
    wm_lib.o(i.WM_GetScrollPartner) refers to wm.o(i.WM_SendMessage) for WM_SendMessage
    wm_lib.o(i.WM_GetScrollPartner) refers to gui_task.o(i.GUI_Lock) for GUI_Lock
    wm_lib.o(i.WM_GetScrollPartner) refers to gui_alloc.o(i.GUI_ALLOC_h2p) for GUI_ALLOC_h2p
    wm_lib.o(i.WM_GetScrollPartner) refers to gui_task.o(i.GUI_Unlock) for GUI_Unlock
    wm_lib.o(i.WM_GetScrollPartner) refers to wm_lib.o(i.WM_GetDialogItem) for WM_GetDialogItem
    wm_lib.o(i.WM_GetScrollState) refers to wm.o(i.WM_SendMessage) for WM_SendMessage
    wm_lib.o(i.WM_GetScrollbarH) refers to gui_task.o(i.GUI_Lock) for GUI_Lock
    wm_lib.o(i.WM_GetScrollbarH) refers to gui_alloc.o(i.GUI_ALLOC_h2p) for GUI_ALLOC_h2p
    wm_lib.o(i.WM_GetScrollbarH) refers to wm.o(i.WM_SendMessage) for WM_SendMessage
    wm_lib.o(i.WM_GetScrollbarH) refers to wm_lib.o(i._GetDialogItem) for _GetDialogItem
    wm_lib.o(i.WM_GetScrollbarH) refers to gui_task.o(i.GUI_Unlock) for GUI_Unlock
    wm_lib.o(i.WM_GetScrollbarV) refers to gui_task.o(i.GUI_Lock) for GUI_Lock
    wm_lib.o(i.WM_GetScrollbarV) refers to gui_alloc.o(i.GUI_ALLOC_h2p) for GUI_ALLOC_h2p
    wm_lib.o(i.WM_GetScrollbarV) refers to wm.o(i.WM_SendMessage) for WM_SendMessage
    wm_lib.o(i.WM_GetScrollbarV) refers to wm_lib.o(i._GetDialogItem) for _GetDialogItem
    wm_lib.o(i.WM_GetScrollbarV) refers to gui_task.o(i.GUI_Unlock) for GUI_Unlock
    wm_lib.o(i.WM_GetStayOnTop) refers to gui_task.o(i.GUI_Lock) for GUI_Lock
    wm_lib.o(i.WM_GetStayOnTop) refers to gui_alloc.o(i.GUI_ALLOC_LockH) for GUI_ALLOC_LockH
    wm_lib.o(i.WM_GetStayOnTop) refers to gui_alloc.o(i.GUI_ALLOC_UnlockH) for GUI_ALLOC_UnlockH
    wm_lib.o(i.WM_GetStayOnTop) refers to gui_task.o(i.GUI_Unlock) for GUI_Unlock
    wm_lib.o(i.WM_GetWindowOrgX) refers to gui_task.o(i.GUI_Lock) for GUI_Lock
    wm_lib.o(i.WM_GetWindowOrgX) refers to gui_alloc.o(i.GUI_ALLOC_h2p) for GUI_ALLOC_h2p
    wm_lib.o(i.WM_GetWindowOrgX) refers to gui_task.o(i.GUI_Unlock) for GUI_Unlock
    wm_lib.o(i.WM_GetWindowOrgY) refers to gui_task.o(i.GUI_Lock) for GUI_Lock
    wm_lib.o(i.WM_GetWindowOrgY) refers to gui_alloc.o(i.GUI_ALLOC_h2p) for GUI_ALLOC_h2p
    wm_lib.o(i.WM_GetWindowOrgY) refers to gui_task.o(i.GUI_Unlock) for GUI_Unlock
    wm_lib.o(i.WM_GetWindowRect) refers to gui_task.o(i.GUI_Lock) for GUI_Lock
    wm_lib.o(i.WM_GetWindowRect) refers to gui_alloc.o(i.GUI_ALLOC_h2p) for GUI_ALLOC_h2p
    wm_lib.o(i.WM_GetWindowRect) refers to gui_task.o(i.GUI_Unlock) for GUI_Unlock
    wm_lib.o(i.WM_GetWindowRect) refers to wm.o(.data) for WM__hATransWindow
    wm_lib.o(i.WM_GetWindowRect) refers to gui_core.o(.data) for GUI_pContext
    wm_lib.o(i.WM_GetWindowRectEx) refers to gui_task.o(i.GUI_Lock) for GUI_Lock
    wm_lib.o(i.WM_GetWindowRectEx) refers to gui_alloc.o(i.GUI_ALLOC_h2p) for GUI_ALLOC_h2p
    wm_lib.o(i.WM_GetWindowRectEx) refers to gui_task.o(i.GUI_Unlock) for GUI_Unlock
    wm_lib.o(i.WM_HasCaptured) refers to wm.o(.data) for WM__ahCapture
    wm_lib.o(i.WM_HasFocus) refers to wm.o(.data) for WM__ahWinFocus
    wm_lib.o(i.WM_InvalidateArea) refers to gui_task.o(i.GUI_Lock) for GUI_Lock
    wm_lib.o(i.WM_InvalidateArea) refers to wm.o(i.WM__Invalidate1Abs) for WM__Invalidate1Abs
    wm_lib.o(i.WM_InvalidateArea) refers to gui_alloc.o(i.GUI_ALLOC_h2p) for GUI_ALLOC_h2p
    wm_lib.o(i.WM_InvalidateArea) refers to gui_task.o(i.GUI_Unlock) for GUI_Unlock
    wm_lib.o(i.WM_InvalidateArea) refers to wm.o(.data) for WM__FirstWin
    wm_lib.o(i.WM_InvalidateWindowAndDescs) refers to gui_task.o(i.GUI_Lock) for GUI_Lock
    wm_lib.o(i.WM_InvalidateWindowAndDescs) refers to wm.o(i.WM_InvalidateWindow) for WM_InvalidateWindow
    wm_lib.o(i.WM_InvalidateWindowAndDescs) refers to gui_alloc.o(i.GUI_ALLOC_h2p) for GUI_ALLOC_h2p
    wm_lib.o(i.WM_InvalidateWindowAndDescs) refers to gui_task.o(i.GUI_Unlock) for GUI_Unlock
    wm_lib.o(i.WM_IsEnabled) refers to gui_task.o(i.GUI_Lock) for GUI_Lock
    wm_lib.o(i.WM_IsEnabled) refers to wm__private.o(i.WM__IsEnabled) for WM__IsEnabled
    wm_lib.o(i.WM_IsEnabled) refers to gui_task.o(i.GUI_Unlock) for GUI_Unlock
    wm_lib.o(i.WM_IsFocusable) refers to gui_task.o(i.GUI_Lock) for GUI_Lock
    wm_lib.o(i.WM_IsFocusable) refers to gui_alloc.o(i.GUI_ALLOC_h2p) for GUI_ALLOC_h2p
    wm_lib.o(i.WM_IsFocusable) refers to gui_task.o(i.GUI_Unlock) for GUI_Unlock
    wm_lib.o(i.WM_IsFocusable) refers to wm.o(i.WM_SendMessage) for WM_SendMessage
    wm_lib.o(i.WM_IsVisible) refers to gui_task.o(i.GUI_Lock) for GUI_Lock
    wm_lib.o(i.WM_IsVisible) refers to gui_alloc.o(i.GUI_ALLOC_h2p) for GUI_ALLOC_h2p
    wm_lib.o(i.WM_IsVisible) refers to gui_task.o(i.GUI_Unlock) for GUI_Unlock
    wm_lib.o(i.WM_IsWindow) refers to gui_task.o(i.GUI_Lock) for GUI_Lock
    wm_lib.o(i.WM_IsWindow) refers to wm.o(i.WM__IsWindow) for WM__IsWindow
    wm_lib.o(i.WM_IsWindow) refers to gui_task.o(i.GUI_Unlock) for GUI_Unlock
    wm_lib.o(i.WM_MoveChildTo) refers to gui_task.o(i.GUI_Lock) for GUI_Lock
    wm_lib.o(i.WM_MoveChildTo) refers to gui_alloc.o(i.GUI_ALLOC_h2p) for GUI_ALLOC_h2p
    wm_lib.o(i.WM_MoveChildTo) refers to gui_task.o(i.GUI_Unlock) for GUI_Unlock
    wm_lib.o(i.WM_MoveChildTo) refers to gui_alloc.o(i.GUI_ALLOC_LockH) for GUI_ALLOC_LockH
    wm_lib.o(i.WM_MoveChildTo) refers to gui_alloc.o(i.GUI_ALLOC_UnlockH) for GUI_ALLOC_UnlockH
    wm_lib.o(i.WM_MoveChildTo) refers to wm_move.o(i.WM__MoveWindow) for WM__MoveWindow
    wm_lib.o(i.WM_NotifyParent) refers to gui_task.o(i.GUI_Lock) for GUI_Lock
    wm_lib.o(i.WM_NotifyParent) refers to gui_alloc.o(i.GUI_ALLOC_h2p) for GUI_ALLOC_h2p
    wm_lib.o(i.WM_NotifyParent) refers to gui_task.o(i.GUI_Unlock) for GUI_Unlock
    wm_lib.o(i.WM_NotifyParent) refers to wm__private.o(i.WM__SendMessage) for WM__SendMessage
    wm_lib.o(i.WM_OnKey) refers to gui_task.o(i.GUI_Lock) for GUI_Lock
    wm_lib.o(i.WM_OnKey) refers to wm__private.o(i.WM__SendMessage) for WM__SendMessage
    wm_lib.o(i.WM_OnKey) refers to gui_task.o(i.GUI_Unlock) for GUI_Unlock
    wm_lib.o(i.WM_OnKey) refers to wm.o(.data) for WM__ahWinFocus
    wm_lib.o(i.WM_Paint) refers to wm.o(i.WM_InvalidateWindow) for WM_InvalidateWindow
    wm_lib.o(i.WM_Paint) refers to gui_task.o(i.GUI_Lock) for GUI_Lock
    wm_lib.o(i.WM_Paint) refers to gui_common.o(i.GUI_SaveContext_W) for GUI_SaveContext_W
    wm_lib.o(i.WM_Paint) refers to wm.o(i.WM__Paint) for WM__Paint
    wm_lib.o(i.WM_Paint) refers to gui_common.o(i.GUI_RestoreContext) for GUI_RestoreContext
    wm_lib.o(i.WM_Paint) refers to gui_task.o(i.GUI_Unlock) for GUI_Unlock
    wm_lib.o(i.WM_Paint) refers to lcd.o(i.LCD_SetColor) for LCD_SetColor
    wm_lib.o(i.WM_Paint) refers to lcd.o(i.LCD_SetBkColor) for LCD_SetBkColor
    wm_lib.o(i.WM_ResizeWindow) refers to gui_task.o(i.GUI_Lock) for GUI_Lock
    wm_lib.o(i.WM_ResizeWindow) refers to gui_alloc.o(i.GUI_ALLOC_LockH) for GUI_ALLOC_LockH
    wm_lib.o(i.WM_ResizeWindow) refers to wm.o(i.WM__InvalidateDrawAndDescs) for WM__InvalidateDrawAndDescs
    wm_lib.o(i.WM_ResizeWindow) refers to gui_common.o(i.GUI_MergeRect) for GUI_MergeRect
    wm_lib.o(i.WM_ResizeWindow) refers to wm.o(i.WM__InvalidateRectEx) for WM__InvalidateRectEx
    wm_lib.o(i.WM_ResizeWindow) refers to wm__private.o(i.WM__UpdateChildPositions) for WM__UpdateChildPositions
    wm_lib.o(i.WM_ResizeWindow) refers to gui__private.o(i.GUI__IntersectRect) for GUI__IntersectRect
    wm_lib.o(i.WM_ResizeWindow) refers to wm.o(i.WM__SendMsgNoData) for WM__SendMsgNoData
    wm_lib.o(i.WM_ResizeWindow) refers to gui_alloc.o(i.GUI_ALLOC_UnlockH) for GUI_ALLOC_UnlockH
    wm_lib.o(i.WM_ResizeWindow) refers to gui_task.o(i.GUI_Unlock) for GUI_Unlock
    wm_lib.o(i.WM_SendMessageNoPara) refers to gui_task.o(i.GUI_Lock) for GUI_Lock
    wm_lib.o(i.WM_SendMessageNoPara) refers to wm__private.o(i.WM__SendMessageNoPara) for WM__SendMessageNoPara
    wm_lib.o(i.WM_SendMessageNoPara) refers to gui_task.o(i.GUI_Unlock) for GUI_Unlock
    wm_lib.o(i.WM_SendToParent) refers to gui_task.o(i.GUI_Lock) for GUI_Lock
    wm_lib.o(i.WM_SendToParent) refers to gui_alloc.o(i.GUI_ALLOC_h2p) for GUI_ALLOC_h2p
    wm_lib.o(i.WM_SendToParent) refers to gui_task.o(i.GUI_Unlock) for GUI_Unlock
    wm_lib.o(i.WM_SendToParent) refers to wm__private.o(i.WM__SendMessage) for WM__SendMessage
    wm_lib.o(i.WM_SetAnchor) refers to gui_task.o(i.GUI_Lock) for GUI_Lock
    wm_lib.o(i.WM_SetAnchor) refers to gui_alloc.o(i.GUI_ALLOC_LockH) for GUI_ALLOC_LockH
    wm_lib.o(i.WM_SetAnchor) refers to gui_alloc.o(i.GUI_ALLOC_UnlockH) for GUI_ALLOC_UnlockH
    wm_lib.o(i.WM_SetAnchor) refers to gui_task.o(i.GUI_Unlock) for GUI_Unlock
    wm_lib.o(i.WM_SetCallback) refers to gui_task.o(i.GUI_Lock) for GUI_Lock
    wm_lib.o(i.WM_SetCallback) refers to gui_alloc.o(i.GUI_ALLOC_LockH) for GUI_ALLOC_LockH
    wm_lib.o(i.WM_SetCallback) refers to gui_alloc.o(i.GUI_ALLOC_UnlockH) for GUI_ALLOC_UnlockH
    wm_lib.o(i.WM_SetCallback) refers to wm.o(i.WM_InvalidateWindow) for WM_InvalidateWindow
    wm_lib.o(i.WM_SetCallback) refers to gui_task.o(i.GUI_Unlock) for GUI_Unlock
    wm_lib.o(i.WM_SetCreateFlags) refers to wm.o(.data) for WM__CreateFlags
    wm_lib.o(i.WM_SetDesktopColor) refers to wm.o(i.WM_InvalidateWindow) for WM_InvalidateWindow
    wm_lib.o(i.WM_SetDesktopColor) refers to gui_core.o(.data) for GUI_pContext
    wm_lib.o(i.WM_SetDesktopColor) refers to wm.o(.data) for WM__aBkColor
    wm_lib.o(i.WM_SetDesktopColorEx) refers to wm.o(i.WM_InvalidateWindow) for WM_InvalidateWindow
    wm_lib.o(i.WM_SetDesktopColorEx) refers to wm.o(.data) for WM__aBkColor
    wm_lib.o(i.WM_SetDesktopColors) refers to wm.o(i.WM_InvalidateWindow) for WM_InvalidateWindow
    wm_lib.o(i.WM_SetDesktopColors) refers to wm.o(.data) for WM__aBkColor
    wm_lib.o(i.WM_SetEnableState) refers to gui_task.o(i.GUI_Lock) for GUI_Lock
    wm_lib.o(i.WM_SetEnableState) refers to gui_alloc.o(i.GUI_ALLOC_LockH) for GUI_ALLOC_LockH
    wm_lib.o(i.WM_SetEnableState) refers to gui_alloc.o(i.GUI_ALLOC_UnlockH) for GUI_ALLOC_UnlockH
    wm_lib.o(i.WM_SetEnableState) refers to wm__private.o(i.WM__SendMessage) for WM__SendMessage
    wm_lib.o(i.WM_SetEnableState) refers to gui_task.o(i.GUI_Unlock) for GUI_Unlock
    wm_lib.o(i.WM_SetFocus) refers to gui_task.o(i.GUI_Lock) for GUI_Lock
    wm_lib.o(i.WM_SetFocus) refers to wm__private.o(i.WM__SendMessage) for WM__SendMessage
    wm_lib.o(i.WM_SetFocus) refers to gui_alloc.o(i.GUI_ALLOC_h2p) for GUI_ALLOC_h2p
    wm_lib.o(i.WM_SetFocus) refers to gui_task.o(i.GUI_Unlock) for GUI_Unlock
    wm_lib.o(i.WM_SetFocus) refers to wm.o(i.WM__IsWindow) for WM__IsWindow
    wm_lib.o(i.WM_SetFocus) refers to wm.o(.data) for WM__ahWinFocus
    wm_lib.o(i.WM_SetId) refers to wm.o(i.WM_SendMessage) for WM_SendMessage
    wm_lib.o(i.WM_SetScrollState) refers to wm.o(i.WM_SendMessage) for WM_SendMessage
    wm_lib.o(i.WM_SetSize) refers to gui_task.o(i.GUI_Lock) for GUI_Lock
    wm_lib.o(i.WM_SetSize) refers to gui_alloc.o(i.GUI_ALLOC_LockH) for GUI_ALLOC_LockH
    wm_lib.o(i.WM_SetSize) refers to gui_alloc.o(i.GUI_ALLOC_UnlockH) for GUI_ALLOC_UnlockH
    wm_lib.o(i.WM_SetSize) refers to wm_lib.o(i.WM_ResizeWindow) for WM_ResizeWindow
    wm_lib.o(i.WM_SetSize) refers to gui_task.o(i.GUI_Unlock) for GUI_Unlock
    wm_lib.o(i.WM_SetStayOnTop) refers to gui_task.o(i.GUI_Lock) for GUI_Lock
    wm_lib.o(i.WM_SetStayOnTop) refers to gui_alloc.o(i.GUI_ALLOC_LockH) for GUI_ALLOC_LockH
    wm_lib.o(i.WM_SetStayOnTop) refers to gui_alloc.o(i.GUI_ALLOC_h2p) for GUI_ALLOC_h2p
    wm_lib.o(i.WM_SetStayOnTop) refers to gui_task.o(i.GUI_Unlock) for GUI_Unlock
    wm_lib.o(i.WM_SetStayOnTop) refers to wm_lib.o(i.WM_AttachWindow) for WM_AttachWindow
    wm_lib.o(i.WM_SetStayOnTop) refers to gui_alloc.o(i.GUI_ALLOC_UnlockH) for GUI_ALLOC_UnlockH
    wm_lib.o(i.WM_SetUserClipRect) refers to gui_task.o(i.GUI_Lock) for GUI_Lock
    wm_lib.o(i.WM_SetUserClipRect) refers to wm.o(i.WM__ActivateClipRect) for WM__ActivateClipRect
    wm_lib.o(i.WM_SetUserClipRect) refers to gui_task.o(i.GUI_Unlock) for GUI_Unlock
    wm_lib.o(i.WM_SetUserClipRect) refers to gui_core.o(.data) for GUI_pContext
    wm_lib.o(i.WM_SetWindowPos) refers to gui_task.o(i.GUI_Lock) for GUI_Lock
    wm_lib.o(i.WM_SetWindowPos) refers to gui_alloc.o(i.GUI_ALLOC_LockH) for GUI_ALLOC_LockH
    wm_lib.o(i.WM_SetWindowPos) refers to gui_alloc.o(i.GUI_ALLOC_UnlockH) for GUI_ALLOC_UnlockH
    wm_lib.o(i.WM_SetWindowPos) refers to wm_lib.o(i.WM_ResizeWindow) for WM_ResizeWindow
    wm_lib.o(i.WM_SetWindowPos) refers to gui_task.o(i.GUI_Unlock) for GUI_Unlock
    wm_lib.o(i.WM_SetWindowPos) refers to wm_move.o(i.WM_MoveTo) for WM_MoveTo
    wm_lib.o(i.WM_SetXSize) refers to gui_task.o(i.GUI_Lock) for GUI_Lock
    wm_lib.o(i.WM_SetXSize) refers to gui_alloc.o(i.GUI_ALLOC_LockH) for GUI_ALLOC_LockH
    wm_lib.o(i.WM_SetXSize) refers to wm_lib.o(i.WM_ResizeWindow) for WM_ResizeWindow
    wm_lib.o(i.WM_SetXSize) refers to gui_alloc.o(i.GUI_ALLOC_UnlockH) for GUI_ALLOC_UnlockH
    wm_lib.o(i.WM_SetXSize) refers to gui_task.o(i.GUI_Unlock) for GUI_Unlock
    wm_lib.o(i.WM_SetYSize) refers to gui_task.o(i.GUI_Lock) for GUI_Lock
    wm_lib.o(i.WM_SetYSize) refers to gui_alloc.o(i.GUI_ALLOC_LockH) for GUI_ALLOC_LockH
    wm_lib.o(i.WM_SetYSize) refers to wm_lib.o(i.WM_ResizeWindow) for WM_ResizeWindow
    wm_lib.o(i.WM_SetYSize) refers to gui_alloc.o(i.GUI_ALLOC_UnlockH) for GUI_ALLOC_UnlockH
    wm_lib.o(i.WM_SetYSize) refers to gui_task.o(i.GUI_Unlock) for GUI_Unlock
    wm_lib.o(i.WM_SetpfPollPID) refers to wm.o(.data) for WM_pfPollPID
    wm_lib.o(i.WM_ShowWindow) refers to gui_task.o(i.GUI_Lock) for GUI_Lock
    wm_lib.o(i.WM_ShowWindow) refers to gui_alloc.o(i.GUI_ALLOC_LockH) for GUI_ALLOC_LockH
    wm_lib.o(i.WM_ShowWindow) refers to wm.o(i.WM_InvalidateWindow) for WM_InvalidateWindow
    wm_lib.o(i.WM_ShowWindow) refers to gui_alloc.o(i.GUI_ALLOC_h2p) for GUI_ALLOC_h2p
    wm_lib.o(i.WM_ShowWindow) refers to gui_task.o(i.GUI_Unlock) for GUI_Unlock
    wm_lib.o(i.WM_ShowWindow) refers to wm_lib.o(i.WM_InvalidateWindowAndDescs) for WM_InvalidateWindowAndDescs
    wm_lib.o(i.WM_ShowWindow) refers to gui_alloc.o(i.GUI_ALLOC_UnlockH) for GUI_ALLOC_UnlockH
    wm_lib.o(i.WM_Update) refers to gui_task.o(i.GUI_Lock) for GUI_Lock
    wm_lib.o(i.WM_Update) refers to gui_common.o(i.GUI_SaveContext_W) for GUI_SaveContext_W
    wm_lib.o(i.WM_Update) refers to wm.o(i.WM__Paint) for WM__Paint
    wm_lib.o(i.WM_Update) refers to gui_common.o(i.GUI_RestoreContext) for GUI_RestoreContext
    wm_lib.o(i.WM_Update) refers to gui_task.o(i.GUI_Unlock) for GUI_Unlock
    wm_lib.o(i.WM_Update) refers to lcd.o(i.LCD_SetColor) for LCD_SetColor
    wm_lib.o(i.WM_Update) refers to lcd.o(i.LCD_SetBkColor) for LCD_SetBkColor
    wm_lib.o(i.WM_ValidateWindow) refers to gui_task.o(i.GUI_Lock) for GUI_Lock
    wm_lib.o(i.WM_ValidateWindow) refers to gui_alloc.o(i.GUI_ALLOC_LockH) for GUI_ALLOC_LockH
    wm_lib.o(i.WM_ValidateWindow) refers to gui_alloc.o(i.GUI_ALLOC_UnlockH) for GUI_ALLOC_UnlockH
    wm_lib.o(i.WM_ValidateWindow) refers to gui_task.o(i.GUI_Unlock) for GUI_Unlock
    wm_lib.o(i.WM_ValidateWindow) refers to wm.o(.data) for WM__NumInvalidWindows
    wm_lib.o(i._GetDialogItem) refers to gui_alloc.o(i.GUI_ALLOC_h2p) for GUI_ALLOC_h2p
    wm_lib.o(i._GetDialogItem) refers to wm.o(i.WM_SendMessage) for WM_SendMessage
    wm_memdev.o(i.WM_DisableMemdev) refers to gui_task.o(i.GUI_Lock) for GUI_Lock
    wm_memdev.o(i.WM_DisableMemdev) refers to gui_alloc.o(i.GUI_ALLOC_h2p) for GUI_ALLOC_h2p
    wm_memdev.o(i.WM_DisableMemdev) refers to gui_task.o(i.GUI_Unlock) for GUI_Unlock
    wm_memdev.o(i.WM_EnableMemdev) refers to gui_task.o(i.GUI_Lock) for GUI_Lock
    wm_memdev.o(i.WM_EnableMemdev) refers to gui_alloc.o(i.GUI_ALLOC_h2p) for GUI_ALLOC_h2p
    wm_memdev.o(i.WM_EnableMemdev) refers to gui_task.o(i.GUI_Unlock) for GUI_Unlock
    arm_sin_cos_f32.o(.text) refers to arm_common_tables.o(.constdata) for sinTable_f32
    rtx_kernel.o(.text.svcRtxKernelInitialize) refers to rtx_kernel.o(.data.os) for osRtxInfo
    rtx_kernel.o(.text.svcRtxKernelInitialize) refers to rt_memclr_w.o(.text) for __aeabi_memclr8
    rtx_kernel.o(.text.svcRtxKernelInitialize) refers to rtx_lib.o(.rodata) for osRtxConfig
    rtx_kernel.o(.text.svcRtxKernelInitialize) refers to rtx_memory.o(.text.osRtxMemoryInit) for osRtxMemoryInit
    rtx_kernel.o(.text.svcRtxKernelInitialize) refers to rtx_mempool.o(.text.osRtxMemoryPoolInit) for osRtxMemoryPoolInit
    rtx_kernel.o(.ARM.exidx.text.svcRtxKernelInitialize) refers to rtx_kernel.o(.text.svcRtxKernelInitialize) for [Anonymous Symbol]
    rtx_kernel.o(.text.svcRtxKernelGetInfo) refers to rtx_kernel.o(.rodata.str1.4) for .L.str
    rtx_kernel.o(.text.svcRtxKernelGetInfo) refers to rt_memcpy_v6.o(.text) for __aeabi_memcpy
    rtx_kernel.o(.ARM.exidx.text.svcRtxKernelGetInfo) refers to rtx_kernel.o(.text.svcRtxKernelGetInfo) for [Anonymous Symbol]
    rtx_kernel.o(.text.svcRtxKernelGetState) refers to rtx_kernel.o(.data.os) for osRtxInfo
    rtx_kernel.o(.ARM.exidx.text.svcRtxKernelGetState) refers to rtx_kernel.o(.text.svcRtxKernelGetState) for [Anonymous Symbol]
    rtx_kernel.o(.text.svcRtxKernelStart) refers to rtx_kernel.o(.data.os) for osRtxInfo
    rtx_kernel.o(.text.svcRtxKernelStart) refers to rtx_lib.o(.rodata) for osRtxConfig
    rtx_kernel.o(.text.svcRtxKernelStart) refers to rtx_config.o(i.osRtxIdleThread) for osRtxIdleThread
    rtx_kernel.o(.text.svcRtxKernelStart) refers to rtx_thread.o(.text.svcRtxThreadNew) for svcRtxThreadNew
    rtx_kernel.o(.text.svcRtxKernelStart) refers to rtx_thread.o(.text.osRtxThreadListGet) for osRtxThreadListGet
    rtx_kernel.o(.text.svcRtxKernelStart) refers to rtx_thread.o(.text.osRtxThreadSwitch) for osRtxThreadSwitch
    rtx_kernel.o(.text.svcRtxKernelStart) refers to system_stm32f4xx.o(.data) for SystemCoreClock
    rtx_kernel.o(.text.svcRtxKernelStart) refers to rtx_system.o(.text.osRtxSysTimerSetup) for osRtxSysTimerSetup
    rtx_kernel.o(.text.svcRtxKernelStart) refers to rtx_system.o(.text.osRtxSysTimerEnable) for osRtxSysTimerEnable
    rtx_kernel.o(.ARM.exidx.text.svcRtxKernelStart) refers to rtx_kernel.o(.text.svcRtxKernelStart) for [Anonymous Symbol]
    rtx_kernel.o(.text.svcRtxKernelLock) refers to rtx_kernel.o(.data.os) for osRtxInfo
    rtx_kernel.o(.ARM.exidx.text.svcRtxKernelLock) refers to rtx_kernel.o(.text.svcRtxKernelLock) for [Anonymous Symbol]
    rtx_kernel.o(.text.svcRtxKernelUnlock) refers to rtx_kernel.o(.data.os) for osRtxInfo
    rtx_kernel.o(.ARM.exidx.text.svcRtxKernelUnlock) refers to rtx_kernel.o(.text.svcRtxKernelUnlock) for [Anonymous Symbol]
    rtx_kernel.o(.text.svcRtxKernelRestoreLock) refers to rtx_kernel.o(.data.os) for osRtxInfo
    rtx_kernel.o(.ARM.exidx.text.svcRtxKernelRestoreLock) refers to rtx_kernel.o(.text.svcRtxKernelRestoreLock) for [Anonymous Symbol]
    rtx_kernel.o(.text.svcRtxKernelSuspend) refers to rtx_kernel.o(.data.os) for osRtxInfo
    rtx_kernel.o(.text.svcRtxKernelSuspend) refers to rtx_system.o(.text.osRtxSysTimerDisable) for osRtxSysTimerDisable
    rtx_kernel.o(.ARM.exidx.text.svcRtxKernelSuspend) refers to rtx_kernel.o(.text.svcRtxKernelSuspend) for [Anonymous Symbol]
    rtx_kernel.o(.text.svcRtxKernelResume) refers to rtx_kernel.o(.data.os) for osRtxInfo
    rtx_kernel.o(.text.svcRtxKernelResume) refers to rtx_thread.o(.text.osRtxThreadDelayTick) for osRtxThreadDelayTick
    rtx_kernel.o(.text.svcRtxKernelResume) refers to rtx_timer.o(.text.osRtxTimerTick) for osRtxTimerTick
    rtx_kernel.o(.text.svcRtxKernelResume) refers to rtx_thread.o(.text.osRtxThreadDispatch) for osRtxThreadDispatch
    rtx_kernel.o(.text.svcRtxKernelResume) refers to rtx_system.o(.text.osRtxSysTimerEnable) for osRtxSysTimerEnable
    rtx_kernel.o(.ARM.exidx.text.svcRtxKernelResume) refers to rtx_kernel.o(.text.svcRtxKernelResume) for [Anonymous Symbol]
    rtx_kernel.o(.text.svcRtxKernelGetTickCount) refers to rtx_kernel.o(.data.os) for osRtxInfo
    rtx_kernel.o(.ARM.exidx.text.svcRtxKernelGetTickCount) refers to rtx_kernel.o(.text.svcRtxKernelGetTickCount) for [Anonymous Symbol]
    rtx_kernel.o(.text.svcRtxKernelGetTickFreq) refers to rtx_lib.o(.rodata) for osRtxConfig
    rtx_kernel.o(.ARM.exidx.text.svcRtxKernelGetTickFreq) refers to rtx_kernel.o(.text.svcRtxKernelGetTickFreq) for [Anonymous Symbol]
    rtx_kernel.o(.text.svcRtxKernelGetSysTimerCount) refers to rtx_system.o(.text.osRtxSysTimerGetCount) for osRtxSysTimerGetCount
    rtx_kernel.o(.ARM.exidx.text.svcRtxKernelGetSysTimerCount) refers to rtx_kernel.o(.text.svcRtxKernelGetSysTimerCount) for [Anonymous Symbol]
    rtx_kernel.o(.text.svcRtxKernelGetSysTimerFreq) refers to rtx_system.o(.text.osRtxSysTimerGetFreq) for osRtxSysTimerGetFreq
    rtx_kernel.o(.ARM.exidx.text.svcRtxKernelGetSysTimerFreq) refers to rtx_kernel.o(.text.svcRtxKernelGetSysTimerFreq) for [Anonymous Symbol]
    rtx_kernel.o(.text.osKernelInitialize) refers to rtx_kernel.o(.text.svcRtxKernelInitialize) for svcRtxKernelInitialize
    rtx_kernel.o(.ARM.exidx.text.osKernelInitialize) refers to rtx_kernel.o(.text.osKernelInitialize) for [Anonymous Symbol]
    rtx_kernel.o(.text.osKernelGetInfo) refers to rtx_kernel.o(.rodata.str1.4) for .L.str
    rtx_kernel.o(.text.osKernelGetInfo) refers to rt_memcpy_v6.o(.text) for __aeabi_memcpy
    rtx_kernel.o(.text.osKernelGetInfo) refers to rtx_kernel.o(.text.svcRtxKernelGetInfo) for svcRtxKernelGetInfo
    rtx_kernel.o(.ARM.exidx.text.osKernelGetInfo) refers to rtx_kernel.o(.text.osKernelGetInfo) for [Anonymous Symbol]
    rtx_kernel.o(.text.osKernelGetState) refers to rtx_kernel.o(.data.os) for osRtxInfo
    rtx_kernel.o(.text.osKernelGetState) refers to rtx_kernel.o(.text.svcRtxKernelGetState) for svcRtxKernelGetState
    rtx_kernel.o(.ARM.exidx.text.osKernelGetState) refers to rtx_kernel.o(.text.osKernelGetState) for [Anonymous Symbol]
    rtx_kernel.o(.text.osKernelStart) refers to rtx_kernel.o(.text.svcRtxKernelStart) for svcRtxKernelStart
    rtx_kernel.o(.ARM.exidx.text.osKernelStart) refers to rtx_kernel.o(.text.osKernelStart) for [Anonymous Symbol]
    rtx_kernel.o(.text.osKernelLock) refers to rtx_kernel.o(.text.svcRtxKernelLock) for svcRtxKernelLock
    rtx_kernel.o(.ARM.exidx.text.osKernelLock) refers to rtx_kernel.o(.text.osKernelLock) for [Anonymous Symbol]
    rtx_kernel.o(.text.osKernelUnlock) refers to rtx_kernel.o(.text.svcRtxKernelUnlock) for svcRtxKernelUnlock
    rtx_kernel.o(.ARM.exidx.text.osKernelUnlock) refers to rtx_kernel.o(.text.osKernelUnlock) for [Anonymous Symbol]
    rtx_kernel.o(.text.osKernelRestoreLock) refers to rtx_kernel.o(.text.svcRtxKernelRestoreLock) for svcRtxKernelRestoreLock
    rtx_kernel.o(.ARM.exidx.text.osKernelRestoreLock) refers to rtx_kernel.o(.text.osKernelRestoreLock) for [Anonymous Symbol]
    rtx_kernel.o(.text.osKernelSuspend) refers to rtx_kernel.o(.text.svcRtxKernelSuspend) for svcRtxKernelSuspend
    rtx_kernel.o(.ARM.exidx.text.osKernelSuspend) refers to rtx_kernel.o(.text.osKernelSuspend) for [Anonymous Symbol]
    rtx_kernel.o(.text.osKernelResume) refers to rtx_kernel.o(.text.svcRtxKernelResume) for svcRtxKernelResume
    rtx_kernel.o(.ARM.exidx.text.osKernelResume) refers to rtx_kernel.o(.text.osKernelResume) for [Anonymous Symbol]
    rtx_kernel.o(.text.osKernelGetTickCount) refers to rtx_kernel.o(.text.svcRtxKernelGetTickCount) for svcRtxKernelGetTickCount
    rtx_kernel.o(.ARM.exidx.text.osKernelGetTickCount) refers to rtx_kernel.o(.text.osKernelGetTickCount) for [Anonymous Symbol]
    rtx_kernel.o(.text.osKernelGetTickFreq) refers to rtx_kernel.o(.text.svcRtxKernelGetTickFreq) for svcRtxKernelGetTickFreq
    rtx_kernel.o(.ARM.exidx.text.osKernelGetTickFreq) refers to rtx_kernel.o(.text.osKernelGetTickFreq) for [Anonymous Symbol]
    rtx_kernel.o(.text.osKernelGetSysTimerCount) refers to rtx_system.o(.text.osRtxSysTimerGetCount) for osRtxSysTimerGetCount
    rtx_kernel.o(.text.osKernelGetSysTimerCount) refers to rtx_kernel.o(.text.svcRtxKernelGetSysTimerCount) for svcRtxKernelGetSysTimerCount
    rtx_kernel.o(.ARM.exidx.text.osKernelGetSysTimerCount) refers to rtx_kernel.o(.text.osKernelGetSysTimerCount) for [Anonymous Symbol]
    rtx_kernel.o(.text.osKernelGetSysTimerFreq) refers to rtx_system.o(.text.osRtxSysTimerGetFreq) for osRtxSysTimerGetFreq
    rtx_kernel.o(.text.osKernelGetSysTimerFreq) refers to rtx_kernel.o(.text.svcRtxKernelGetSysTimerFreq) for svcRtxKernelGetSysTimerFreq
    rtx_kernel.o(.ARM.exidx.text.osKernelGetSysTimerFreq) refers to rtx_kernel.o(.text.osKernelGetSysTimerFreq) for [Anonymous Symbol]
    rtx_kernel.o(.data.os) refers to rtx_kernel.o(.rodata.str1.4) for .L.str
    rtx_kernel.o(.data.irqRtxLibRef) refers to irq_cm4f.o(.constdata) for irqRtxLib
    rtx_thread.o(.ARM.exidx.text.osRtxThreadListPut) refers to rtx_thread.o(.text.osRtxThreadListPut) for [Anonymous Symbol]
    rtx_thread.o(.ARM.exidx.text.osRtxThreadListGet) refers to rtx_thread.o(.text.osRtxThreadListGet) for [Anonymous Symbol]
    rtx_thread.o(.ARM.exidx.text.osRtxThreadListRoot) refers to rtx_thread.o(.text.osRtxThreadListRoot) for [Anonymous Symbol]
    rtx_thread.o(.ARM.exidx.text.osRtxThreadListSort) refers to rtx_thread.o(.text.osRtxThreadListSort) for [Anonymous Symbol]
    rtx_thread.o(.ARM.exidx.text.osRtxThreadListRemove) refers to rtx_thread.o(.text.osRtxThreadListRemove) for [Anonymous Symbol]
    rtx_thread.o(.ARM.exidx.text.osRtxThreadListUnlink) refers to rtx_thread.o(.text.osRtxThreadListUnlink) for [Anonymous Symbol]
    rtx_thread.o(.text.osRtxThreadReadyPut) refers to rtx_kernel.o(.data.os) for osRtxInfo
    rtx_thread.o(.ARM.exidx.text.osRtxThreadReadyPut) refers to rtx_thread.o(.text.osRtxThreadReadyPut) for [Anonymous Symbol]
    rtx_thread.o(.text.osRtxThreadDelayInsert) refers to rtx_kernel.o(.data.os) for osRtxInfo
    rtx_thread.o(.ARM.exidx.text.osRtxThreadDelayInsert) refers to rtx_thread.o(.text.osRtxThreadDelayInsert) for [Anonymous Symbol]
    rtx_thread.o(.text.osRtxThreadDelayRemove) refers to rtx_kernel.o(.data.os) for osRtxInfo
    rtx_thread.o(.ARM.exidx.text.osRtxThreadDelayRemove) refers to rtx_thread.o(.text.osRtxThreadDelayRemove) for [Anonymous Symbol]
    rtx_thread.o(.text.osRtxThreadDelayTick) refers to rtx_kernel.o(.data.os) for osRtxInfo
    rtx_thread.o(.ARM.exidx.text.osRtxThreadDelayTick) refers to rtx_thread.o(.text.osRtxThreadDelayTick) for [Anonymous Symbol]
    rtx_thread.o(.ARM.exidx.text.osRtxThreadRegPtr) refers to rtx_thread.o(.text.osRtxThreadRegPtr) for [Anonymous Symbol]
    rtx_thread.o(.text.osRtxThreadBlock) refers to rtx_kernel.o(.data.os) for osRtxInfo
    rtx_thread.o(.ARM.exidx.text.osRtxThreadBlock) refers to rtx_thread.o(.text.osRtxThreadBlock) for [Anonymous Symbol]
    rtx_thread.o(.text.osRtxThreadSwitch) refers to rtx_kernel.o(.data.os) for osRtxInfo
    rtx_thread.o(.text.osRtxThreadSwitch) refers to rtx_thread.o(.text.osRtxThreadStackCheck) for osRtxThreadStackCheck
    rtx_thread.o(.ARM.exidx.text.osRtxThreadSwitch) refers to rtx_thread.o(.text.osRtxThreadSwitch) for [Anonymous Symbol]
    rtx_thread.o(.text.osRtxThreadStackCheck) refers to rtx_kernel.o(.data.os) for osRtxInfo
    rtx_thread.o(.text.osRtxThreadStackCheck) refers to rtx_config.o(i.osRtxErrorNotify) for osRtxErrorNotify
    rtx_thread.o(.ARM.exidx.text.osRtxThreadStackCheck) refers to rtx_thread.o(.text.osRtxThreadStackCheck) for [Anonymous Symbol]
    rtx_thread.o(.text.osRtxThreadDispatch) refers to rtx_kernel.o(.data.os) for osRtxInfo
    rtx_thread.o(.text.osRtxThreadDispatch) refers to rtx_thread.o(.text.osRtxThreadStackCheck) for osRtxThreadStackCheck
    rtx_thread.o(.ARM.exidx.text.osRtxThreadDispatch) refers to rtx_thread.o(.text.osRtxThreadDispatch) for [Anonymous Symbol]
    rtx_thread.o(.text.osRtxThreadWaitExit) refers to rtx_kernel.o(.data.os) for osRtxInfo
    rtx_thread.o(.text.osRtxThreadWaitExit) refers to rtx_thread.o(.text.osRtxThreadDispatch) for osRtxThreadDispatch
    rtx_thread.o(.ARM.exidx.text.osRtxThreadWaitExit) refers to rtx_thread.o(.text.osRtxThreadWaitExit) for [Anonymous Symbol]
    rtx_thread.o(.text.osRtxThreadWaitEnter) refers to rtx_kernel.o(.data.os) for osRtxInfo
    rtx_thread.o(.text.osRtxThreadWaitEnter) refers to rtx_thread.o(.text.osRtxThreadStackCheck) for osRtxThreadStackCheck
    rtx_thread.o(.ARM.exidx.text.osRtxThreadWaitEnter) refers to rtx_thread.o(.text.osRtxThreadWaitEnter) for [Anonymous Symbol]
    rtx_thread.o(.text.osRtxThreadPostProcess) refers to rtx_thread.o(.text.osRtxThreadWaitExit) for osRtxThreadWaitExit
    rtx_thread.o(.ARM.exidx.text.osRtxThreadPostProcess) refers to rtx_thread.o(.text.osRtxThreadPostProcess) for [Anonymous Symbol]
    rtx_thread.o(.text.svcRtxThreadNew) refers to rtx_kernel.o(.data.os) for osRtxInfo
    rtx_thread.o(.text.svcRtxThreadNew) refers to rtx_mempool.o(.text.osRtxMemoryPoolAlloc) for osRtxMemoryPoolAlloc
    rtx_thread.o(.text.svcRtxThreadNew) refers to rtx_memory.o(.text.osRtxMemoryAlloc) for osRtxMemoryAlloc
    rtx_thread.o(.text.svcRtxThreadNew) refers to rtx_lib.o(.rodata) for osRtxConfig
    rtx_thread.o(.text.svcRtxThreadNew) refers to aeabi_memset4.o(.text) for __aeabi_memset4
    rtx_thread.o(.text.svcRtxThreadNew) refers to rt_memclr_w.o(.text) for __aeabi_memclr4
    rtx_thread.o(.text.svcRtxThreadNew) refers to rtx_thread.o(.text.osThreadExit) for osThreadExit
    rtx_thread.o(.text.svcRtxThreadNew) refers to rtx_thread.o(.text.osRtxThreadPostProcess) for osRtxThreadPostProcess
    rtx_thread.o(.text.svcRtxThreadNew) refers to rtx_thread.o(.text.osRtxThreadDispatch) for osRtxThreadDispatch
    rtx_thread.o(.text.svcRtxThreadNew) refers to rtx_mempool.o(.text.osRtxMemoryPoolFree) for osRtxMemoryPoolFree
    rtx_thread.o(.text.svcRtxThreadNew) refers to rtx_memory.o(.text.osRtxMemoryFree) for osRtxMemoryFree
    rtx_thread.o(.ARM.exidx.text.svcRtxThreadNew) refers to rtx_thread.o(.text.svcRtxThreadNew) for [Anonymous Symbol]
    rtx_thread.o(.text.osThreadExit) refers to rtx_thread.o(.text.svcRtxThreadExit) for svcRtxThreadExit
    rtx_thread.o(.ARM.exidx.text.osThreadExit) refers to rtx_thread.o(.text.osThreadExit) for [Anonymous Symbol]
    rtx_thread.o(.ARM.exidx.text.svcRtxThreadGetName) refers to rtx_thread.o(.text.svcRtxThreadGetName) for [Anonymous Symbol]
    rtx_thread.o(.text.svcRtxThreadGetId) refers to rtx_kernel.o(.data.os) for osRtxInfo
    rtx_thread.o(.ARM.exidx.text.svcRtxThreadGetId) refers to rtx_thread.o(.text.svcRtxThreadGetId) for [Anonymous Symbol]
    rtx_thread.o(.ARM.exidx.text.svcRtxThreadGetState) refers to rtx_thread.o(.text.svcRtxThreadGetState) for [Anonymous Symbol]
    rtx_thread.o(.ARM.exidx.text.svcRtxThreadGetStackSize) refers to rtx_thread.o(.text.svcRtxThreadGetStackSize) for [Anonymous Symbol]
    rtx_thread.o(.text.svcRtxThreadGetStackSpace) refers to rtx_lib.o(.rodata) for osRtxConfig
    rtx_thread.o(.ARM.exidx.text.svcRtxThreadGetStackSpace) refers to rtx_thread.o(.text.svcRtxThreadGetStackSpace) for [Anonymous Symbol]
    rtx_thread.o(.text.svcRtxThreadSetPriority) refers to rtx_kernel.o(.data.os) for osRtxInfo
    rtx_thread.o(.text.svcRtxThreadSetPriority) refers to rtx_thread.o(.text.osRtxThreadStackCheck) for osRtxThreadStackCheck
    rtx_thread.o(.ARM.exidx.text.svcRtxThreadSetPriority) refers to rtx_thread.o(.text.svcRtxThreadSetPriority) for [Anonymous Symbol]
    rtx_thread.o(.ARM.exidx.text.svcRtxThreadGetPriority) refers to rtx_thread.o(.text.svcRtxThreadGetPriority) for [Anonymous Symbol]
    rtx_thread.o(.text.svcRtxThreadYield) refers to rtx_kernel.o(.data.os) for osRtxInfo
    rtx_thread.o(.text.svcRtxThreadYield) refers to rtx_thread.o(.text.osRtxThreadStackCheck) for osRtxThreadStackCheck
    rtx_thread.o(.ARM.exidx.text.svcRtxThreadYield) refers to rtx_thread.o(.text.svcRtxThreadYield) for [Anonymous Symbol]
    rtx_thread.o(.text.svcRtxThreadSuspend) refers to rtx_kernel.o(.data.os) for osRtxInfo
    rtx_thread.o(.text.svcRtxThreadSuspend) refers to rtx_thread.o(.text.osRtxThreadStackCheck) for osRtxThreadStackCheck
    rtx_thread.o(.ARM.exidx.text.svcRtxThreadSuspend) refers to rtx_thread.o(.text.svcRtxThreadSuspend) for [Anonymous Symbol]
    rtx_thread.o(.text.svcRtxThreadResume) refers to rtx_kernel.o(.data.os) for osRtxInfo
    rtx_thread.o(.text.svcRtxThreadResume) refers to rtx_thread.o(.text.osRtxThreadDispatch) for osRtxThreadDispatch
    rtx_thread.o(.ARM.exidx.text.svcRtxThreadResume) refers to rtx_thread.o(.text.svcRtxThreadResume) for [Anonymous Symbol]
    rtx_thread.o(.text.svcRtxThreadDetach) refers to rtx_kernel.o(.data.os) for osRtxInfo
    rtx_thread.o(.text.svcRtxThreadDetach) refers to rtx_memory.o(.text.osRtxMemoryFree) for osRtxMemoryFree
    rtx_thread.o(.text.svcRtxThreadDetach) refers to rtx_mempool.o(.text.osRtxMemoryPoolFree) for osRtxMemoryPoolFree
    rtx_thread.o(.ARM.exidx.text.svcRtxThreadDetach) refers to rtx_thread.o(.text.svcRtxThreadDetach) for [Anonymous Symbol]
    rtx_thread.o(.text.svcRtxThreadJoin) refers to rtx_kernel.o(.data.os) for osRtxInfo
    rtx_thread.o(.text.svcRtxThreadJoin) refers to rtx_thread.o(.text.osRtxThreadStackCheck) for osRtxThreadStackCheck
    rtx_thread.o(.text.svcRtxThreadJoin) refers to rtx_memory.o(.text.osRtxMemoryFree) for osRtxMemoryFree
    rtx_thread.o(.text.svcRtxThreadJoin) refers to rtx_mempool.o(.text.osRtxMemoryPoolFree) for osRtxMemoryPoolFree
    rtx_thread.o(.ARM.exidx.text.svcRtxThreadJoin) refers to rtx_thread.o(.text.svcRtxThreadJoin) for [Anonymous Symbol]
    rtx_thread.o(.text.svcRtxThreadExit) refers to rtx_kernel.o(.data.os) for osRtxInfo
    rtx_thread.o(.text.svcRtxThreadExit) refers to rtx_mutex.o(.text.osRtxMutexOwnerRelease) for osRtxMutexOwnerRelease
    rtx_thread.o(.text.svcRtxThreadExit) refers to rtx_thread.o(.text.osRtxThreadWaitExit) for osRtxThreadWaitExit
    rtx_thread.o(.text.svcRtxThreadExit) refers to rtx_thread.o(.text.osRtxThreadStackCheck) for osRtxThreadStackCheck
    rtx_thread.o(.text.svcRtxThreadExit) refers to rtx_memory.o(.text.osRtxMemoryFree) for osRtxMemoryFree
    rtx_thread.o(.text.svcRtxThreadExit) refers to rtx_mempool.o(.text.osRtxMemoryPoolFree) for osRtxMemoryPoolFree
    rtx_thread.o(.ARM.exidx.text.svcRtxThreadExit) refers to rtx_thread.o(.text.svcRtxThreadExit) for [Anonymous Symbol]
    rtx_thread.o(.text.svcRtxThreadTerminate) refers to rtx_kernel.o(.data.os) for osRtxInfo
    rtx_thread.o(.text.svcRtxThreadTerminate) refers to rtx_mutex.o(.text.osRtxMutexOwnerRelease) for osRtxMutexOwnerRelease
    rtx_thread.o(.text.svcRtxThreadTerminate) refers to rtx_thread.o(.text.osRtxThreadWaitExit) for osRtxThreadWaitExit
    rtx_thread.o(.text.svcRtxThreadTerminate) refers to rtx_thread.o(.text.osRtxThreadStackCheck) for osRtxThreadStackCheck
    rtx_thread.o(.text.svcRtxThreadTerminate) refers to rtx_memory.o(.text.osRtxMemoryFree) for osRtxMemoryFree
    rtx_thread.o(.text.svcRtxThreadTerminate) refers to rtx_mempool.o(.text.osRtxMemoryPoolFree) for osRtxMemoryPoolFree
    rtx_thread.o(.ARM.exidx.text.svcRtxThreadTerminate) refers to rtx_thread.o(.text.svcRtxThreadTerminate) for [Anonymous Symbol]
    rtx_thread.o(.text.svcRtxThreadGetCount) refers to rtx_kernel.o(.data.os) for osRtxInfo
    rtx_thread.o(.ARM.exidx.text.svcRtxThreadGetCount) refers to rtx_thread.o(.text.svcRtxThreadGetCount) for [Anonymous Symbol]
    rtx_thread.o(.text.svcRtxThreadEnumerate) refers to rtx_kernel.o(.data.os) for osRtxInfo
    rtx_thread.o(.ARM.exidx.text.svcRtxThreadEnumerate) refers to rtx_thread.o(.text.svcRtxThreadEnumerate) for [Anonymous Symbol]
    rtx_thread.o(.text.svcRtxThreadFlagsSet) refers to rtx_kernel.o(.data.os) for osRtxInfo
    rtx_thread.o(.text.svcRtxThreadFlagsSet) refers to rtx_thread.o(.text.osRtxThreadStackCheck) for osRtxThreadStackCheck
    rtx_thread.o(.ARM.exidx.text.svcRtxThreadFlagsSet) refers to rtx_thread.o(.text.svcRtxThreadFlagsSet) for [Anonymous Symbol]
    rtx_thread.o(.text.svcRtxThreadFlagsClear) refers to rtx_kernel.o(.data.os) for osRtxInfo
    rtx_thread.o(.ARM.exidx.text.svcRtxThreadFlagsClear) refers to rtx_thread.o(.text.svcRtxThreadFlagsClear) for [Anonymous Symbol]
    rtx_thread.o(.text.svcRtxThreadFlagsGet) refers to rtx_kernel.o(.data.os) for osRtxInfo
    rtx_thread.o(.ARM.exidx.text.svcRtxThreadFlagsGet) refers to rtx_thread.o(.text.svcRtxThreadFlagsGet) for [Anonymous Symbol]
    rtx_thread.o(.text.svcRtxThreadFlagsWait) refers to rtx_kernel.o(.data.os) for osRtxInfo
    rtx_thread.o(.text.svcRtxThreadFlagsWait) refers to rtx_thread.o(.text.osRtxThreadWaitEnter) for osRtxThreadWaitEnter
    rtx_thread.o(.ARM.exidx.text.svcRtxThreadFlagsWait) refers to rtx_thread.o(.text.svcRtxThreadFlagsWait) for [Anonymous Symbol]
    rtx_thread.o(.text.osThreadNew) refers to rtx_thread.o(.text.svcRtxThreadNew) for svcRtxThreadNew
    rtx_thread.o(.ARM.exidx.text.osThreadNew) refers to rtx_thread.o(.text.osThreadNew) for [Anonymous Symbol]
    rtx_thread.o(.text.osThreadGetName) refers to rtx_thread.o(.text.svcRtxThreadGetName) for svcRtxThreadGetName
    rtx_thread.o(.ARM.exidx.text.osThreadGetName) refers to rtx_thread.o(.text.osThreadGetName) for [Anonymous Symbol]
    rtx_thread.o(.text.osThreadGetId) refers to rtx_thread.o(.text.svcRtxThreadGetId) for svcRtxThreadGetId
    rtx_thread.o(.ARM.exidx.text.osThreadGetId) refers to rtx_thread.o(.text.osThreadGetId) for [Anonymous Symbol]
    rtx_thread.o(.text.osThreadGetState) refers to rtx_thread.o(.text.svcRtxThreadGetState) for svcRtxThreadGetState
    rtx_thread.o(.ARM.exidx.text.osThreadGetState) refers to rtx_thread.o(.text.osThreadGetState) for [Anonymous Symbol]
    rtx_thread.o(.text.osThreadGetStackSize) refers to rtx_thread.o(.text.svcRtxThreadGetStackSize) for svcRtxThreadGetStackSize
    rtx_thread.o(.ARM.exidx.text.osThreadGetStackSize) refers to rtx_thread.o(.text.osThreadGetStackSize) for [Anonymous Symbol]
    rtx_thread.o(.text.osThreadGetStackSpace) refers to rtx_thread.o(.text.svcRtxThreadGetStackSpace) for svcRtxThreadGetStackSpace
    rtx_thread.o(.ARM.exidx.text.osThreadGetStackSpace) refers to rtx_thread.o(.text.osThreadGetStackSpace) for [Anonymous Symbol]
    rtx_thread.o(.text.osThreadSetPriority) refers to rtx_thread.o(.text.svcRtxThreadSetPriority) for svcRtxThreadSetPriority
    rtx_thread.o(.ARM.exidx.text.osThreadSetPriority) refers to rtx_thread.o(.text.osThreadSetPriority) for [Anonymous Symbol]
    rtx_thread.o(.text.osThreadGetPriority) refers to rtx_thread.o(.text.svcRtxThreadGetPriority) for svcRtxThreadGetPriority
    rtx_thread.o(.ARM.exidx.text.osThreadGetPriority) refers to rtx_thread.o(.text.osThreadGetPriority) for [Anonymous Symbol]
    rtx_thread.o(.text.osThreadYield) refers to rtx_thread.o(.text.svcRtxThreadYield) for svcRtxThreadYield
    rtx_thread.o(.ARM.exidx.text.osThreadYield) refers to rtx_thread.o(.text.osThreadYield) for [Anonymous Symbol]
    rtx_thread.o(.text.osThreadSuspend) refers to rtx_thread.o(.text.svcRtxThreadSuspend) for svcRtxThreadSuspend
    rtx_thread.o(.ARM.exidx.text.osThreadSuspend) refers to rtx_thread.o(.text.osThreadSuspend) for [Anonymous Symbol]
    rtx_thread.o(.text.osThreadResume) refers to rtx_thread.o(.text.svcRtxThreadResume) for svcRtxThreadResume
    rtx_thread.o(.ARM.exidx.text.osThreadResume) refers to rtx_thread.o(.text.osThreadResume) for [Anonymous Symbol]
    rtx_thread.o(.text.osThreadDetach) refers to rtx_thread.o(.text.svcRtxThreadDetach) for svcRtxThreadDetach
    rtx_thread.o(.ARM.exidx.text.osThreadDetach) refers to rtx_thread.o(.text.osThreadDetach) for [Anonymous Symbol]
    rtx_thread.o(.text.osThreadJoin) refers to rtx_thread.o(.text.svcRtxThreadJoin) for svcRtxThreadJoin
    rtx_thread.o(.ARM.exidx.text.osThreadJoin) refers to rtx_thread.o(.text.osThreadJoin) for [Anonymous Symbol]
    rtx_thread.o(.text.osThreadTerminate) refers to rtx_thread.o(.text.svcRtxThreadTerminate) for svcRtxThreadTerminate
    rtx_thread.o(.ARM.exidx.text.osThreadTerminate) refers to rtx_thread.o(.text.osThreadTerminate) for [Anonymous Symbol]
    rtx_thread.o(.text.osThreadGetCount) refers to rtx_thread.o(.text.svcRtxThreadGetCount) for svcRtxThreadGetCount
    rtx_thread.o(.ARM.exidx.text.osThreadGetCount) refers to rtx_thread.o(.text.osThreadGetCount) for [Anonymous Symbol]
    rtx_thread.o(.text.osThreadEnumerate) refers to rtx_thread.o(.text.svcRtxThreadEnumerate) for svcRtxThreadEnumerate
    rtx_thread.o(.ARM.exidx.text.osThreadEnumerate) refers to rtx_thread.o(.text.osThreadEnumerate) for [Anonymous Symbol]
    rtx_thread.o(.text.osThreadFlagsSet) refers to rtx_system.o(.text.osRtxPostProcess) for osRtxPostProcess
    rtx_thread.o(.text.osThreadFlagsSet) refers to rtx_thread.o(.text.svcRtxThreadFlagsSet) for svcRtxThreadFlagsSet
    rtx_thread.o(.ARM.exidx.text.osThreadFlagsSet) refers to rtx_thread.o(.text.osThreadFlagsSet) for [Anonymous Symbol]
    rtx_thread.o(.text.osThreadFlagsClear) refers to rtx_thread.o(.text.svcRtxThreadFlagsClear) for svcRtxThreadFlagsClear
    rtx_thread.o(.ARM.exidx.text.osThreadFlagsClear) refers to rtx_thread.o(.text.osThreadFlagsClear) for [Anonymous Symbol]
    rtx_thread.o(.text.osThreadFlagsGet) refers to rtx_thread.o(.text.svcRtxThreadFlagsGet) for svcRtxThreadFlagsGet
    rtx_thread.o(.ARM.exidx.text.osThreadFlagsGet) refers to rtx_thread.o(.text.osThreadFlagsGet) for [Anonymous Symbol]
    rtx_thread.o(.text.osThreadFlagsWait) refers to rtx_thread.o(.text.svcRtxThreadFlagsWait) for svcRtxThreadFlagsWait
    rtx_thread.o(.ARM.exidx.text.osThreadFlagsWait) refers to rtx_thread.o(.text.osThreadFlagsWait) for [Anonymous Symbol]
    rtx_delay.o(.text.svcRtxDelay) refers to rtx_thread.o(.text.osRtxThreadWaitEnter) for osRtxThreadWaitEnter
    rtx_delay.o(.ARM.exidx.text.svcRtxDelay) refers to rtx_delay.o(.text.svcRtxDelay) for [Anonymous Symbol]
    rtx_delay.o(.text.svcRtxDelayUntil) refers to rtx_kernel.o(.data.os) for osRtxInfo
    rtx_delay.o(.text.svcRtxDelayUntil) refers to rtx_thread.o(.text.osRtxThreadWaitEnter) for osRtxThreadWaitEnter
    rtx_delay.o(.ARM.exidx.text.svcRtxDelayUntil) refers to rtx_delay.o(.text.svcRtxDelayUntil) for [Anonymous Symbol]
    rtx_delay.o(.text.osDelay) refers to rtx_delay.o(.text.svcRtxDelay) for svcRtxDelay
    rtx_delay.o(.ARM.exidx.text.osDelay) refers to rtx_delay.o(.text.osDelay) for [Anonymous Symbol]
    rtx_delay.o(.text.osDelayUntil) refers to rtx_delay.o(.text.svcRtxDelayUntil) for svcRtxDelayUntil
    rtx_delay.o(.ARM.exidx.text.osDelayUntil) refers to rtx_delay.o(.text.osDelayUntil) for [Anonymous Symbol]
    rtx_timer.o(.text.osRtxTimerTick) refers to rtx_kernel.o(.data.os) for osRtxInfo
    rtx_timer.o(.text.osRtxTimerTick) refers to rtx_msgqueue.o(.text.osMessageQueuePut) for osMessageQueuePut
    rtx_timer.o(.text.osRtxTimerTick) refers to rtx_config.o(i.osRtxErrorNotify) for osRtxErrorNotify
    rtx_timer.o(.ARM.exidx.text.osRtxTimerTick) refers to rtx_timer.o(.text.osRtxTimerTick) for [Anonymous Symbol]
    rtx_timer.o(.text.osRtxTimerThread) refers to rtx_kernel.o(.data.os) for osRtxInfo
    rtx_timer.o(.text.osRtxTimerThread) refers to rtx_msgqueue.o(.text.osMessageQueueGet) for osMessageQueueGet
    rtx_timer.o(.ARM.exidx.text.osRtxTimerThread) refers to rtx_timer.o(.text.osRtxTimerThread) for [Anonymous Symbol]
    rtx_timer.o(.text.svcRtxTimerNew) refers to rtx_kernel.o(.data.os) for osRtxInfo
    rtx_timer.o(.text.svcRtxTimerNew) refers to rtx_lib.o(.rodata) for osRtxConfig
    rtx_timer.o(.text.svcRtxTimerNew) refers to rtx_msgqueue.o(.text.svcRtxMessageQueueNew) for svcRtxMessageQueueNew
    rtx_timer.o(.text.svcRtxTimerNew) refers to rtx_timer.o(.text.osRtxTimerThread) for osRtxTimerThread
    rtx_timer.o(.text.svcRtxTimerNew) refers to rtx_thread.o(.text.svcRtxThreadNew) for svcRtxThreadNew
    rtx_timer.o(.text.svcRtxTimerNew) refers to rtx_mempool.o(.text.osRtxMemoryPoolAlloc) for osRtxMemoryPoolAlloc
    rtx_timer.o(.text.svcRtxTimerNew) refers to rtx_memory.o(.text.osRtxMemoryAlloc) for osRtxMemoryAlloc
    rtx_timer.o(.ARM.exidx.text.svcRtxTimerNew) refers to rtx_timer.o(.text.svcRtxTimerNew) for [Anonymous Symbol]
    rtx_timer.o(.ARM.exidx.text.svcRtxTimerGetName) refers to rtx_timer.o(.text.svcRtxTimerGetName) for [Anonymous Symbol]
    rtx_timer.o(.text.svcRtxTimerStart) refers to rtx_kernel.o(.data.os) for osRtxInfo
    rtx_timer.o(.ARM.exidx.text.svcRtxTimerStart) refers to rtx_timer.o(.text.svcRtxTimerStart) for [Anonymous Symbol]
    rtx_timer.o(.text.svcRtxTimerStop) refers to rtx_kernel.o(.data.os) for osRtxInfo
    rtx_timer.o(.ARM.exidx.text.svcRtxTimerStop) refers to rtx_timer.o(.text.svcRtxTimerStop) for [Anonymous Symbol]
    rtx_timer.o(.ARM.exidx.text.svcRtxTimerIsRunning) refers to rtx_timer.o(.text.svcRtxTimerIsRunning) for [Anonymous Symbol]
    rtx_timer.o(.text.svcRtxTimerDelete) refers to rtx_kernel.o(.data.os) for osRtxInfo
    rtx_timer.o(.text.svcRtxTimerDelete) refers to rtx_mempool.o(.text.osRtxMemoryPoolFree) for osRtxMemoryPoolFree
    rtx_timer.o(.text.svcRtxTimerDelete) refers to rtx_memory.o(.text.osRtxMemoryFree) for osRtxMemoryFree
    rtx_timer.o(.ARM.exidx.text.svcRtxTimerDelete) refers to rtx_timer.o(.text.svcRtxTimerDelete) for [Anonymous Symbol]
    rtx_timer.o(.text.osTimerNew) refers to rtx_timer.o(.text.svcRtxTimerNew) for svcRtxTimerNew
    rtx_timer.o(.ARM.exidx.text.osTimerNew) refers to rtx_timer.o(.text.osTimerNew) for [Anonymous Symbol]
    rtx_timer.o(.text.osTimerGetName) refers to rtx_timer.o(.text.svcRtxTimerGetName) for svcRtxTimerGetName
    rtx_timer.o(.ARM.exidx.text.osTimerGetName) refers to rtx_timer.o(.text.osTimerGetName) for [Anonymous Symbol]
    rtx_timer.o(.text.osTimerStart) refers to rtx_timer.o(.text.svcRtxTimerStart) for svcRtxTimerStart
    rtx_timer.o(.ARM.exidx.text.osTimerStart) refers to rtx_timer.o(.text.osTimerStart) for [Anonymous Symbol]
    rtx_timer.o(.text.osTimerStop) refers to rtx_timer.o(.text.svcRtxTimerStop) for svcRtxTimerStop
    rtx_timer.o(.ARM.exidx.text.osTimerStop) refers to rtx_timer.o(.text.osTimerStop) for [Anonymous Symbol]
    rtx_timer.o(.text.osTimerIsRunning) refers to rtx_timer.o(.text.svcRtxTimerIsRunning) for svcRtxTimerIsRunning
    rtx_timer.o(.ARM.exidx.text.osTimerIsRunning) refers to rtx_timer.o(.text.osTimerIsRunning) for [Anonymous Symbol]
    rtx_timer.o(.text.osTimerDelete) refers to rtx_timer.o(.text.svcRtxTimerDelete) for svcRtxTimerDelete
    rtx_timer.o(.ARM.exidx.text.osTimerDelete) refers to rtx_timer.o(.text.osTimerDelete) for [Anonymous Symbol]
    rtx_mutex.o(.text.osRtxMutexOwnerRelease) refers to rtx_thread.o(.text.osRtxThreadListGet) for osRtxThreadListGet
    rtx_mutex.o(.text.osRtxMutexOwnerRelease) refers to rtx_thread.o(.text.osRtxThreadWaitExit) for osRtxThreadWaitExit
    rtx_mutex.o(.ARM.exidx.text.osRtxMutexOwnerRelease) refers to rtx_mutex.o(.text.osRtxMutexOwnerRelease) for [Anonymous Symbol]
    rtx_mutex.o(.text.svcRtxMutexNew) refers to rtx_kernel.o(.data.os) for osRtxInfo
    rtx_mutex.o(.text.svcRtxMutexNew) refers to rtx_mempool.o(.text.osRtxMemoryPoolAlloc) for osRtxMemoryPoolAlloc
    rtx_mutex.o(.text.svcRtxMutexNew) refers to rtx_memory.o(.text.osRtxMemoryAlloc) for osRtxMemoryAlloc
    rtx_mutex.o(.ARM.exidx.text.svcRtxMutexNew) refers to rtx_mutex.o(.text.svcRtxMutexNew) for [Anonymous Symbol]
    rtx_mutex.o(.ARM.exidx.text.svcRtxMutexGetName) refers to rtx_mutex.o(.text.svcRtxMutexGetName) for [Anonymous Symbol]
    rtx_mutex.o(.text.svcRtxMutexAcquire) refers to rtx_kernel.o(.data.os) for osRtxInfo
    rtx_mutex.o(.text.svcRtxMutexAcquire) refers to rtx_thread.o(.text.osRtxThreadListSort) for osRtxThreadListSort
    rtx_mutex.o(.text.svcRtxMutexAcquire) refers to rtx_thread.o(.text.osRtxThreadListPut) for osRtxThreadListPut
    rtx_mutex.o(.text.svcRtxMutexAcquire) refers to rtx_thread.o(.text.osRtxThreadWaitEnter) for osRtxThreadWaitEnter
    rtx_mutex.o(.ARM.exidx.text.svcRtxMutexAcquire) refers to rtx_mutex.o(.text.svcRtxMutexAcquire) for [Anonymous Symbol]
    rtx_mutex.o(.text.svcRtxMutexRelease) refers to rtx_kernel.o(.data.os) for osRtxInfo
    rtx_mutex.o(.text.svcRtxMutexRelease) refers to rtx_thread.o(.text.osRtxThreadListGet) for osRtxThreadListGet
    rtx_mutex.o(.text.svcRtxMutexRelease) refers to rtx_thread.o(.text.osRtxThreadWaitExit) for osRtxThreadWaitExit
    rtx_mutex.o(.text.svcRtxMutexRelease) refers to rtx_thread.o(.text.osRtxThreadDispatch) for osRtxThreadDispatch
    rtx_mutex.o(.ARM.exidx.text.svcRtxMutexRelease) refers to rtx_mutex.o(.text.svcRtxMutexRelease) for [Anonymous Symbol]
    rtx_mutex.o(.ARM.exidx.text.svcRtxMutexGetOwner) refers to rtx_mutex.o(.text.svcRtxMutexGetOwner) for [Anonymous Symbol]
    rtx_mutex.o(.text.svcRtxMutexDelete) refers to rtx_thread.o(.text.osRtxThreadListSort) for osRtxThreadListSort
    rtx_mutex.o(.text.svcRtxMutexDelete) refers to rtx_thread.o(.text.osRtxThreadListGet) for osRtxThreadListGet
    rtx_mutex.o(.text.svcRtxMutexDelete) refers to rtx_thread.o(.text.osRtxThreadWaitExit) for osRtxThreadWaitExit
    rtx_mutex.o(.text.svcRtxMutexDelete) refers to rtx_thread.o(.text.osRtxThreadDispatch) for osRtxThreadDispatch
    rtx_mutex.o(.text.svcRtxMutexDelete) refers to rtx_kernel.o(.data.os) for osRtxInfo
    rtx_mutex.o(.text.svcRtxMutexDelete) refers to rtx_mempool.o(.text.osRtxMemoryPoolFree) for osRtxMemoryPoolFree
    rtx_mutex.o(.text.svcRtxMutexDelete) refers to rtx_memory.o(.text.osRtxMemoryFree) for osRtxMemoryFree
    rtx_mutex.o(.ARM.exidx.text.svcRtxMutexDelete) refers to rtx_mutex.o(.text.svcRtxMutexDelete) for [Anonymous Symbol]
    rtx_mutex.o(.text.osMutexNew) refers to rtx_mutex.o(.text.svcRtxMutexNew) for svcRtxMutexNew
    rtx_mutex.o(.ARM.exidx.text.osMutexNew) refers to rtx_mutex.o(.text.osMutexNew) for [Anonymous Symbol]
    rtx_mutex.o(.text.osMutexGetName) refers to rtx_mutex.o(.text.svcRtxMutexGetName) for svcRtxMutexGetName
    rtx_mutex.o(.ARM.exidx.text.osMutexGetName) refers to rtx_mutex.o(.text.osMutexGetName) for [Anonymous Symbol]
    rtx_mutex.o(.text.osMutexAcquire) refers to rtx_mutex.o(.text.svcRtxMutexAcquire) for svcRtxMutexAcquire
    rtx_mutex.o(.ARM.exidx.text.osMutexAcquire) refers to rtx_mutex.o(.text.osMutexAcquire) for [Anonymous Symbol]
    rtx_mutex.o(.text.osMutexRelease) refers to rtx_mutex.o(.text.svcRtxMutexRelease) for svcRtxMutexRelease
    rtx_mutex.o(.ARM.exidx.text.osMutexRelease) refers to rtx_mutex.o(.text.osMutexRelease) for [Anonymous Symbol]
    rtx_mutex.o(.text.osMutexGetOwner) refers to rtx_mutex.o(.text.svcRtxMutexGetOwner) for svcRtxMutexGetOwner
    rtx_mutex.o(.ARM.exidx.text.osMutexGetOwner) refers to rtx_mutex.o(.text.osMutexGetOwner) for [Anonymous Symbol]
    rtx_mutex.o(.text.osMutexDelete) refers to rtx_mutex.o(.text.svcRtxMutexDelete) for svcRtxMutexDelete
    rtx_mutex.o(.ARM.exidx.text.osMutexDelete) refers to rtx_mutex.o(.text.osMutexDelete) for [Anonymous Symbol]
    rtx_semaphore.o(.text.osRtxSemaphorePostProcess) refers to rtx_thread.o(.text.osRtxThreadListGet) for osRtxThreadListGet
    rtx_semaphore.o(.text.osRtxSemaphorePostProcess) refers to rtx_thread.o(.text.osRtxThreadWaitExit) for osRtxThreadWaitExit
    rtx_semaphore.o(.ARM.exidx.text.osRtxSemaphorePostProcess) refers to rtx_semaphore.o(.text.osRtxSemaphorePostProcess) for [Anonymous Symbol]
    rtx_semaphore.o(.text.svcRtxSemaphoreNew) refers to rtx_kernel.o(.data.os) for osRtxInfo
    rtx_semaphore.o(.text.svcRtxSemaphoreNew) refers to rtx_mempool.o(.text.osRtxMemoryPoolAlloc) for osRtxMemoryPoolAlloc
    rtx_semaphore.o(.text.svcRtxSemaphoreNew) refers to rtx_memory.o(.text.osRtxMemoryAlloc) for osRtxMemoryAlloc
    rtx_semaphore.o(.text.svcRtxSemaphoreNew) refers to rtx_semaphore.o(.text.osRtxSemaphorePostProcess) for osRtxSemaphorePostProcess
    rtx_semaphore.o(.ARM.exidx.text.svcRtxSemaphoreNew) refers to rtx_semaphore.o(.text.svcRtxSemaphoreNew) for [Anonymous Symbol]
    rtx_semaphore.o(.ARM.exidx.text.svcRtxSemaphoreGetName) refers to rtx_semaphore.o(.text.svcRtxSemaphoreGetName) for [Anonymous Symbol]
    rtx_semaphore.o(.text.svcRtxSemaphoreAcquire) refers to rtx_kernel.o(.data.os) for osRtxInfo
    rtx_semaphore.o(.text.svcRtxSemaphoreAcquire) refers to rtx_thread.o(.text.osRtxThreadListPut) for osRtxThreadListPut
    rtx_semaphore.o(.text.svcRtxSemaphoreAcquire) refers to rtx_thread.o(.text.osRtxThreadWaitEnter) for osRtxThreadWaitEnter
    rtx_semaphore.o(.ARM.exidx.text.svcRtxSemaphoreAcquire) refers to rtx_semaphore.o(.text.svcRtxSemaphoreAcquire) for [Anonymous Symbol]
    rtx_semaphore.o(.text.svcRtxSemaphoreRelease) refers to rtx_thread.o(.text.osRtxThreadListGet) for osRtxThreadListGet
    rtx_semaphore.o(.text.svcRtxSemaphoreRelease) refers to rtx_thread.o(.text.osRtxThreadWaitExit) for osRtxThreadWaitExit
    rtx_semaphore.o(.ARM.exidx.text.svcRtxSemaphoreRelease) refers to rtx_semaphore.o(.text.svcRtxSemaphoreRelease) for [Anonymous Symbol]
    rtx_semaphore.o(.ARM.exidx.text.svcRtxSemaphoreGetCount) refers to rtx_semaphore.o(.text.svcRtxSemaphoreGetCount) for [Anonymous Symbol]
    rtx_semaphore.o(.text.svcRtxSemaphoreDelete) refers to rtx_thread.o(.text.osRtxThreadListGet) for osRtxThreadListGet
    rtx_semaphore.o(.text.svcRtxSemaphoreDelete) refers to rtx_thread.o(.text.osRtxThreadWaitExit) for osRtxThreadWaitExit
    rtx_semaphore.o(.text.svcRtxSemaphoreDelete) refers to rtx_thread.o(.text.osRtxThreadDispatch) for osRtxThreadDispatch
    rtx_semaphore.o(.text.svcRtxSemaphoreDelete) refers to rtx_kernel.o(.data.os) for osRtxInfo
    rtx_semaphore.o(.text.svcRtxSemaphoreDelete) refers to rtx_mempool.o(.text.osRtxMemoryPoolFree) for osRtxMemoryPoolFree
    rtx_semaphore.o(.text.svcRtxSemaphoreDelete) refers to rtx_memory.o(.text.osRtxMemoryFree) for osRtxMemoryFree
    rtx_semaphore.o(.ARM.exidx.text.svcRtxSemaphoreDelete) refers to rtx_semaphore.o(.text.svcRtxSemaphoreDelete) for [Anonymous Symbol]
    rtx_semaphore.o(.text.osSemaphoreNew) refers to rtx_semaphore.o(.text.svcRtxSemaphoreNew) for svcRtxSemaphoreNew
    rtx_semaphore.o(.ARM.exidx.text.osSemaphoreNew) refers to rtx_semaphore.o(.text.osSemaphoreNew) for [Anonymous Symbol]
    rtx_semaphore.o(.text.osSemaphoreGetName) refers to rtx_semaphore.o(.text.svcRtxSemaphoreGetName) for svcRtxSemaphoreGetName
    rtx_semaphore.o(.ARM.exidx.text.osSemaphoreGetName) refers to rtx_semaphore.o(.text.osSemaphoreGetName) for [Anonymous Symbol]
    rtx_semaphore.o(.text.osSemaphoreAcquire) refers to rtx_semaphore.o(.text.svcRtxSemaphoreAcquire) for svcRtxSemaphoreAcquire
    rtx_semaphore.o(.ARM.exidx.text.osSemaphoreAcquire) refers to rtx_semaphore.o(.text.osSemaphoreAcquire) for [Anonymous Symbol]
    rtx_semaphore.o(.text.osSemaphoreRelease) refers to rtx_system.o(.text.osRtxPostProcess) for osRtxPostProcess
    rtx_semaphore.o(.text.osSemaphoreRelease) refers to rtx_semaphore.o(.text.svcRtxSemaphoreRelease) for svcRtxSemaphoreRelease
    rtx_semaphore.o(.ARM.exidx.text.osSemaphoreRelease) refers to rtx_semaphore.o(.text.osSemaphoreRelease) for [Anonymous Symbol]
    rtx_semaphore.o(.text.osSemaphoreGetCount) refers to rtx_semaphore.o(.text.svcRtxSemaphoreGetCount) for svcRtxSemaphoreGetCount
    rtx_semaphore.o(.ARM.exidx.text.osSemaphoreGetCount) refers to rtx_semaphore.o(.text.osSemaphoreGetCount) for [Anonymous Symbol]
    rtx_semaphore.o(.text.osSemaphoreDelete) refers to rtx_semaphore.o(.text.svcRtxSemaphoreDelete) for svcRtxSemaphoreDelete
    rtx_semaphore.o(.ARM.exidx.text.osSemaphoreDelete) refers to rtx_semaphore.o(.text.osSemaphoreDelete) for [Anonymous Symbol]
    rtx_msgqueue.o(.text.osRtxMessageQueuePostProcess) refers to rtx_mempool.o(.text.osRtxMemoryPoolFree) for osRtxMemoryPoolFree
    rtx_msgqueue.o(.text.osRtxMessageQueuePostProcess) refers to rtx_mempool.o(.text.osRtxMemoryPoolAlloc) for osRtxMemoryPoolAlloc
    rtx_msgqueue.o(.text.osRtxMessageQueuePostProcess) refers to rtx_thread.o(.text.osRtxThreadListGet) for osRtxThreadListGet
    rtx_msgqueue.o(.text.osRtxMessageQueuePostProcess) refers to rtx_thread.o(.text.osRtxThreadWaitExit) for osRtxThreadWaitExit
    rtx_msgqueue.o(.text.osRtxMessageQueuePostProcess) refers to rtx_thread.o(.text.osRtxThreadRegPtr) for osRtxThreadRegPtr
    rtx_msgqueue.o(.text.osRtxMessageQueuePostProcess) refers to rt_memcpy_v6.o(.text) for __aeabi_memcpy
    rtx_msgqueue.o(.ARM.exidx.text.osRtxMessageQueuePostProcess) refers to rtx_msgqueue.o(.text.osRtxMessageQueuePostProcess) for [Anonymous Symbol]
    rtx_msgqueue.o(.text.svcRtxMessageQueueNew) refers to rtx_kernel.o(.data.os) for osRtxInfo
    rtx_msgqueue.o(.text.svcRtxMessageQueueNew) refers to rtx_mempool.o(.text.osRtxMemoryPoolAlloc) for osRtxMemoryPoolAlloc
    rtx_msgqueue.o(.text.svcRtxMessageQueueNew) refers to rtx_memory.o(.text.osRtxMemoryAlloc) for osRtxMemoryAlloc
    rtx_msgqueue.o(.text.svcRtxMessageQueueNew) refers to rt_memclr.o(.text) for __aeabi_memclr
    rtx_msgqueue.o(.text.svcRtxMessageQueueNew) refers to rtx_mempool.o(.text.osRtxMemoryPoolInit) for osRtxMemoryPoolInit
    rtx_msgqueue.o(.text.svcRtxMessageQueueNew) refers to rtx_msgqueue.o(.text.osRtxMessageQueuePostProcess) for osRtxMessageQueuePostProcess
    rtx_msgqueue.o(.text.svcRtxMessageQueueNew) refers to rtx_mempool.o(.text.osRtxMemoryPoolFree) for osRtxMemoryPoolFree
    rtx_msgqueue.o(.text.svcRtxMessageQueueNew) refers to rtx_memory.o(.text.osRtxMemoryFree) for osRtxMemoryFree
    rtx_msgqueue.o(.ARM.exidx.text.svcRtxMessageQueueNew) refers to rtx_msgqueue.o(.text.svcRtxMessageQueueNew) for [Anonymous Symbol]
    rtx_msgqueue.o(.ARM.exidx.text.svcRtxMessageQueueGetName) refers to rtx_msgqueue.o(.text.svcRtxMessageQueueGetName) for [Anonymous Symbol]
    rtx_msgqueue.o(.text.svcRtxMessageQueuePut) refers to rtx_thread.o(.text.osRtxThreadListGet) for osRtxThreadListGet
    rtx_msgqueue.o(.text.svcRtxMessageQueuePut) refers to rtx_thread.o(.text.osRtxThreadWaitExit) for osRtxThreadWaitExit
    rtx_msgqueue.o(.text.svcRtxMessageQueuePut) refers to rtx_thread.o(.text.osRtxThreadRegPtr) for osRtxThreadRegPtr
    rtx_msgqueue.o(.text.svcRtxMessageQueuePut) refers to rt_memcpy_v6.o(.text) for __aeabi_memcpy
    rtx_msgqueue.o(.text.svcRtxMessageQueuePut) refers to rtx_mempool.o(.text.osRtxMemoryPoolAlloc) for osRtxMemoryPoolAlloc
    rtx_msgqueue.o(.text.svcRtxMessageQueuePut) refers to rtx_kernel.o(.data.os) for osRtxInfo
    rtx_msgqueue.o(.text.svcRtxMessageQueuePut) refers to rtx_thread.o(.text.osRtxThreadListPut) for osRtxThreadListPut
    rtx_msgqueue.o(.text.svcRtxMessageQueuePut) refers to rtx_thread.o(.text.osRtxThreadWaitEnter) for osRtxThreadWaitEnter
    rtx_msgqueue.o(.ARM.exidx.text.svcRtxMessageQueuePut) refers to rtx_msgqueue.o(.text.svcRtxMessageQueuePut) for [Anonymous Symbol]
    rtx_msgqueue.o(.text.svcRtxMessageQueueGet) refers to rtx_kernel.o(.data.os) for osRtxInfo
    rtx_msgqueue.o(.text.svcRtxMessageQueueGet) refers to rtx_thread.o(.text.osRtxThreadListPut) for osRtxThreadListPut
    rtx_msgqueue.o(.text.svcRtxMessageQueueGet) refers to rtx_thread.o(.text.osRtxThreadWaitEnter) for osRtxThreadWaitEnter
    rtx_msgqueue.o(.text.svcRtxMessageQueueGet) refers to rt_memcpy_v6.o(.text) for __aeabi_memcpy
    rtx_msgqueue.o(.text.svcRtxMessageQueueGet) refers to rtx_mempool.o(.text.osRtxMemoryPoolFree) for osRtxMemoryPoolFree
    rtx_msgqueue.o(.text.svcRtxMessageQueueGet) refers to rtx_mempool.o(.text.osRtxMemoryPoolAlloc) for osRtxMemoryPoolAlloc
    rtx_msgqueue.o(.text.svcRtxMessageQueueGet) refers to rtx_thread.o(.text.osRtxThreadListGet) for osRtxThreadListGet
    rtx_msgqueue.o(.text.svcRtxMessageQueueGet) refers to rtx_thread.o(.text.osRtxThreadWaitExit) for osRtxThreadWaitExit
    rtx_msgqueue.o(.text.svcRtxMessageQueueGet) refers to rtx_thread.o(.text.osRtxThreadRegPtr) for osRtxThreadRegPtr
    rtx_msgqueue.o(.ARM.exidx.text.svcRtxMessageQueueGet) refers to rtx_msgqueue.o(.text.svcRtxMessageQueueGet) for [Anonymous Symbol]
    rtx_msgqueue.o(.ARM.exidx.text.svcRtxMessageQueueGetCapacity) refers to rtx_msgqueue.o(.text.svcRtxMessageQueueGetCapacity) for [Anonymous Symbol]
    rtx_msgqueue.o(.ARM.exidx.text.svcRtxMessageQueueGetMsgSize) refers to rtx_msgqueue.o(.text.svcRtxMessageQueueGetMsgSize) for [Anonymous Symbol]
    rtx_msgqueue.o(.ARM.exidx.text.svcRtxMessageQueueGetCount) refers to rtx_msgqueue.o(.text.svcRtxMessageQueueGetCount) for [Anonymous Symbol]
    rtx_msgqueue.o(.ARM.exidx.text.svcRtxMessageQueueGetSpace) refers to rtx_msgqueue.o(.text.svcRtxMessageQueueGetSpace) for [Anonymous Symbol]
    rtx_msgqueue.o(.text.svcRtxMessageQueueReset) refers to rtx_mempool.o(.text.osRtxMemoryPoolFree) for osRtxMemoryPoolFree
    rtx_msgqueue.o(.text.svcRtxMessageQueueReset) refers to rtx_mempool.o(.text.osRtxMemoryPoolAlloc) for osRtxMemoryPoolAlloc
    rtx_msgqueue.o(.text.svcRtxMessageQueueReset) refers to rtx_thread.o(.text.osRtxThreadListGet) for osRtxThreadListGet
    rtx_msgqueue.o(.text.svcRtxMessageQueueReset) refers to rtx_thread.o(.text.osRtxThreadWaitExit) for osRtxThreadWaitExit
    rtx_msgqueue.o(.text.svcRtxMessageQueueReset) refers to rtx_thread.o(.text.osRtxThreadRegPtr) for osRtxThreadRegPtr
    rtx_msgqueue.o(.text.svcRtxMessageQueueReset) refers to rt_memcpy_v6.o(.text) for __aeabi_memcpy
    rtx_msgqueue.o(.text.svcRtxMessageQueueReset) refers to rtx_thread.o(.text.osRtxThreadDispatch) for osRtxThreadDispatch
    rtx_msgqueue.o(.ARM.exidx.text.svcRtxMessageQueueReset) refers to rtx_msgqueue.o(.text.svcRtxMessageQueueReset) for [Anonymous Symbol]
    rtx_msgqueue.o(.text.svcRtxMessageQueueDelete) refers to rtx_thread.o(.text.osRtxThreadListGet) for osRtxThreadListGet
    rtx_msgqueue.o(.text.svcRtxMessageQueueDelete) refers to rtx_thread.o(.text.osRtxThreadWaitExit) for osRtxThreadWaitExit
    rtx_msgqueue.o(.text.svcRtxMessageQueueDelete) refers to rtx_thread.o(.text.osRtxThreadDispatch) for osRtxThreadDispatch
    rtx_msgqueue.o(.text.svcRtxMessageQueueDelete) refers to rtx_kernel.o(.data.os) for osRtxInfo
    rtx_msgqueue.o(.text.svcRtxMessageQueueDelete) refers to rtx_memory.o(.text.osRtxMemoryFree) for osRtxMemoryFree
    rtx_msgqueue.o(.text.svcRtxMessageQueueDelete) refers to rtx_mempool.o(.text.osRtxMemoryPoolFree) for osRtxMemoryPoolFree
    rtx_msgqueue.o(.ARM.exidx.text.svcRtxMessageQueueDelete) refers to rtx_msgqueue.o(.text.svcRtxMessageQueueDelete) for [Anonymous Symbol]
    rtx_msgqueue.o(.text.osMessageQueueNew) refers to rtx_msgqueue.o(.text.svcRtxMessageQueueNew) for svcRtxMessageQueueNew
    rtx_msgqueue.o(.ARM.exidx.text.osMessageQueueNew) refers to rtx_msgqueue.o(.text.osMessageQueueNew) for [Anonymous Symbol]
    rtx_msgqueue.o(.text.osMessageQueueGetName) refers to rtx_msgqueue.o(.text.svcRtxMessageQueueGetName) for svcRtxMessageQueueGetName
    rtx_msgqueue.o(.ARM.exidx.text.osMessageQueueGetName) refers to rtx_msgqueue.o(.text.osMessageQueueGetName) for [Anonymous Symbol]
    rtx_msgqueue.o(.text.osMessageQueuePut) refers to rtx_mempool.o(.text.osRtxMemoryPoolAlloc) for osRtxMemoryPoolAlloc
    rtx_msgqueue.o(.text.osMessageQueuePut) refers to rt_memcpy_v6.o(.text) for __aeabi_memcpy
    rtx_msgqueue.o(.text.osMessageQueuePut) refers to rtx_system.o(.text.osRtxPostProcess) for osRtxPostProcess
    rtx_msgqueue.o(.text.osMessageQueuePut) refers to rtx_msgqueue.o(.text.svcRtxMessageQueuePut) for svcRtxMessageQueuePut
    rtx_msgqueue.o(.ARM.exidx.text.osMessageQueuePut) refers to rtx_msgqueue.o(.text.osMessageQueuePut) for [Anonymous Symbol]
    rtx_msgqueue.o(.text.osMessageQueueGet) refers to rtx_msgqueue.o(.text.svcRtxMessageQueueGet) for svcRtxMessageQueueGet
    rtx_msgqueue.o(.text.osMessageQueueGet) refers to rt_memcpy_v6.o(.text) for __aeabi_memcpy
    rtx_msgqueue.o(.text.osMessageQueueGet) refers to rtx_system.o(.text.osRtxPostProcess) for osRtxPostProcess
    rtx_msgqueue.o(.ARM.exidx.text.osMessageQueueGet) refers to rtx_msgqueue.o(.text.osMessageQueueGet) for [Anonymous Symbol]
    rtx_msgqueue.o(.text.osMessageQueueGetCapacity) refers to rtx_msgqueue.o(.text.svcRtxMessageQueueGetCapacity) for svcRtxMessageQueueGetCapacity
    rtx_msgqueue.o(.ARM.exidx.text.osMessageQueueGetCapacity) refers to rtx_msgqueue.o(.text.osMessageQueueGetCapacity) for [Anonymous Symbol]
    rtx_msgqueue.o(.text.osMessageQueueGetMsgSize) refers to rtx_msgqueue.o(.text.svcRtxMessageQueueGetMsgSize) for svcRtxMessageQueueGetMsgSize
    rtx_msgqueue.o(.ARM.exidx.text.osMessageQueueGetMsgSize) refers to rtx_msgqueue.o(.text.osMessageQueueGetMsgSize) for [Anonymous Symbol]
    rtx_msgqueue.o(.text.osMessageQueueGetCount) refers to rtx_msgqueue.o(.text.svcRtxMessageQueueGetCount) for svcRtxMessageQueueGetCount
    rtx_msgqueue.o(.ARM.exidx.text.osMessageQueueGetCount) refers to rtx_msgqueue.o(.text.osMessageQueueGetCount) for [Anonymous Symbol]
    rtx_msgqueue.o(.text.osMessageQueueGetSpace) refers to rtx_msgqueue.o(.text.svcRtxMessageQueueGetSpace) for svcRtxMessageQueueGetSpace
    rtx_msgqueue.o(.ARM.exidx.text.osMessageQueueGetSpace) refers to rtx_msgqueue.o(.text.osMessageQueueGetSpace) for [Anonymous Symbol]
    rtx_msgqueue.o(.text.osMessageQueueReset) refers to rtx_msgqueue.o(.text.svcRtxMessageQueueReset) for svcRtxMessageQueueReset
    rtx_msgqueue.o(.ARM.exidx.text.osMessageQueueReset) refers to rtx_msgqueue.o(.text.osMessageQueueReset) for [Anonymous Symbol]
    rtx_msgqueue.o(.text.osMessageQueueDelete) refers to rtx_msgqueue.o(.text.svcRtxMessageQueueDelete) for svcRtxMessageQueueDelete
    rtx_msgqueue.o(.ARM.exidx.text.osMessageQueueDelete) refers to rtx_msgqueue.o(.text.osMessageQueueDelete) for [Anonymous Symbol]
    irq_cm4f.o(.text) refers to rtx_system.o(.text.osRtxPendSV_Handler) for osRtxPendSV_Handler
    irq_cm4f.o(.text) refers to rtx_system.o(.text.osRtxTick_Handler) for osRtxTick_Handler
    irq_cm4f.o(.text) refers to rtx_kernel.o(.data.os) for osRtxInfo
    irq_cm4f.o(.text) refers to rtx_lib.o(.constdata) for osRtxUserSVC
    guiaa_lib.o(i.GUI_AA_DisableHiRes) refers to gui_core.o(.data) for GUI_pContext
    guiaa_lib.o(i.GUI_AA_EnableGammaAA4) refers to lcd_aa.o(i.LCD_AA_EnableGamma) for LCD_AA_EnableGamma
    guiaa_lib.o(i.GUI_AA_EnableHiRes) refers to gui_core.o(.data) for GUI_pContext
    guiaa_lib.o(i.GUI_AA_Exit) refers to guiaa_lib.o(i._FlushLine) for _FlushLine
    guiaa_lib.o(i.GUI_AA_Exit) refers to guiaa_lib.o(.data) for .data
    guiaa_lib.o(i.GUI_AA_Exit) refers to gui_core.o(.data) for GUI_pContext
    guiaa_lib.o(i.GUI_AA_GetFactor) refers to gui_core.o(.data) for GUI_pContext
    guiaa_lib.o(i.GUI_AA_GetGammaAA4) refers to lcd_aa.o(i.LCD_AA_GetGamma) for LCD_AA_GetGamma
    guiaa_lib.o(i.GUI_AA_HiRes2Pixel) refers to gui_core.o(.data) for GUI_pContext
    guiaa_lib.o(i.GUI_AA_Init) refers to lcd_getex.o(i.LCD_GetVXSizeMax) for LCD_GetVXSizeMax
    guiaa_lib.o(i.GUI_AA_Init) refers to gui_alloc.o(i.GUI_ALLOC_GetFixedBlock) for GUI_ALLOC_GetFixedBlock
    guiaa_lib.o(i.GUI_AA_Init) refers to gui_core.o(i.GUI__RegisterExit) for GUI__RegisterExit
    guiaa_lib.o(i.GUI_AA_Init) refers to guiaa_lib.o(.data) for .data
    guiaa_lib.o(i.GUI_AA_Init) refers to gui_core.o(.data) for GUI__BufferSize
    guiaa_lib.o(i.GUI_AA_Init) refers to guiaa_lib.o(i._OnExit) for _OnExit
    guiaa_lib.o(i.GUI_AA_Init) refers to gui_core.o(.data) for GUI_AA__ClipX0
    guiaa_lib.o(i.GUI_AA_Init) refers to gui_core.o(.data) for GUI_pContext
    guiaa_lib.o(i.GUI_AA_Init) refers to guiaa_lib.o(i._DrawHLine) for _DrawHLine
    guiaa_lib.o(i.GUI_AA_Init) refers to gui__private.o(.data) for GUI__pfMemset
    guiaa_lib.o(i.GUI_AA_Init_HiRes) refers to guiaa_lib.o(i.GUI_AA_Init) for GUI_AA_Init
    guiaa_lib.o(i.GUI_AA_Init_HiRes) refers to gui_core.o(.data) for GUI_pContext
    guiaa_lib.o(i.GUI_AA_SetDrawMode) refers to gui_core.o(.data) for GUI_pContext
    guiaa_lib.o(i.GUI_AA_SetDrawMode) refers to lcd_aa.o(i.LCD_SetPixelAA4_Trans) for LCD_SetPixelAA4_Trans
    guiaa_lib.o(i.GUI_AA_SetDrawMode) refers to lcd_aa.o(i.LCD_SetPixelAA4_NoTrans) for LCD_SetPixelAA4_NoTrans
    guiaa_lib.o(i.GUI_AA_SetFactor) refers to gui_core.o(.data) for GUI_pContext
    guiaa_lib.o(i.GUI_AA_SetFactor) refers to guiaa_lib.o(.data) for .data
    guiaa_lib.o(i.GUI_AA_SetGammaAA4) refers to lcd_aa.o(i.LCD_AA_SetGamma) for LCD_AA_SetGamma
    guiaa_lib.o(i._DrawHLine) refers to guiaa_lib.o(i._FlushLine) for _FlushLine
    guiaa_lib.o(i._DrawHLine) refers to gui_core.o(.data) for GUI_pContext
    guiaa_lib.o(i._DrawHLine) refers to guiaa_lib.o(.data) for .data
    guiaa_lib.o(i._FlushLine) refers to lcd_aa.o(i.LCD_SetPixelAA4_Trans) for LCD_SetPixelAA4_Trans
    guiaa_lib.o(i._FlushLine) refers to guiaa_lib.o(.data) for .data
    guiaa_lib.o(i._FlushLine) refers to gui_core.o(.data) for GUI_pContext
    guiaa_lib.o(i._FlushLine) refers to gui__private.o(.data) for GUI__pfMemset
    guiaa_lib.o(i._OnExit) refers to gui_alloc.o(i.GUI_ALLOC_FreeFixedBlock) for GUI_ALLOC_FreeFixedBlock
    guiaa_lib.o(i._OnExit) refers to guiaa_lib.o(.data) for .data
    gui__getcursorpos.o(i.GUI__GetCursorCharacter) refers to gui__getcursorpos.o(.data) for .data
    gui__getcursorpos.o(i.GUI__GetCursorPosChar) refers to gui__getcursorpos.o(.data) for .data
    gui__getcursorpos.o(i.GUI__GetCursorPosX) refers to gui__getcursorpos.o(.data) for .data
    gui__getcursorpos.o(i._GetCursorCharacter) refers to gui_uc.o(i.GUI_UC_GetCharCode) for GUI_UC_GetCharCode
    gui__getcursorpos.o(i._GetCursorCharacter) refers to gui_core.o(.data) for GUI_pUC_API
    gui__getcursorpos.o(i._GetCursorPosChar) refers to gui_uc.o(i.GUI_UC_GetCharCode) for GUI_UC_GetCharCode
    gui__getcursorpos.o(i._GetCursorPosChar) refers to gui_char.o(i.GUI_GetCharDistX) for GUI_GetCharDistX
    gui__getcursorpos.o(i._GetCursorPosChar) refers to gui_uc.o(i.GUI_UC_GetCharSize) for GUI_UC_GetCharSize
    gui__getcursorpos.o(i._GetCursorPosChar) refers to gui_uc.o(i.GUI_UC__NumBytes2NumChars) for GUI_UC__NumBytes2NumChars
    gui__getcursorpos.o(i._GetCursorPosX) refers to gui_uc.o(i.GUI_UC__GetCharCodeInc) for GUI_UC__GetCharCodeInc
    gui__getcursorpos.o(i._GetCursorPosX) refers to gui_char.o(i.GUI_GetCharDistX) for GUI_GetCharDistX
    gui__getcursorpos.o(.data) refers to gui__getcursorpos.o(i._GetCursorPosX) for _GetCursorPosX
    gui__getcursorpos.o(.data) refers to gui__getcursorpos.o(i._GetCursorPosChar) for _GetCursorPosChar
    gui__getcursorpos.o(.data) refers to gui__getcursorpos.o(i._GetCursorCharacter) for _GetCursorCharacter
    gui__managecache.o(i.GUI_SetControlHook) refers to gui_core.o(i.GUI__RegisterExit) for GUI__RegisterExit
    gui__managecache.o(i.GUI_SetControlHook) refers to gui__managecache.o(.data) for .data
    gui__managecache.o(i.GUI_SetControlHook) refers to gui__managecache.o(i._OnExit) for _OnExit
    gui__managecache.o(i.GUI_SetRefreshHook) refers to gui_core.o(i.GUI__RegisterExit) for GUI__RegisterExit
    gui__managecache.o(i.GUI_SetRefreshHook) refers to gui__managecache.o(.data) for .data
    gui__managecache.o(i.GUI_SetRefreshHook) refers to gui__managecache.o(i._OnExit) for _OnExit
    gui__managecache.o(i.GUI__ManageCache) refers to gui__managecache.o(i.GUI__ManageCacheEx) for GUI__ManageCacheEx
    gui__managecache.o(i.GUI__ManageCache) refers to gui_core.o(.data) for GUI_pContext
    gui__managecache.o(i.GUI__ManageCacheEx) refers to gui_device.o(i.GUI_DEVICE__GetpDriver) for GUI_DEVICE__GetpDriver
    gui__managecache.o(i.GUI__ManageCacheEx) refers to gui__managecache.o(.data) for .data
    gui__managecache.o(i._OnExit) refers to gui__managecache.o(.data) for .data
    gui__private.o(i.GUI__AddSpaceHex) refers to gui_common.o(i.GUI_AddHex) for GUI_AddHex
    gui__private.o(i.GUI__CalcTextRect) refers to gui_dispstring.o(i.GUI_GetStringDistX) for GUI_GetStringDistX
    gui__private.o(i.GUI__CalcTextRect) refers to gui_char.o(i.GUI_GetFontDistY) for GUI_GetFontDistY
    gui__private.o(i.GUI__HandleEOLine) refers to gui_uc.o(i.GUI_UC__GetCharCodeInc) for GUI_UC__GetCharCodeInc
    gui__private.o(i.GUI__SetPixelAlpha) refers to lcd_getpixelcolor.o(i.LCD_GetPixelColor) for LCD_GetPixelColor
    gui__private.o(i.GUI__SetPixelAlpha) refers to lcd.o(i.LCD_Color2Index) for LCD_Color2Index
    gui__private.o(i.GUI__SetPixelAlpha) refers to gui_core.o(.data) for GUI_pContext
    gui__private.o(i.GUI__SetPixelAlpha) refers to gui__alpha.o(.data) for GUI__pfMixColors
    gui__private.o(i.GUI__SetText) refers to gui_alloc.o(i.GUI_ALLOC_LockH) for GUI_ALLOC_LockH
    gui__private.o(i.GUI__SetText) refers to gui_alloc.o(i.GUI_ALLOC_UnlockH) for GUI_ALLOC_UnlockH
    gui__private.o(i.GUI__SetText) refers to gui_alloc.o(i.GUI_ALLOC_GetSize) for GUI_ALLOC_GetSize
    gui__private.o(i.GUI__SetText) refers to gui_alloc.o(i.GUI_ALLOC_AllocNoInit) for GUI_ALLOC_AllocNoInit
    gui__private.o(i.GUI__SetText) refers to strcpy.o(.text) for strcpy
    gui__private.o(i.GUI__SetText) refers to gui_alloc.o(i.GUI_ALLOC_FreePtr) for GUI_ALLOC_FreePtr
    gui__private.o(i.GUI__SetText) refers to gui__private.o(i.GUI__strcmp) for i.GUI__strcmp
    gui__private.o(i.GUI__SetText) refers to gui__private.o(.data) for .data
    gui__private.o(i.GUI__strcmp_hp) refers to gui_alloc.o(i.GUI_ALLOC_LockH) for GUI_ALLOC_LockH
    gui__private.o(i.GUI__strcmp_hp) refers to gui_alloc.o(i.GUI_ALLOC_UnlockH) for GUI_ALLOC_UnlockH
    gui__private.o(i.GUI__strcmp_hp) refers to gui__private.o(i.GUI__strcmp) for i.GUI__strcmp
    gui__private.o(.data) refers to memset.o(.text) for memset
    gui__private.o(.data) refers to memcpy.o(.text) for memcpy
    gui__sinhq.o(i.GUI__ASinHQ) refers to gui__sinhq.o(.constdata) for .constdata
    gui__sinhq.o(i.GUI__ATan2) refers to gui__private.o(i.GUI__sqrt32) for GUI__sqrt32
    gui__sinhq.o(i.GUI__ATan2) refers to gui__sinhq.o(.constdata) for .constdata
    gui__sinhq.o(i.GUI__CosHQ) refers to gui__sinhq.o(.constdata) for .constdata
    gui__sinhq.o(i.GUI__SinHQ) refers to gui__sinhq.o(.constdata) for .constdata
    gui__wrap.o(i.GUI_WrapGetPositions) refers to gui_task.o(i.GUI_Lock) for GUI_Lock
    gui__wrap.o(i.GUI_WrapGetPositions) refers to gui_charline.o(i.GUI__GetLineNumChars) for GUI__GetLineNumChars
    gui__wrap.o(i.GUI_WrapGetPositions) refers to gui_uc.o(i.GUI_UC__NumChars2NumBytes) for GUI_UC__NumChars2NumBytes
    gui__wrap.o(i.GUI_WrapGetPositions) refers to gui_uc.o(i.GUI_UC__GetCharCodeInc) for GUI_UC__GetCharCodeInc
    gui__wrap.o(i.GUI_WrapGetPositions) refers to gui_char.o(i.GUI_GetCharDistX) for GUI_GetCharDistX
    gui__wrap.o(i.GUI_WrapGetPositions) refers to gui_task.o(i.GUI_Unlock) for GUI_Unlock
    gui__wrap.o(i.GUI_WrapGetPositions) refers to gui__wrap.o(.data) for .data
    gui__wrap.o(i.GUI_WrapSetSeparators) refers to gui__wrap.o(.data) for .data
    gui__wrap.o(i.GUI__WrapGetNumBytesToNextLine) refers to gui_charline.o(i.GUI__GetLineNumChars) for GUI__GetLineNumChars
    gui__wrap.o(i.GUI__WrapGetNumBytesToNextLine) refers to gui_uc.o(i.GUI_UC__NumChars2NumBytes) for GUI_UC__NumChars2NumBytes
    gui__wrap.o(i.GUI__WrapGetNumBytesToNextLine) refers to gui_uc.o(i.GUI_UC__GetCharCodeInc) for GUI_UC__GetCharCodeInc
    gui__wrap.o(i.GUI__WrapGetNumBytesToNextLine) refers to gui_char.o(i.GUI_GetCharDistX) for GUI_GetCharDistX
    gui__wrap.o(i.GUI__WrapGetNumBytesToNextLine) refers to gui__wrap.o(.data) for .data
    gui__wrap.o(i.GUI__WrapGetNumCharsDisp) refers to gui_charline.o(i.GUI__GetLineNumChars) for GUI__GetLineNumChars
    gui__wrap.o(i.GUI__WrapGetNumCharsDisp) refers to gui__wrap.o(.data) for .data
    gui__wrap.o(i.GUI__WrapGetNumCharsToNextLine) refers to gui_charline.o(i.GUI__GetLineNumChars) for GUI__GetLineNumChars
    gui__wrap.o(i.GUI__WrapGetNumCharsToNextLine) refers to gui_uc.o(i.GUI_UC__NumChars2NumBytes) for GUI_UC__NumChars2NumBytes
    gui__wrap.o(i.GUI__WrapGetNumCharsToNextLine) refers to gui_uc.o(i.GUI_UC__GetCharCodeInc) for GUI_UC__GetCharCodeInc
    gui__wrap.o(i.GUI__WrapGetNumCharsToNextLine) refers to gui_char.o(i.GUI_GetCharDistX) for GUI_GetCharDistX
    gui__wrap.o(i.GUI__WrapGetNumCharsToNextLine) refers to gui__wrap.o(.data) for .data
    gui__wrap.o(i._GetCharWrap) refers to gui_uc.o(i.GUI_UC__GetCharCodeInc) for GUI_UC__GetCharCodeInc
    gui__wrap.o(i._GetCharWrap) refers to gui_char.o(i.GUI_GetCharDistX) for GUI_GetCharDistX
    gui__wrap.o(i._GetWordWrap) refers to gui_uc.o(i.GUI_UC__GetCharCodeInc) for GUI_UC__GetCharCodeInc
    gui__wrap.o(i._GetWordWrap) refers to gui_char.o(i.GUI_GetCharDistX) for GUI_GetCharDistX
    gui__wrap.o(i._GetWordWrap) refers to gui__wrap.o(.data) for .data
    gui__wrap.o(.data) refers to gui__wrap.o(i._GetWordWrap) for _GetWordWrap
    gui__wrap.o(.data) refers to gui__wrap.o(i._GetCharWrap) for _GetCharWrap
    gui_2dlib.o(i.GL_MoveTo) refers to gui_core.o(.data) for GUI_pContext
    gui_2dlib.o(i.GUI_DrawRect) refers to gui_task.o(i.GUI_Lock) for GUI_Lock
    gui_2dlib.o(i.GUI_DrawRect) refers to wm.o(i.WM__InitIVRSearch) for WM__InitIVRSearch
    gui_2dlib.o(i.GUI_DrawRect) refers to lcd.o(i.LCD_DrawHLine) for LCD_DrawHLine
    gui_2dlib.o(i.GUI_DrawRect) refers to lcd.o(i.LCD_DrawVLine) for LCD_DrawVLine
    gui_2dlib.o(i.GUI_DrawRect) refers to wm.o(i.WM__GetNextIVR) for WM__GetNextIVR
    gui_2dlib.o(i.GUI_DrawRect) refers to gui_task.o(i.GUI_Unlock) for GUI_Unlock
    gui_2dlib.o(i.GUI_DrawRect) refers to gui_core.o(.data) for GUI_pContext
    gui_2dlib.o(i.GUI_DrawRectEx) refers to gui_task.o(i.GUI_Lock) for GUI_Lock
    gui_2dlib.o(i.GUI_DrawRectEx) refers to wm.o(i.WM__InitIVRSearch) for WM__InitIVRSearch
    gui_2dlib.o(i.GUI_DrawRectEx) refers to lcd.o(i.LCD_DrawHLine) for LCD_DrawHLine
    gui_2dlib.o(i.GUI_DrawRectEx) refers to lcd.o(i.LCD_DrawVLine) for LCD_DrawVLine
    gui_2dlib.o(i.GUI_DrawRectEx) refers to wm.o(i.WM__GetNextIVR) for WM__GetNextIVR
    gui_2dlib.o(i.GUI_DrawRectEx) refers to gui_task.o(i.GUI_Unlock) for GUI_Unlock
    gui_2dlib.o(i.GUI_DrawRectEx) refers to gui_core.o(.data) for GUI_pContext
    gui_2dlib.o(i.GUI_MoveRel) refers to gui_task.o(i.GUI_Lock) for GUI_Lock
    gui_2dlib.o(i.GUI_MoveRel) refers to gui_task.o(i.GUI_Unlock) for GUI_Unlock
    gui_2dlib.o(i.GUI_MoveRel) refers to gui_core.o(.data) for GUI_pContext
    gui_2dlib.o(i.GUI_MoveTo) refers to gui_task.o(i.GUI_Lock) for GUI_Lock
    gui_2dlib.o(i.GUI_MoveTo) refers to gui_task.o(i.GUI_Unlock) for GUI_Unlock
    gui_2dlib.o(i.GUI_MoveTo) refers to gui_core.o(.data) for GUI_pContext
    gui_char.o(i.GL_DispChar) refers to gui_task.o(i.GUI_Lock) for GUI_Lock
    gui_char.o(i.GL_DispChar) refers to gui_task.o(i.GUI_Unlock) for GUI_Unlock
    gui_char.o(i.GL_DispChar) refers to gui_core.o(.data) for GUI_pContext
    gui_char.o(i.GL_DispChar) refers to gui_core.o(.data) for GUI_pfDispCharStyle
    gui_char.o(i.GUI_DispNextLine) refers to gui_task.o(i.GUI_Lock) for GUI_Lock
    gui_char.o(i.GUI_DispNextLine) refers to gui_task.o(i.GUI_Unlock) for GUI_Unlock
    gui_char.o(i.GUI_DispNextLine) refers to gui_core.o(.data) for GUI_pContext
    gui_char.o(i.GUI_GetCharDistX) refers to gui_task.o(i.GUI_Lock) for GUI_Lock
    gui_char.o(i.GUI_GetCharDistX) refers to gui_task.o(i.GUI_Unlock) for GUI_Unlock
    gui_char.o(i.GUI_GetCharDistX) refers to gui_core.o(.data) for GUI_pContext
    gui_char.o(i.GUI_GetCharDistXEx) refers to gui_task.o(i.GUI_Lock) for GUI_Lock
    gui_char.o(i.GUI_GetCharDistXEx) refers to gui_task.o(i.GUI_Unlock) for GUI_Unlock
    gui_char.o(i.GUI_GetCharDistXEx) refers to gui_core.o(.data) for GUI_pContext
    gui_char.o(i.GUI_GetFontDistY) refers to gui_task.o(i.GUI_Lock) for GUI_Lock
    gui_char.o(i.GUI_GetFontDistY) refers to gui_task.o(i.GUI_Unlock) for GUI_Unlock
    gui_char.o(i.GUI_GetFontDistY) refers to gui_core.o(.data) for GUI_pContext
    gui_char.o(i.GUI_GetYAdjust) refers to gui_task.o(i.GUI_Lock) for GUI_Lock
    gui_char.o(i.GUI_GetYAdjust) refers to gui_task.o(i.GUI_Unlock) for GUI_Unlock
    gui_char.o(i.GUI_GetYAdjust) refers to gui_core.o(.data) for GUI_pContext
    gui_charline.o(i.GUI__DispLine) refers to wm.o(i.WM__InitIVRSearch) for WM__InitIVRSearch
    gui_charline.o(i.GUI__DispLine) refers to gui_common.o(i.GUI_RectsIntersect) for GUI_RectsIntersect
    gui_charline.o(i.GUI__DispLine) refers to gui__managecache.o(i.GUI__ManageCache) for GUI__ManageCache
    gui_charline.o(i.GUI__DispLine) refers to gui_uc.o(i.GUI_UC__GetCharCodeInc) for GUI_UC__GetCharCodeInc
    gui_charline.o(i.GUI__DispLine) refers to wm.o(i.WM__GetNextIVR) for WM__GetNextIVR
    gui_charline.o(i.GUI__DispLine) refers to gui_core.o(.data) for GUI_pLCD_APIList
    gui_charline.o(i.GUI__DispLine) refers to gui_charline.o(.data) for .data
    gui_charline.o(i.GUI__DispLine) refers to gui_core.o(.data) for GUI_pfDispCharLine
    gui_charline.o(i.GUI__DispLine) refers to gui_core.o(.data) for GUI_pContext
    gui_charline.o(i.GUI__DispLine) refers to gui_core.o(.data) for GUI_pfDispCharStyle
    gui_charline.o(i.GUI__GetLineDistX) refers to gui_uc.o(i.GUI_UC__GetCharCodeInc) for GUI_UC__GetCharCodeInc
    gui_charline.o(i.GUI__GetLineDistX) refers to gui_char.o(i.GUI_GetCharDistX) for GUI_GetCharDistX
    gui_charline.o(i.GUI__GetLineDistX) refers to gui_char.o(i.GUI_GetCharDistXEx) for GUI_GetCharDistXEx
    gui_charline.o(i.GUI__GetLineDistX) refers to gui_charline.o(.data) for .data
    gui_charline.o(i.GUI__GetLineDistX) refers to gui_core.o(.data) for GUI_pContext
    gui_charline.o(i.GUI__GetLineNumChars) refers to gui_uc.o(i.GUI_UC__GetCharCodeInc) for GUI_UC__GetCharCodeInc
    gui_charline.o(i.GUI__GetLineNumChars) refers to gui_core.o(.data) for GUI_pContext
    gui_charline.o(i.GUI__GetOverlap) refers to gui_char.o(i.GUI_GetCharDistXEx) for GUI_GetCharDistXEx
    gui_charline.o(.data) refers to gui_charline.o(i._Log2VisBuffered) for _Log2VisBuffered
    gui_charp.o(i.GUIPROP_DispChar) refers to lcd.o(i.LCD_SetDrawMode) for LCD_SetDrawMode
    gui_charp.o(i.GUIPROP_DispChar) refers to lcd.o(i.LCD_DrawBitmap) for LCD_DrawBitmap
    gui_charp.o(i.GUIPROP_DispChar) refers to gui_common.o(i.GUI_GetColor) for GUI_GetColor
    gui_charp.o(i.GUIPROP_DispChar) refers to gui_common.o(i.GUI_GetBkColor) for GUI_GetBkColor
    gui_charp.o(i.GUIPROP_DispChar) refers to gui_common.o(i.GUI_SetColor) for GUI_SetColor
    gui_charp.o(i.GUIPROP_DispChar) refers to lcd.o(i.LCD_FillRect) for LCD_FillRect
    gui_charp.o(i.GUIPROP_DispChar) refers to gui_core.o(.data) for GUI_pContext
    gui_charp.o(i.GUIPROP_GetCharDistX) refers to gui_core.o(.data) for GUI_pContext
    gui_dispchar.o(i.CL_DispChar) refers to gui_char.o(i.GUI_GetCharDistX) for GUI_GetCharDistX
    gui_dispchar.o(i.CL_DispChar) refers to gui_charline.o(i.GUI__GetOverlap) for GUI__GetOverlap
    gui_dispchar.o(i.CL_DispChar) refers to gui_common.o(i.GUI_GetFontSizeY) for GUI_GetFontSizeY
    gui_dispchar.o(i.CL_DispChar) refers to wm.o(i.WM__InitIVRSearch) for WM__InitIVRSearch
    gui_dispchar.o(i.CL_DispChar) refers to gui_char.o(i.GL_DispChar) for GL_DispChar
    gui_dispchar.o(i.CL_DispChar) refers to wm.o(i.WM__GetNextIVR) for WM__GetNextIVR
    gui_dispchar.o(i.CL_DispChar) refers to gui_core.o(.data) for GUI_pContext
    gui_dispchar.o(i.GUI_DispChar) refers to gui_task.o(i.GUI_Lock) for GUI_Lock
    gui_dispchar.o(i.GUI_DispChar) refers to gui_dispchar.o(i.CL_DispChar) for CL_DispChar
    gui_dispchar.o(i.GUI_DispChar) refers to gui_task.o(i.GUI_Unlock) for GUI_Unlock
    gui_dispchar.o(i.GUI_DispCharAt) refers to gui_task.o(i.GUI_Lock) for GUI_Lock
    gui_dispchar.o(i.GUI_DispCharAt) refers to gui_dispchar.o(i.CL_DispChar) for CL_DispChar
    gui_dispchar.o(i.GUI_DispCharAt) refers to gui_task.o(i.GUI_Unlock) for GUI_Unlock
    gui_dispchar.o(i.GUI_DispCharAt) refers to gui_core.o(.data) for GUI_pContext
    gui_dispchar.o(i.GUI_DispChars) refers to gui_task.o(i.GUI_Lock) for GUI_Lock
    gui_dispchar.o(i.GUI_DispChars) refers to gui_dispchar.o(i.CL_DispChar) for CL_DispChar
    gui_dispchar.o(i.GUI_DispChars) refers to gui_task.o(i.GUI_Unlock) for GUI_Unlock
    gui_drawline.o(i.GL_DrawLine) refers to gui_drawline.o(i.GL_DrawLineEx) for GL_DrawLineEx
    gui_drawline.o(i.GL_DrawLine1) refers to gui_drawline.o(i.GL_DrawLine1Ex) for GL_DrawLine1Ex
    gui_drawline.o(i.GL_DrawLine1Ex) refers to gui_drawlib.o(i.GL_DrawPoint) for GL_DrawPoint
    gui_drawline.o(i.GL_DrawLine1Ex) refers to lcd.o(i.LCD_DrawVLine) for LCD_DrawVLine
    gui_drawline.o(i.GL_DrawLine1Ex) refers to gui_core.o(.data) for GUI_pContext
    gui_drawline.o(i.GL_DrawLineEx) refers to gui_drawline.o(i.GL_DrawLine1Ex) for GL_DrawLine1Ex
    gui_drawline.o(i.GL_DrawLineEx) refers to gui_fillpolygon.o(i.GL_FillPolygon) for GL_FillPolygon
    gui_drawline.o(i.GL_DrawLineEx) refers to gui_drawlib.o(i.GL_DrawPoint) for GL_DrawPoint
    gui_drawline.o(i.GL_DrawLineEx) refers to gui_core.o(.data) for GUI_pContext
    gui_drawline.o(i.GL_DrawLineEx) refers to gui_drawline.o(.constdata) for .constdata
    gui_drawline.o(i.GL_DrawLineTo) refers to gui_drawline.o(i.GL_DrawLineEx) for GL_DrawLineEx
    gui_drawline.o(i.GL_DrawLineTo) refers to gui_core.o(.data) for GUI_pContext
    gui_drawline.o(i.GL_DrawLineToEx) refers to gui_drawline.o(i.GL_DrawLineEx) for GL_DrawLineEx
    gui_drawline.o(i.GL_DrawLineToEx) refers to gui_core.o(.data) for GUI_pContext
    gui_drawline.o(i.GUI_DrawLine) refers to gui_task.o(i.GUI_Lock) for GUI_Lock
    gui_drawline.o(i.GUI_DrawLine) refers to wm.o(i.WM__InitIVRSearch) for WM__InitIVRSearch
    gui_drawline.o(i.GUI_DrawLine) refers to gui_drawline.o(i.GL_DrawLineEx) for GL_DrawLineEx
    gui_drawline.o(i.GUI_DrawLine) refers to wm.o(i.WM__GetNextIVR) for WM__GetNextIVR
    gui_drawline.o(i.GUI_DrawLine) refers to gui_task.o(i.GUI_Unlock) for GUI_Unlock
    gui_drawline.o(i.GUI_DrawLine) refers to gui_core.o(.data) for GUI_pContext
    gui_drawline.o(i.GUI_DrawLineRel) refers to gui_task.o(i.GUI_Lock) for GUI_Lock
    gui_drawline.o(i.GUI_DrawLineRel) refers to wm.o(i.WM__InitIVRSearch) for WM__InitIVRSearch
    gui_drawline.o(i.GUI_DrawLineRel) refers to gui_drawline.o(i.GL_DrawLineEx) for GL_DrawLineEx
    gui_drawline.o(i.GUI_DrawLineRel) refers to wm.o(i.WM__GetNextIVR) for WM__GetNextIVR
    gui_drawline.o(i.GUI_DrawLineRel) refers to gui_2dlib.o(i.GUI_MoveRel) for GUI_MoveRel
    gui_drawline.o(i.GUI_DrawLineRel) refers to gui_task.o(i.GUI_Unlock) for GUI_Unlock
    gui_drawline.o(i.GUI_DrawLineRel) refers to gui_core.o(.data) for GUI_pContext
    gui_drawline.o(i.GUI_DrawLineTo) refers to gui_task.o(i.GUI_Lock) for GUI_Lock
    gui_drawline.o(i.GUI_DrawLineTo) refers to wm.o(i.WM__InitIVRSearch) for WM__InitIVRSearch
    gui_drawline.o(i.GUI_DrawLineTo) refers to gui_drawline.o(i.GL_DrawLineEx) for GL_DrawLineEx
    gui_drawline.o(i.GUI_DrawLineTo) refers to wm.o(i.WM__GetNextIVR) for WM__GetNextIVR
    gui_drawline.o(i.GUI_DrawLineTo) refers to gui_2dlib.o(i.GL_MoveTo) for GL_MoveTo
    gui_drawline.o(i.GUI_DrawLineTo) refers to gui_task.o(i.GUI_Unlock) for GUI_Unlock
    gui_drawline.o(i.GUI_DrawLineTo) refers to gui_core.o(.data) for GUI_pContext
    gui_drawline.o(i.GUI_cos) refers to gui_drawline.o(.constdata) for .constdata
    gui_drawline.o(i.GUI_sin) refers to gui_drawline.o(.constdata) for .constdata
    gui_onkey.o(i.GUI_ClearKeyBuffer) refers to gui_task.o(i.GUI_Lock) for GUI_Lock
    gui_onkey.o(i.GUI_ClearKeyBuffer) refers to gui_task.o(i.GUI_Unlock) for GUI_Unlock
    gui_onkey.o(i.GUI_ClearKeyBuffer) refers to gui_onkey.o(.data) for .data
    gui_onkey.o(i.GUI_ClearKeyBuffer) refers to gui_onkey.o(.bss) for .bss
    gui_onkey.o(i.GUI_GetKey) refers to gui_onkey.o(.data) for .data
    gui_onkey.o(i.GUI_GetKeyState) refers to gui_onkey.o(.data) for .data
    gui_onkey.o(i.GUI_KEY__SetHook) refers to gui_onkey.o(.data) for .data
    gui_onkey.o(i.GUI_PollKeyMsg) refers to gui_task.o(i.GUI_Lock) for GUI_Lock
    gui_onkey.o(i.GUI_PollKeyMsg) refers to wm_lib.o(i.WM_OnKey) for WM_OnKey
    gui_onkey.o(i.GUI_PollKeyMsg) refers to gui_task.o(i.GUI_Unlock) for GUI_Unlock
    gui_onkey.o(i.GUI_PollKeyMsg) refers to gui_onkey.o(.data) for .data
    gui_onkey.o(i.GUI_PollKeyMsg) refers to gui_onkey.o(.bss) for .bss
    gui_onkey.o(i.GUI_SendKeyMsg) refers to wm_lib.o(i.WM_OnKey) for WM_OnKey
    gui_onkey.o(i.GUI_SendKeyMsg) refers to gui_waitevent.o(i.GUI_SignalEvent) for GUI_SignalEvent
    gui_onkey.o(i.GUI_SendKeyMsg) refers to gui_onkey.o(.data) for .data
    gui_onkey.o(i.GUI_SendKeyMsg) refers to gui_onkey.o(.bss) for .bss
    gui_onkey.o(i.GUI_StoreKey) refers to gui_waitevent.o(i.GUI_SignalEvent) for GUI_SignalEvent
    gui_onkey.o(i.GUI_StoreKey) refers to gui_onkey.o(.data) for .data
    gui_onkey.o(i.GUI_StoreKeyMsg) refers to gui_waitevent.o(i.GUI_SignalEvent) for GUI_SignalEvent
    gui_onkey.o(i.GUI_StoreKeyMsg) refers to gui_onkey.o(.data) for .data
    gui_onkey.o(i.GUI_StoreKeyMsg) refers to gui_onkey.o(.bss) for .bss
    gui_onkey.o(.data) refers to gui_onkey.o(.bss) for _aState
    gui_selectlayer.o(i.GUI_AssignCursorLayer) refers to gui_device.o(i.GUI_DEVICE__GetpDriver) for GUI_DEVICE__GetpDriver
    gui_selectlayer.o(i.GUI_AssignCursorLayer) refers to gui_selectlayer.o(.data) for .data
    gui_selectlayer.o(i.GUI_GetCursorLayer) refers to gui_selectlayer.o(.data) for .data
    gui_selectlayer.o(i.GUI_GetLayerPosEx) refers to gui_task.o(i.GUI_Lock) for GUI_Lock
    gui_selectlayer.o(i.GUI_GetLayerPosEx) refers to lcd_set.o(i.LCD_GetPosEx) for LCD_GetPosEx
    gui_selectlayer.o(i.GUI_GetLayerPosEx) refers to gui_task.o(i.GUI_Unlock) for GUI_Unlock
    gui_selectlayer.o(i.GUI_GetSelLayer) refers to gui_core.o(.data) for GUI_pContext
    gui_selectlayer.o(i.GUI_SelectLayer) refers to gui_task.o(i.GUI_Lock) for GUI_Lock
    gui_selectlayer.o(i.GUI_SelectLayer) refers to gui_device.o(i.GUI_DEVICE__GetpDriver) for GUI_DEVICE__GetpDriver
    gui_selectlayer.o(i.GUI_SelectLayer) refers to gui_common.o(i.GUI_SelectLCD) for GUI_SelectLCD
    gui_selectlayer.o(i.GUI_SelectLayer) refers to gui_task.o(i.GUI_Unlock) for GUI_Unlock
    gui_selectlayer.o(i.GUI_SelectLayer) refers to gui_core.o(.data) for GUI_pContext
    gui_selectlayer.o(i.GUI_SelectLayer) refers to wm.o(.data) for WM__TouchedLayer
    gui_selectlayer.o(i.GUI_SetLayerAlphaEx) refers to gui_task.o(i.GUI_Lock) for GUI_Lock
    gui_selectlayer.o(i.GUI_SetLayerAlphaEx) refers to lcd_set.o(i.LCD_SetAlphaEx) for LCD_SetAlphaEx
    gui_selectlayer.o(i.GUI_SetLayerAlphaEx) refers to gui_task.o(i.GUI_Unlock) for GUI_Unlock
    gui_selectlayer.o(i.GUI_SetLayerPosEx) refers to gui_task.o(i.GUI_Lock) for GUI_Lock
    gui_selectlayer.o(i.GUI_SetLayerPosEx) refers to lcd_set.o(i.LCD_SetPosEx) for LCD_SetPosEx
    gui_selectlayer.o(i.GUI_SetLayerPosEx) refers to gui_task.o(i.GUI_Unlock) for GUI_Unlock
    gui_selectlayer.o(i.GUI_SetLayerSizeEx) refers to gui_task.o(i.GUI_Lock) for GUI_Lock
    gui_selectlayer.o(i.GUI_SetLayerSizeEx) refers to lcd_set.o(i.LCD_SetSizeEx) for LCD_SetSizeEx
    gui_selectlayer.o(i.GUI_SetLayerSizeEx) refers to gui_task.o(i.GUI_Unlock) for GUI_Unlock
    gui_selectlayer.o(i.GUI_SetLayerVisEx) refers to gui_task.o(i.GUI_Lock) for GUI_Lock
    gui_selectlayer.o(i.GUI_SetLayerVisEx) refers to lcd_set.o(i.LCD_SetVisEx) for LCD_SetVisEx
    gui_selectlayer.o(i.GUI_SetLayerVisEx) refers to gui_task.o(i.GUI_Unlock) for GUI_Unlock
    gui_task.o(i.GUITASK_CopyContext) refers to rt_memcpy_w.o(.text) for __aeabi_memcpy4
    gui_task.o(i.GUITASK_CopyContext) refers to gui_x_os.o(i.GUI_X_GetTaskId) for GUI_X_GetTaskId
    gui_task.o(i.GUITASK_CopyContext) refers to gui_task.o(.data) for .data
    gui_task.o(i.GUITASK_CopyContext) refers to gui_core.o(.data) for GUI_pContext
    gui_task.o(i.GUITASK_GetMaxTask) refers to gui_task.o(.data) for .data
    gui_task.o(i.GUITASK_GetpContext) refers to gui_task.o(i.GUI_Lock) for GUI_Lock
    gui_task.o(i.GUITASK_GetpContext) refers to gui_x_os.o(i.GUI_X_Unlock) for GUI_X_Unlock
    gui_task.o(i.GUITASK_GetpContext) refers to gui_task.o(.data) for .data
    gui_task.o(i.GUITASK_Init) refers to gui_core.o(i.GUI__RegisterExit) for GUI__RegisterExit
    gui_task.o(i.GUITASK_Init) refers to gui_alloc.o(i.GUI_ALLOC_GetFixedBlock) for GUI_ALLOC_GetFixedBlock
    gui_task.o(i.GUITASK_Init) refers to gui_x_os.o(i.GUI_X_InitOS) for GUI_X_InitOS
    gui_task.o(i.GUITASK_Init) refers to gui_x_os.o(i.GUI_X_GetTaskId) for GUI_X_GetTaskId
    gui_task.o(i.GUITASK_Init) refers to gui_task.o(i._OnExit) for _OnExit
    gui_task.o(i.GUITASK_Init) refers to gui_task.o(.data) for .data
    gui_task.o(i.GUITASK_Init) refers to gui__private.o(.data) for GUI__pfMemset
    gui_task.o(i.GUITASK_SetMaxTask) refers to gui_task.o(.data) for .data
    gui_task.o(i.GUI_Lock) refers to gui_x_os.o(i.GUI_X_GetTaskId) for GUI_X_GetTaskId
    gui_task.o(i.GUI_Lock) refers to gui_x_os.o(i.GUI_X_Lock) for GUI_X_Lock
    gui_task.o(i.GUI_Lock) refers to gui_device.o(i.GUI_DEVICE_UnlinkTaskDevices) for GUI_DEVICE_UnlinkTaskDevices
    gui_task.o(i.GUI_Lock) refers to gui_device.o(i.GUI_DEVICE_LinkDevices) for GUI_DEVICE_LinkDevices
    gui_task.o(i.GUI_Lock) refers to gui_task.o(.data) for .data
    gui_task.o(i.GUI_Lock) refers to gui_core.o(.data) for GUI_pContext
    gui_task.o(i.GUI_Unlock) refers to gui_x_os.o(i.GUI_X_Unlock) for GUI_X_Unlock
    gui_task.o(i.GUI_Unlock) refers to gui_task.o(.data) for .data
    gui_task.o(i._OnExit) refers to gui_alloc.o(i.GUI_ALLOC_FreeFixedBlock) for GUI_ALLOC_FreeFixedBlock
    gui_task.o(i._OnExit) refers to gui_task.o(.data) for .data
    gui_uc.o(i.GUI_UC_Encode) refers to gui_task.o(i.GUI_Lock) for GUI_Lock
    gui_uc.o(i.GUI_UC_Encode) refers to gui_task.o(i.GUI_Unlock) for GUI_Unlock
    gui_uc.o(i.GUI_UC_Encode) refers to gui_core.o(.data) for GUI_pUC_API
    gui_uc.o(i.GUI_UC_GetCharCode) refers to gui_task.o(i.GUI_Lock) for GUI_Lock
    gui_uc.o(i.GUI_UC_GetCharCode) refers to gui_task.o(i.GUI_Unlock) for GUI_Unlock
    gui_uc.o(i.GUI_UC_GetCharCode) refers to gui_core.o(.data) for GUI_pUC_API
    gui_uc.o(i.GUI_UC_GetCharSize) refers to gui_task.o(i.GUI_Lock) for GUI_Lock
    gui_uc.o(i.GUI_UC_GetCharSize) refers to gui_task.o(i.GUI_Unlock) for GUI_Unlock
    gui_uc.o(i.GUI_UC_GetCharSize) refers to gui_core.o(.data) for GUI_pUC_API
    gui_uc.o(i.GUI_UC__CalcSizeOfChar) refers to gui_core.o(.data) for GUI_pUC_API
    gui_uc.o(i.GUI_UC__GetCharCodeInc) refers to gui_core.o(.data) for GUI_pUC_API
    gui_uc.o(i.GUI_UC__NumBytes2NumChars) refers to gui_core.o(.data) for GUI_pUC_API
    gui_uc.o(i.GUI_UC__NumChars2NumBytes) refers to gui_core.o(.data) for GUI_pUC_API
    gui_uc.o(i.GUI__GetNumChars) refers to gui_core.o(.data) for GUI_pUC_API
    gui_uc_encodenone.o(i.GUI_UC_SetEncodeNone) refers to gui_task.o(i.GUI_Lock) for GUI_Lock
    gui_uc_encodenone.o(i.GUI_UC_SetEncodeNone) refers to gui_task.o(i.GUI_Unlock) for GUI_Unlock
    gui_uc_encodenone.o(i.GUI_UC_SetEncodeNone) refers to gui_uc_encodenone.o(.constdata) for .constdata
    gui_uc_encodenone.o(i.GUI_UC_SetEncodeNone) refers to gui_core.o(.data) for GUI_pUC_API
    gui_uc_encodenone.o(.constdata) refers to gui_uc_encodenone.o(i._GetCharCode) for _GetCharCode
    gui_uc_encodenone.o(.constdata) refers to gui_uc_encodenone.o(i._GetCharSize) for _GetCharSize
    gui_uc_encodenone.o(.constdata) refers to gui_uc_encodenone.o(i._CalcSizeOfChar) for _CalcSizeOfChar
    gui_uc_encodenone.o(.constdata) refers to gui_uc_encodenone.o(i._Encode) for _Encode
    gui_waitevent.o(i.GUI_SetSignalEventFunc) refers to gui_waitevent.o(.data) for .data
    gui_waitevent.o(i.GUI_SetWaitEventFunc) refers to gui_waitevent.o(.data) for .data
    gui_waitevent.o(i.GUI_SetWaitEventTimedFunc) refers to gui_waitevent.o(.data) for .data
    gui_waitevent.o(i.GUI_SignalEvent) refers to gui_waitevent.o(.data) for .data
    gui_waitevent.o(i.GUI_WaitEvent) refers to gui_task.o(i.GUI_Lock) for GUI_Lock
    gui_waitevent.o(i.GUI_WaitEvent) refers to gui_alloc.o(i.GUI_ALLOC_Lock) for GUI_ALLOC_Lock
    gui_waitevent.o(i.GUI_WaitEvent) refers to gui_task.o(i.GUI_Unlock) for GUI_Unlock
    gui_waitevent.o(i.GUI_WaitEvent) refers to gui_timer.o(i.GUI_TIMER__IsActive) for GUI_TIMER__IsActive
    gui_waitevent.o(i.GUI_WaitEvent) refers to gui_timer.o(i.GUI_TIMER__GetPeriod) for GUI_TIMER__GetPeriod
    gui_waitevent.o(i.GUI_WaitEvent) refers to gui_alloc.o(i.GUI_ALLOC_Unlock) for GUI_ALLOC_Unlock
    gui_waitevent.o(i.GUI_WaitEvent) refers to gui_task.o(.data) for GUITASK__EntranceCnt
    gui_waitevent.o(i.GUI_WaitEvent) refers to gui_waitevent.o(.data) for .data
    gui_waitevent.o(.data) refers to gui_x_os.o(i.GUI_X_ExecIdle) for GUI_X_ExecIdle
    lcd.o(i.LCD_Color2Index) refers to gui_core.o(.data) for GUI_pContext
    lcd.o(i.LCD_DrawBitmap) refers to lcd.o(i.LCD_FillRect) for LCD_FillRect
    lcd.o(i.LCD_DrawBitmap) refers to gui_core.o(.data) for GUI_pLCD_APIList
    lcd.o(i.LCD_DrawBitmap) refers to gui_core.o(.data) for GUI_pContext
    lcd.o(i.LCD_DrawHLine) refers to gui_core.o(.data) for GUI_pContext
    lcd.o(i.LCD_DrawPixel) refers to gui_core.o(.data) for GUI_pContext
    lcd.o(i.LCD_DrawVLine) refers to gui_core.o(.data) for GUI_pContext
    lcd.o(i.LCD_FillRect) refers to gui_core.o(.data) for GUI_pContext
    lcd.o(i.LCD_Index2Color) refers to gui_core.o(.data) for GUI_pContext
    lcd.o(i.LCD_SetBkColor) refers to lcd.o(.data) for .data
    lcd.o(i.LCD_SetBkColorIndex) refers to gui_core.o(.data) for GUI_pContext
    lcd.o(i.LCD_SetClipRectMax) refers to gui_core.o(.data) for GUI_pContext
    lcd.o(i.LCD_SetColor) refers to lcd.o(.data) for .data
    lcd.o(i.LCD_SetColorIndex) refers to gui_core.o(.data) for GUI_pContext
    lcd.o(i.LCD_SetDrawMode) refers to lcd.o(.data) for .data
    lcd.o(i.LCD_SetPixelIndex) refers to gui_core.o(.data) for GUI_pContext
    lcd.o(i.LCD__DrawBitmap_1bpp) refers to lcd.o(i.LCD_FillRect) for LCD_FillRect
    lcd.o(i.LCD__DrawBitmap_1bpp) refers to gui_core.o(.data) for GUI_pLCD_APIList
    lcd.o(i.LCD__DrawBitmap_1bpp) refers to gui_core.o(.data) for GUI_pContext
    lcd.o(i._SetBkColor) refers to gui_core.o(.data) for GUI_pContext
    lcd.o(i._SetColor) refers to gui_core.o(.data) for GUI_pContext
    lcd.o(i._SetDrawMode) refers to gui_core.o(.data) for GUI_pContext
    lcd.o(i.emWin_LCD_Init) refers to lcd_color.o(i.LCD_InitColors) for LCD_InitColors
    lcd.o(i.emWin_LCD_Init) refers to gui_device.o(i.GUI_DEVICE__GetpDriver) for GUI_DEVICE__GetpDriver
    lcd.o(i.emWin_LCD_Init) refers to lcd_color.o(i.LCD_InitLUT) for LCD_InitLUT
    lcd.o(i.emWin_LCD_Init) refers to gui_selectlayer.o(i.GUI_SelectLayer) for GUI_SelectLayer
    lcd.o(i.emWin_LCD_Init) refers to lcd.o(i.LCD_FillRect) for LCD_FillRect
    lcd.o(i.emWin_LCD_Init) refers to gui_core.o(.data) for GUI_pContext
    lcd.o(i.emWin_LCD_Init) refers to lcd.o(.data) for .data
    lcd.o(.constdata) refers to lcd.o(i._SetColor) for _SetColor
    lcd.o(.constdata) refers to lcd.o(i._SetBkColor) for _SetBkColor
    lcd.o(.constdata) refers to lcd.o(i._SetDrawMode) for _SetDrawMode
    lcd.o(.data) refers to lcd.o(.constdata) for _SetColorAPI
    lcd_color.o(i.LCD_GetMaxNumColors) refers to lcd_color.o(.data) for .data
    lcd_color.o(i.LCD_GetpPalConvTable) refers to lcd.o(i.LCD_Color2Index) for LCD_Color2Index
    lcd_color.o(i.LCD_GetpPalConvTable) refers to lcd_color.o(.data) for .data
    lcd_color.o(i.LCD_GetpPalConvTableBM) refers to lcd.o(i.LCD_Color2Index) for LCD_Color2Index
    lcd_color.o(i.LCD_GetpPalConvTableBM) refers to lcd_color.o(.data) for .data
    lcd_color.o(i.LCD_GetpPalConvTableUncached) refers to lcd.o(i.LCD_Color2Index) for LCD_Color2Index
    lcd_color.o(i.LCD_GetpPalConvTableUncached) refers to lcd_color.o(.data) for .data
    lcd_color.o(i.LCD_InitColors) refers to gui_alloc.o(i.GUI_ALLOC_GetFixedBlock) for GUI_ALLOC_GetFixedBlock
    lcd_color.o(i.LCD_InitColors) refers to gui_core.o(i.GUI__RegisterExit) for GUI__RegisterExit
    lcd_color.o(i.LCD_InitColors) refers to lcd_color.o(.data) for .data
    lcd_color.o(i.LCD_InitColors) refers to lcd_color.o(i._OnExit) for _OnExit
    lcd_color.o(i.LCD_InitLUT) refers to lcd_getnumdisplays.o(i.LCD_GetNumLayers) for LCD_GetNumLayers
    lcd_color.o(i.LCD_InitLUT) refers to gui_device.o(i.GUI_DEVICE__GetpDriver) for GUI_DEVICE__GetpDriver
    lcd_color.o(i.LCD_InitLUT) refers to lcd_getex.o(i.LCD_GetBitsPerPixelEx) for LCD_GetBitsPerPixelEx
    lcd_color.o(i.LCD_InitLUT) refers to lcd_getex.o(i.LCD_GetNumColorsEx) for LCD_GetNumColorsEx
    lcd_color.o(i.LCD_InitLUT) refers to lcd.o(i.LCD_Index2Color) for LCD_Index2Color
    lcd_color.o(i.LCD_InitLUT) refers to lcd_set.o(i.LCD_SetLUTEntryEx) for LCD_SetLUTEntryEx
    lcd_color.o(i.LCD_InitLUT) refers to gui_core.o(.data) for GUI__apDevice
    lcd_color.o(i.LCD_InitLUT) refers to guicc_0.o(.constdata) for LCD_API_ColorConv_0
    lcd_color.o(i.LCD_SetMaxNumColors) refers to lcd_color.o(.data) for .data
    lcd_color.o(i.LCD__SetPaletteConversionHook) refers to lcd_color.o(.data) for .data
    lcd_color.o(i._OnExit) refers to gui_alloc.o(i.GUI_ALLOC_FreeFixedBlock) for GUI_ALLOC_FreeFixedBlock
    lcd_color.o(i._OnExit) refers to lcd_color.o(.data) for .data
    lcd_getcolorindex.o(i.LCD_GetBkColorIndex) refers to gui_core.o(.data) for GUI_pContext
    lcd_getcolorindex.o(i.LCD_GetColorIndex) refers to gui_core.o(.data) for GUI_pContext
    lcd_getp.o(i.GUI_GetPixelIndex) refers to gui_task.o(i.GUI_Lock) for GUI_Lock
    lcd_getp.o(i.GUI_GetPixelIndex) refers to gui_task.o(i.GUI_Unlock) for GUI_Unlock
    lcd_getp.o(i.GUI_GetPixelIndex) refers to gui_core.o(.data) for GUI_pContext
    lcd_getp.o(i.LCD_GetPixelIndex) refers to gui_core.o(.data) for GUI_pContext
    lcd_selectlcd.o(i.LCD_SelectLCD) refers to gui_device.o(i.GUI_DEVICE_Unlink) for GUI_DEVICE_Unlink
    lcd_selectlcd.o(i.LCD_SelectLCD) refers to lcd.o(i.LCD_SetClipRectMax) for LCD_SetClipRectMax
    lcd_selectlcd.o(i.LCD_SelectLCD) refers to gui_core.o(.data) for GUI_pContext
    lcd_setcliprectex.o(i.LCD_SetClipRectEx) refers to gui__private.o(i.GUI__IntersectRects) for GUI__IntersectRects
    lcd_setcliprectex.o(i.LCD_SetClipRectEx) refers to gui_core.o(.data) for GUI_pContext
    lcd_updatecolorindices.o(i.LCD_UpdateColorIndices) refers to lcd.o(i.LCD_Color2Index) for LCD_Color2Index
    lcd_updatecolorindices.o(i.LCD_UpdateColorIndices) refers to lcd.o(i.LCD_SetColorIndex) for LCD_SetColorIndex
    lcd_updatecolorindices.o(i.LCD_UpdateColorIndices) refers to lcd.o(i.LCD_SetBkColorIndex) for LCD_SetBkColorIndex
    lcd_updatecolorindices.o(i.LCD_UpdateColorIndices) refers to gui_core.o(.data) for GUI_pContext
    f6x8.o(.constdata) refers to f6x8.o(.constdata) for GUI_F6x8_TL8859_1
    f6x8.o(.constdata) refers to f6x8.o(.constdata) for GUI_acFont6x8
    f6x8.o(.constdata) refers to f6x8.o(.constdata) for GUI_F6x8_TI8859_1
    f6x8.o(.constdata) refers to gui_charm.o(i.GUIMONO_DispChar) for GUIMONO_DispChar
    f6x8.o(.constdata) refers to gui_charm.o(i.GUIMONO_GetCharDistX) for GUIMONO_GetCharDistX
    f6x8.o(.constdata) refers to gui_charm.o(i.GUIMONO_GetFontInfo) for GUIMONO_GetFontInfo
    f6x8.o(.constdata) refers to gui_charm.o(i.GUIMONO_IsInFont) for GUIMONO_IsInFont
    f6x8.o(.constdata) refers to f6x8.o(.constdata) for GUI_F6x8_Mono
    f6x8.o(.constdata) refers to gui_charm.o(i.GUIMONO_DispChar) for GUIMONO_DispChar
    f6x8.o(.constdata) refers to gui_charm.o(i.GUIMONO_GetCharDistX) for GUIMONO_GetCharDistX
    f6x8.o(.constdata) refers to gui_charm.o(i.GUIMONO_GetFontInfo) for GUIMONO_GetFontInfo
    f6x8.o(.constdata) refers to gui_charm.o(i.GUIMONO_IsInFont) for GUIMONO_IsInFont
    f6x8.o(.constdata) refers to f6x8.o(.constdata) for GUI_F6x8_Mono
    f13_1.o(.constdata) refers to f13_1.o(.constdata) for acFont13_1_00A0
    f13_1.o(.constdata) refers to f13_1.o(.constdata) for acFont13_1_00A1
    f13_1.o(.constdata) refers to f13_1.o(.constdata) for acFont13_1_00A2
    f13_1.o(.constdata) refers to f13_1.o(.constdata) for acFont13_1_00A3
    f13_1.o(.constdata) refers to f13_1.o(.constdata) for acFont13_1_00A4
    f13_1.o(.constdata) refers to f13_1.o(.constdata) for acFont13_1_00A5
    f13_1.o(.constdata) refers to f13_1.o(.constdata) for acFont13_1_00A6
    f13_1.o(.constdata) refers to f13_1.o(.constdata) for acFont13_1_00A7
    f13_1.o(.constdata) refers to f13_1.o(.constdata) for acFont13_1_00A8
    f13_1.o(.constdata) refers to f13_1.o(.constdata) for acFont13_1_00A9
    f13_1.o(.constdata) refers to f13_1.o(.constdata) for acFont13_1_00AA
    f13_1.o(.constdata) refers to f13_1.o(.constdata) for acFont13_1_00AB
    f13_1.o(.constdata) refers to f13_1.o(.constdata) for acFont13_1_00AC
    f13_1.o(.constdata) refers to f13_1.o(.constdata) for acFont13_1_00AD
    f13_1.o(.constdata) refers to f13_1.o(.constdata) for acFont13_1_00AE
    f13_1.o(.constdata) refers to f13_1.o(.constdata) for acFont13_1_00AF
    f13_1.o(.constdata) refers to f13_1.o(.constdata) for acFont13_1_00B0
    f13_1.o(.constdata) refers to f13_1.o(.constdata) for acFont13_1_00B1
    f13_1.o(.constdata) refers to f13_1.o(.constdata) for acFont13_1_00B2
    f13_1.o(.constdata) refers to f13_1.o(.constdata) for acFont13_1_00B3
    f13_1.o(.constdata) refers to f13_1.o(.constdata) for acFont13_1_00B4
    f13_1.o(.constdata) refers to f13_1.o(.constdata) for acFont13_1_00B5
    f13_1.o(.constdata) refers to f13_1.o(.constdata) for acFont13_1_00B6
    f13_1.o(.constdata) refers to f13_1.o(.constdata) for acFont13_1_00B7
    f13_1.o(.constdata) refers to f13_1.o(.constdata) for acFont13_1_00B8
    f13_1.o(.constdata) refers to f13_1.o(.constdata) for acFont13_1_00B9
    f13_1.o(.constdata) refers to f13_1.o(.constdata) for acFont13_1_00BA
    f13_1.o(.constdata) refers to f13_1.o(.constdata) for acFont13_1_00BB
    f13_1.o(.constdata) refers to f13_1.o(.constdata) for acFont13_1_00BC
    f13_1.o(.constdata) refers to f13_1.o(.constdata) for acFont13_1_00BD
    f13_1.o(.constdata) refers to f13_1.o(.constdata) for acFont13_1_00BE
    f13_1.o(.constdata) refers to f13_1.o(.constdata) for acFont13_1_00BF
    f13_1.o(.constdata) refers to f13_1.o(.constdata) for acFont13_1_00C0
    f13_1.o(.constdata) refers to f13_1.o(.constdata) for acFont13_1_00C1
    f13_1.o(.constdata) refers to f13_1.o(.constdata) for acFont13_1_00C2
    f13_1.o(.constdata) refers to f13_1.o(.constdata) for acFont13_1_00C3
    f13_1.o(.constdata) refers to f13_1.o(.constdata) for acFont13_1_00C4
    f13_1.o(.constdata) refers to f13_1.o(.constdata) for acFont13_1_00C5
    f13_1.o(.constdata) refers to f13_1.o(.constdata) for acFont13_1_00C6
    f13_1.o(.constdata) refers to f13_1.o(.constdata) for acFont13_1_00C7
    f13_1.o(.constdata) refers to f13_1.o(.constdata) for acFont13_1_00C8
    f13_1.o(.constdata) refers to f13_1.o(.constdata) for acFont13_1_00C9
    f13_1.o(.constdata) refers to f13_1.o(.constdata) for acFont13_1_00CA
    f13_1.o(.constdata) refers to f13_1.o(.constdata) for acFont13_1_00CB
    f13_1.o(.constdata) refers to f13_1.o(.constdata) for acFont13_1_00CC
    f13_1.o(.constdata) refers to f13_1.o(.constdata) for acFont13_1_00CD
    f13_1.o(.constdata) refers to f13_1.o(.constdata) for acFont13_1_00CE
    f13_1.o(.constdata) refers to f13_1.o(.constdata) for acFont13_1_00CF
    f13_1.o(.constdata) refers to f13_1.o(.constdata) for acFont13_1_00D0
    f13_1.o(.constdata) refers to f13_1.o(.constdata) for acFont13_1_00D1
    f13_1.o(.constdata) refers to f13_1.o(.constdata) for acFont13_1_00D2
    f13_1.o(.constdata) refers to f13_1.o(.constdata) for acFont13_1_00D3
    f13_1.o(.constdata) refers to f13_1.o(.constdata) for acFont13_1_00D4
    f13_1.o(.constdata) refers to f13_1.o(.constdata) for acFont13_1_00D5
    f13_1.o(.constdata) refers to f13_1.o(.constdata) for acFont13_1_00D6
    f13_1.o(.constdata) refers to f13_1.o(.constdata) for acFont13_1_00D7
    f13_1.o(.constdata) refers to f13_1.o(.constdata) for acFont13_1_00D8
    f13_1.o(.constdata) refers to f13_1.o(.constdata) for acFont13_1_00D9
    f13_1.o(.constdata) refers to f13_1.o(.constdata) for acFont13_1_00DA
    f13_1.o(.constdata) refers to f13_1.o(.constdata) for acFont13_1_00DB
    f13_1.o(.constdata) refers to f13_1.o(.constdata) for acFont13_1_00DC
    f13_1.o(.constdata) refers to f13_1.o(.constdata) for acFont13_1_00DD
    f13_1.o(.constdata) refers to f13_1.o(.constdata) for acFont13_1_00DE
    f13_1.o(.constdata) refers to f13_1.o(.constdata) for acFont13_1_00DF
    f13_1.o(.constdata) refers to f13_1.o(.constdata) for acFont13_1_00E0
    f13_1.o(.constdata) refers to f13_1.o(.constdata) for acFont13_1_00E1
    f13_1.o(.constdata) refers to f13_1.o(.constdata) for acFont13_1_00E2
    f13_1.o(.constdata) refers to f13_1.o(.constdata) for acFont13_1_00E3
    f13_1.o(.constdata) refers to f13_1.o(.constdata) for acFont13_1_00E4
    f13_1.o(.constdata) refers to f13_1.o(.constdata) for acFont13_1_00E5
    f13_1.o(.constdata) refers to f13_1.o(.constdata) for acFont13_1_00E6
    f13_1.o(.constdata) refers to f13_1.o(.constdata) for acFont13_1_00E7
    f13_1.o(.constdata) refers to f13_1.o(.constdata) for acFont13_1_00E8
    f13_1.o(.constdata) refers to f13_1.o(.constdata) for acFont13_1_00E9
    f13_1.o(.constdata) refers to f13_1.o(.constdata) for acFont13_1_00EA
    f13_1.o(.constdata) refers to f13_1.o(.constdata) for acFont13_1_00EB
    f13_1.o(.constdata) refers to f13_1.o(.constdata) for acFont13_1_00EC
    f13_1.o(.constdata) refers to f13_1.o(.constdata) for acFont13_1_00ED
    f13_1.o(.constdata) refers to f13_1.o(.constdata) for acFont13_1_00EE
    f13_1.o(.constdata) refers to f13_1.o(.constdata) for acFont13_1_00EF
    f13_1.o(.constdata) refers to f13_1.o(.constdata) for acFont13_1_00F0
    f13_1.o(.constdata) refers to f13_1.o(.constdata) for acFont13_1_00F1
    f13_1.o(.constdata) refers to f13_1.o(.constdata) for acFont13_1_00F2
    f13_1.o(.constdata) refers to f13_1.o(.constdata) for acFont13_1_00F3
    f13_1.o(.constdata) refers to f13_1.o(.constdata) for acFont13_1_00F4
    f13_1.o(.constdata) refers to f13_1.o(.constdata) for acFont13_1_00F5
    f13_1.o(.constdata) refers to f13_1.o(.constdata) for acFont13_1_00F6
    f13_1.o(.constdata) refers to f13_1.o(.constdata) for acFont13_1_00F7
    f13_1.o(.constdata) refers to f13_1.o(.constdata) for acFont13_1_00F8
    f13_1.o(.constdata) refers to f13_1.o(.constdata) for acFont13_1_00F9
    f13_1.o(.constdata) refers to f13_1.o(.constdata) for acFont13_1_00FA
    f13_1.o(.constdata) refers to f13_1.o(.constdata) for acFont13_1_00FB
    f13_1.o(.constdata) refers to f13_1.o(.constdata) for acFont13_1_00FC
    f13_1.o(.constdata) refers to f13_1.o(.constdata) for acFont13_1_00FD
    f13_1.o(.constdata) refers to f13_1.o(.constdata) for acFont13_1_00FE
    f13_1.o(.constdata) refers to f13_1.o(.constdata) for acFont13_1_00FF
    f13_1.o(.constdata) refers to f13_1.o(.constdata) for GUI_Font13_1_CharInfo
    f13_1.o(.constdata) refers to f13_ascii.o(.constdata) for GUI_Font13ASCII_Prop1
    f13_1.o(.constdata) refers to gui_charp.o(i.GUIPROP_DispChar) for GUIPROP_DispChar
    f13_1.o(.constdata) refers to gui_charp.o(i.GUIPROP_GetCharDistX) for GUIPROP_GetCharDistX
    f13_1.o(.constdata) refers to gui_charp.o(i.GUIPROP_GetFontInfo) for GUIPROP_GetFontInfo
    f13_1.o(.constdata) refers to gui_charp.o(i.GUIPROP_IsInFont) for GUIPROP_IsInFont
    f13_1.o(.constdata) refers to f13_1.o(.constdata) for GUI_Font13_1_Prop1
    guidev.o(i.GUI_MEMDEV_CopyToLCD) refers to guidev.o(i.GUI_MEMDEV_CopyToLCDAt) for GUI_MEMDEV_CopyToLCDAt
    guidev.o(i.GUI_MEMDEV_CopyToLCDAt) refers to gui_task.o(i.GUI_Lock) for GUI_Lock
    guidev.o(i.GUI_MEMDEV_CopyToLCDAt) refers to gui_common.o(i.GUI_SetDrawMode) for GUI_SetDrawMode
    guidev.o(i.GUI_MEMDEV_CopyToLCDAt) refers to gui_alloc.o(i.GUI_ALLOC_LockH) for GUI_ALLOC_LockH
    guidev.o(i.GUI_MEMDEV_CopyToLCDAt) refers to gui_selectlayer.o(i.GUI_SelectLayer) for GUI_SelectLayer
    guidev.o(i.GUI_MEMDEV_CopyToLCDAt) refers to wm.o(i.WM_Activate) for WM_Activate
    guidev.o(i.GUI_MEMDEV_CopyToLCDAt) refers to gui_alloc.o(i.GUI_ALLOC_UnlockH) for GUI_ALLOC_UnlockH
    guidev.o(i.GUI_MEMDEV_CopyToLCDAt) refers to wm.o(i.WM__InitIVRSearch) for WM__InitIVRSearch
    guidev.o(i.GUI_MEMDEV_CopyToLCDAt) refers to guidev_writetoactiveopaque.o(i.GUI_MEMDEV__WriteToActiveOpaque) for GUI_MEMDEV__WriteToActiveOpaque
    guidev.o(i.GUI_MEMDEV_CopyToLCDAt) refers to wm.o(i.WM__GetNextIVR) for WM__GetNextIVR
    guidev.o(i.GUI_MEMDEV_CopyToLCDAt) refers to gui_common.o(i.GUI_SelectLCD) for GUI_SelectLCD
    guidev.o(i.GUI_MEMDEV_CopyToLCDAt) refers to wm.o(i.WM_Deactivate) for WM_Deactivate
    guidev.o(i.GUI_MEMDEV_CopyToLCDAt) refers to gui_device.o(i.GUI_DEVICE_Link) for GUI_DEVICE_Link
    guidev.o(i.GUI_MEMDEV_CopyToLCDAt) refers to lcd_updatecolorindices.o(i.LCD_UpdateColorIndices) for LCD_UpdateColorIndices
    guidev.o(i.GUI_MEMDEV_CopyToLCDAt) refers to lcd.o(i.LCD_SetClipRectMax) for LCD_SetClipRectMax
    guidev.o(i.GUI_MEMDEV_CopyToLCDAt) refers to gui_task.o(i.GUI_Unlock) for GUI_Unlock
    guidev.o(i.GUI_MEMDEV_CopyToLCDAt) refers to gui_core.o(.data) for GUI_pContext
    guidev.o(i.GUI_MEMDEV_Create) refers to gui_task.o(i.GUI_Lock) for GUI_Lock
    guidev.o(i.GUI_MEMDEV_Create) refers to gui_device.o(i.GUI_DEVICE__GetpDriver) for GUI_DEVICE__GetpDriver
    guidev.o(i.GUI_MEMDEV_Create) refers to guidev.o(i.GUI_MEMDEV__CreateFixed) for GUI_MEMDEV__CreateFixed
    guidev.o(i.GUI_MEMDEV_Create) refers to gui_task.o(i.GUI_Unlock) for GUI_Unlock
    guidev.o(i.GUI_MEMDEV_Create) refers to gui_core.o(.data) for GUI_pContext
    guidev.o(i.GUI_MEMDEV_Create) refers to guicc_8888.o(.constdata) for LCD_API_ColorConv_8888
    guidev.o(i.GUI_MEMDEV_CreateEx) refers to gui_task.o(i.GUI_Lock) for GUI_Lock
    guidev.o(i.GUI_MEMDEV_CreateEx) refers to gui_device.o(i.GUI_DEVICE__GetpDriver) for GUI_DEVICE__GetpDriver
    guidev.o(i.GUI_MEMDEV_CreateEx) refers to guidev.o(i.GUI_MEMDEV__CreateFixed) for GUI_MEMDEV__CreateFixed
    guidev.o(i.GUI_MEMDEV_CreateEx) refers to gui_task.o(i.GUI_Unlock) for GUI_Unlock
    guidev.o(i.GUI_MEMDEV_CreateEx) refers to gui_core.o(.data) for GUI_pContext
    guidev.o(i.GUI_MEMDEV_CreateEx) refers to guicc_8888.o(.constdata) for LCD_API_ColorConv_8888
    guidev.o(i.GUI_MEMDEV_Delete) refers to gui_task.o(i.GUI_Lock) for GUI_Lock
    guidev.o(i.GUI_MEMDEV_Delete) refers to gui_common.o(i.GUI_SelectLCD) for GUI_SelectLCD
    guidev.o(i.GUI_MEMDEV_Delete) refers to gui_alloc.o(i.GUI_ALLOC_LockH) for GUI_ALLOC_LockH
    guidev.o(i.GUI_MEMDEV_Delete) refers to guidev_usage.o(i.GUI_USAGE_DecUseCnt) for GUI_USAGE_DecUseCnt
    guidev.o(i.GUI_MEMDEV_Delete) refers to gui_device.o(i.GUI_DEVICE_Delete) for GUI_DEVICE_Delete
    guidev.o(i.GUI_MEMDEV_Delete) refers to gui_alloc.o(i.GUI_ALLOC_UnlockH) for GUI_ALLOC_UnlockH
    guidev.o(i.GUI_MEMDEV_Delete) refers to gui_alloc.o(i.GUI_ALLOC_Free) for GUI_ALLOC_Free
    guidev.o(i.GUI_MEMDEV_Delete) refers to gui_task.o(i.GUI_Unlock) for GUI_Unlock
    guidev.o(i.GUI_MEMDEV_Delete) refers to gui_core.o(.data) for GUI_pContext
    guidev.o(i.GUI_MEMDEV_GetBitsPerPixel) refers to gui_task.o(i.GUI_Lock) for GUI_Lock
    guidev.o(i.GUI_MEMDEV_GetBitsPerPixel) refers to gui_alloc.o(i.GUI_ALLOC_LockH) for GUI_ALLOC_LockH
    guidev.o(i.GUI_MEMDEV_GetBitsPerPixel) refers to lcd_getex.o(i.LCD__GetBPPDevice) for LCD__GetBPPDevice
    guidev.o(i.GUI_MEMDEV_GetBitsPerPixel) refers to gui_alloc.o(i.GUI_ALLOC_UnlockH) for GUI_ALLOC_UnlockH
    guidev.o(i.GUI_MEMDEV_GetBitsPerPixel) refers to gui_task.o(i.GUI_Unlock) for GUI_Unlock
    guidev.o(i.GUI_MEMDEV_MarkDirty) refers to gui_task.o(i.GUI_Lock) for GUI_Lock
    guidev.o(i.GUI_MEMDEV_MarkDirty) refers to gui_alloc.o(i.GUI_ALLOC_LockH) for GUI_ALLOC_LockH
    guidev.o(i.GUI_MEMDEV_MarkDirty) refers to gui_alloc.o(i.GUI_ALLOC_UnlockH) for GUI_ALLOC_UnlockH
    guidev.o(i.GUI_MEMDEV_MarkDirty) refers to guidev_usage.o(i.GUI_USAGE_AddRect) for GUI_USAGE_AddRect
    guidev.o(i.GUI_MEMDEV_MarkDirty) refers to gui_task.o(i.GUI_Unlock) for GUI_Unlock
    guidev.o(i.GUI_MEMDEV_Select) refers to gui_task.o(i.GUI_Lock) for GUI_Lock
    guidev.o(i.GUI_MEMDEV_Select) refers to gui_common.o(i.GUI_SelectLCD) for GUI_SelectLCD
    guidev.o(i.GUI_MEMDEV_Select) refers to wm.o(i.WM_Deactivate) for WM_Deactivate
    guidev.o(i.GUI_MEMDEV_Select) refers to gui_alloc.o(i.GUI_ALLOC_LockH) for GUI_ALLOC_LockH
    guidev.o(i.GUI_MEMDEV_Select) refers to gui_device.o(i.GUI_DEVICE_Link) for GUI_DEVICE_Link
    guidev.o(i.GUI_MEMDEV_Select) refers to gui_alloc.o(i.GUI_ALLOC_UnlockH) for GUI_ALLOC_UnlockH
    guidev.o(i.GUI_MEMDEV_Select) refers to lcd_updatecolorindices.o(i.LCD_UpdateColorIndices) for LCD_UpdateColorIndices
    guidev.o(i.GUI_MEMDEV_Select) refers to lcd.o(i.LCD_SetClipRectMax) for LCD_SetClipRectMax
    guidev.o(i.GUI_MEMDEV_Select) refers to gui_task.o(i.GUI_Unlock) for GUI_Unlock
    guidev.o(i.GUI_MEMDEV_Select) refers to gui_core.o(.data) for GUI_pContext
    guidev.o(i.GUI_MEMDEV__CreateFixed) refers to gui_device.o(i.GUI_DEVICE_Create) for GUI_DEVICE_Create
    guidev.o(i.GUI_MEMDEV__CreateFixed) refers to lcd_getex.o(i.LCD__GetBPPDevice) for LCD__GetBPPDevice
    guidev.o(i.GUI_MEMDEV__CreateFixed) refers to gui_alloc.o(i.GUI_ALLOC_RequestSize) for GUI_ALLOC_RequestSize
    guidev.o(i.GUI_MEMDEV__CreateFixed) refers to guidev_usagebm.o(i.GUI_USAGE_BM_Create) for GUI_USAGE_BM_Create
    guidev.o(i.GUI_MEMDEV__CreateFixed) refers to gui_device.o(i.GUI_DEVICE_Delete) for GUI_DEVICE_Delete
    guidev.o(i.GUI_MEMDEV__CreateFixed) refers to gui_alloc.o(i.GUI_ALLOC_AllocNoInit) for GUI_ALLOC_AllocNoInit
    guidev.o(i.GUI_MEMDEV__CreateFixed) refers to gui_alloc.o(i.GUI_ALLOC_AllocZero) for GUI_ALLOC_AllocZero
    guidev.o(i.GUI_MEMDEV__CreateFixed) refers to gui_alloc.o(i.GUI_ALLOC_LockH) for GUI_ALLOC_LockH
    guidev.o(i.GUI_MEMDEV__CreateFixed) refers to gui_alloc.o(i.GUI_ALLOC_UnlockH) for GUI_ALLOC_UnlockH
    guidev.o(i.GUI_MEMDEV__CreateFixed) refers to gui_alloc.o(i.GUI_ALLOC_Free) for GUI_ALLOC_Free
    guidev.o(i.GUI_MEMDEV__CreateFixed) refers to gui_core.o(.data) for GUI_pContext
    guidev.o(i.GUI_MEMDEV__WriteToActiveAt) refers to gui_alloc.o(i.GUI_ALLOC_LockH) for GUI_ALLOC_LockH
    guidev.o(i.GUI_MEMDEV__WriteToActiveAt) refers to gui_alloc.o(i.GUI_ALLOC_UnlockH) for GUI_ALLOC_UnlockH
    guidev_banding.o(i.GUI_MEMDEV_Draw) refers to gui_task.o(i.GUI_Lock) for GUI_Lock
    guidev_banding.o(i.GUI_MEMDEV_Draw) refers to lcd_getex.o(i.LCD_GetXSizeEx) for LCD_GetXSizeEx
    guidev_banding.o(i.GUI_MEMDEV_Draw) refers to lcd_getex.o(i.LCD_GetYSizeEx) for LCD_GetYSizeEx
    guidev_banding.o(i.GUI_MEMDEV_Draw) refers to lcd_getex.o(i.LCD_GetVXSizeEx) for LCD_GetVXSizeEx
    guidev_banding.o(i.GUI_MEMDEV_Draw) refers to lcd_getex.o(i.LCD_GetVYSizeEx) for LCD_GetVYSizeEx
    guidev_banding.o(i.GUI_MEMDEV_Draw) refers to gui_common.o(i.GUI_GetOrg) for GUI_GetOrg
    guidev_banding.o(i.GUI_MEMDEV_Draw) refers to guidev.o(i.GUI_MEMDEV_CreateEx) for GUI_MEMDEV_CreateEx
    guidev_banding.o(i.GUI_MEMDEV_Draw) refers to guidev_getysize.o(i.GUI_MEMDEV_GetYSize) for GUI_MEMDEV_GetYSize
    guidev_banding.o(i.GUI_MEMDEV_Draw) refers to wm__private.o(i.WM__SendMessageNoPara) for WM__SendMessageNoPara
    guidev_banding.o(i.GUI_MEMDEV_Draw) refers to guidev.o(i.GUI_MEMDEV_Select) for GUI_MEMDEV_Select
    guidev_banding.o(i.GUI_MEMDEV_Draw) refers to guidev_reduceysize.o(i.GUI_MEMDEV_ReduceYSize) for GUI_MEMDEV_ReduceYSize
    guidev_banding.o(i.GUI_MEMDEV_Draw) refers to guidev_setorg.o(i.GUI_MEMDEV_SetOrg) for GUI_MEMDEV_SetOrg
    guidev_banding.o(i.GUI_MEMDEV_Draw) refers to guidev_clear.o(i.GUI_MEMDEV_Clear) for GUI_MEMDEV_Clear
    guidev_banding.o(i.GUI_MEMDEV_Draw) refers to guidev.o(i.GUI_MEMDEV_CopyToLCD) for GUI_MEMDEV_CopyToLCD
    guidev_banding.o(i.GUI_MEMDEV_Draw) refers to guidev.o(i.GUI_MEMDEV_Delete) for GUI_MEMDEV_Delete
    guidev_banding.o(i.GUI_MEMDEV_Draw) refers to gui_task.o(i.GUI_Unlock) for GUI_Unlock
    guidev_banding.o(i.GUI_MEMDEV_Draw) refers to gui_core.o(.data) for GUI_pContext
    guidev_banding.o(i.GUI_MEMDEV_Draw) refers to gui_core.o(.data) for GUI__aNumBuffers
    guidev_banding.o(i.GUI_MEMDEV_Draw) refers to guidev_banding.o(.data) for .data
    guidev_banding.o(i.GUI_MEMDEV__SetAlphaCallback) refers to guidev_banding.o(.data) for .data
    guidev_staticdevices.o(i.GUI_MEMDEV_CreateStatic) refers to gui_task.o(i.GUI_Lock) for GUI_Lock
    guidev_staticdevices.o(i.GUI_MEMDEV_CreateStatic) refers to gui_alloc.o(i.GUI_ALLOC_LockH) for GUI_ALLOC_LockH
    guidev_staticdevices.o(i.GUI_MEMDEV_CreateStatic) refers to gui_alloc.o(i.GUI_ALLOC_UnlockH) for GUI_ALLOC_UnlockH
    guidev_staticdevices.o(i.GUI_MEMDEV_CreateStatic) refers to wm.o(i.WM__ClipAtParentBorders) for WM__ClipAtParentBorders
    guidev_staticdevices.o(i.GUI_MEMDEV_CreateStatic) refers to wm.o(i.WM_SetDefault) for WM_SetDefault
    guidev_staticdevices.o(i.GUI_MEMDEV_CreateStatic) refers to wm.o(i.WM_SelectWindow) for WM_SelectWindow
    guidev_staticdevices.o(i.GUI_MEMDEV_CreateStatic) refers to gui_common.o(i.GUI_GotoXY) for GUI_GotoXY
    guidev_staticdevices.o(i.GUI_MEMDEV_CreateStatic) refers to guidev_staticdevices.o(i._CreateStaticDevice) for _CreateStaticDevice
    guidev_staticdevices.o(i.GUI_MEMDEV_CreateStatic) refers to guidev_staticdevices.o(i._CreateStatic) for _CreateStatic
    guidev_staticdevices.o(i.GUI_MEMDEV_CreateStatic) refers to gui_task.o(i.GUI_Unlock) for GUI_Unlock
    guidev_staticdevices.o(i.GUI_MEMDEV_CreateStatic) refers to guidev_staticdevices.o(.data) for .data
    guidev_staticdevices.o(i.GUI_MEMDEV_CreateWindowDevice) refers to gui_task.o(i.GUI_Lock) for GUI_Lock
    guidev_staticdevices.o(i.GUI_MEMDEV_CreateWindowDevice) refers to gui_alloc.o(i.GUI_ALLOC_LockH) for GUI_ALLOC_LockH
    guidev_staticdevices.o(i.GUI_MEMDEV_CreateWindowDevice) refers to gui_alloc.o(i.GUI_ALLOC_UnlockH) for GUI_ALLOC_UnlockH
    guidev_staticdevices.o(i.GUI_MEMDEV_CreateWindowDevice) refers to wm.o(i.WM__ClipAtParentBorders) for WM__ClipAtParentBorders
    guidev_staticdevices.o(i.GUI_MEMDEV_CreateWindowDevice) refers to wm.o(i.WM_SetDefault) for WM_SetDefault
    guidev_staticdevices.o(i.GUI_MEMDEV_CreateWindowDevice) refers to wm.o(i.WM_SelectWindow) for WM_SelectWindow
    guidev_staticdevices.o(i.GUI_MEMDEV_CreateWindowDevice) refers to gui_common.o(i.GUI_GotoXY) for GUI_GotoXY
    guidev_staticdevices.o(i.GUI_MEMDEV_CreateWindowDevice) refers to guidev_staticdevices.o(i._CreateStaticDevice) for _CreateStaticDevice
    guidev_staticdevices.o(i.GUI_MEMDEV_CreateWindowDevice) refers to guidev_staticdevices.o(i._CreateStatic) for _CreateStatic
    guidev_staticdevices.o(i.GUI_MEMDEV_CreateWindowDevice) refers to gui_task.o(i.GUI_Unlock) for GUI_Unlock
    guidev_staticdevices.o(i.GUI_MEMDEV_CreateWindowDevice) refers to guidev_staticdevices.o(.data) for .data
    guidev_staticdevices.o(i.GUI_MEMDEV_GetStaticDevice) refers to gui_task.o(i.GUI_Lock) for GUI_Lock
    guidev_staticdevices.o(i.GUI_MEMDEV_GetStaticDevice) refers to gui_alloc.o(i.GUI_ALLOC_LockH) for GUI_ALLOC_LockH
    guidev_staticdevices.o(i.GUI_MEMDEV_GetStaticDevice) refers to gui_alloc.o(i.GUI_ALLOC_UnlockH) for GUI_ALLOC_UnlockH
    guidev_staticdevices.o(i.GUI_MEMDEV_GetStaticDevice) refers to gui_task.o(i.GUI_Unlock) for GUI_Unlock
    guidev_staticdevices.o(i.GUI_MEMDEV_GetWindowDevice) refers to gui_task.o(i.GUI_Lock) for GUI_Lock
    guidev_staticdevices.o(i.GUI_MEMDEV_GetWindowDevice) refers to guidev_staticdevices.o(i._GetWindowDevice) for _GetWindowDevice
    guidev_staticdevices.o(i.GUI_MEMDEV_GetWindowDevice) refers to gui_task.o(i.GUI_Unlock) for GUI_Unlock
    guidev_staticdevices.o(i.GUI_MEMDEV_Paint1Static) refers to gui_alloc.o(i.GUI_ALLOC_LockH) for GUI_ALLOC_LockH
    guidev_staticdevices.o(i.GUI_MEMDEV_Paint1Static) refers to gui_alloc.o(i.GUI_ALLOC_UnlockH) for GUI_ALLOC_UnlockH
    guidev_staticdevices.o(i.GUI_MEMDEV_Paint1Static) refers to guidev_setorg.o(i.GUI_MEMDEV_SetOrg) for GUI_MEMDEV_SetOrg
    guidev_staticdevices.o(i.GUI_MEMDEV_Paint1Static) refers to wm_lib.o(i.WM_GetDesktopWindow) for WM_GetDesktopWindow
    guidev_staticdevices.o(i.GUI_MEMDEV_Paint1Static) refers to lcd_getex.o(i.LCD_GetXSize) for LCD_GetXSize
    guidev_staticdevices.o(i.GUI_MEMDEV_Paint1Static) refers to lcd_getex.o(i.LCD_GetYSize) for LCD_GetYSize
    guidev_staticdevices.o(i.GUI_MEMDEV_Paint1Static) refers to wm_lib.o(i.WM_SetSize) for WM_SetSize
    guidev_staticdevices.o(i.GUI_MEMDEV_Paint1Static) refers to guidev.o(i.GUI_MEMDEV__CreateFixed) for GUI_MEMDEV__CreateFixed
    guidev_staticdevices.o(i.GUI_MEMDEV_Paint1Static) refers to guidev.o(i.GUI_MEMDEV_Select) for GUI_MEMDEV_Select
    guidev_staticdevices.o(i.GUI_MEMDEV_Paint1Static) refers to gui_setalpha.o(i.GUI__AlphaPreserveTrans) for GUI__AlphaPreserveTrans
    guidev_staticdevices.o(i.GUI_MEMDEV_Paint1Static) refers to guidev_getdataptr.o(i.GUI_MEMDEV_GetDataPtr) for GUI_MEMDEV_GetDataPtr
    guidev_staticdevices.o(i.GUI_MEMDEV_Paint1Static) refers to wm_lib.o(i.WM_GetWindowOrgX) for WM_GetWindowOrgX
    guidev_staticdevices.o(i.GUI_MEMDEV_Paint1Static) refers to wm.o(i.WM__Paint1) for WM__Paint1
    guidev_staticdevices.o(i.GUI_MEMDEV_Paint1Static) refers to gui_alloc.o(i.GUI_ALLOC_h2p) for GUI_ALLOC_h2p
    guidev_staticdevices.o(i.GUI_MEMDEV_Paint1Static) refers to guidev_write.o(i.GUI_MEMDEV_Write) for GUI_MEMDEV_Write
    guidev_staticdevices.o(i.GUI_MEMDEV_Paint1Static) refers to guicc_8888.o(.constdata) for LCD_API_ColorConv_8888
    guidev_staticdevices.o(i.GUI_MEMDEV_Paint1Static) refers to guidev_32.o(.constdata) for GUI_MEMDEV_DEVICE_32
    guidev_staticdevices.o(i.GUI_MEMDEV_Paint1Static) refers to guidev_staticdevices.o(.data) for .data
    guidev_staticdevices.o(i.GUI_MEMDEV_Paint1Static) refers to gui__private.o(.data) for GUI__pfMemset
    guidev_staticdevices.o(i.GUI_MEMDEV_Paint1Static) refers to wm.o(.data) for WM__hCreateStatic
    guidev_staticdevices.o(i.GUI_MEMDEV_Paint1Static) refers to gui_core.o(.data) for GUI_AA__ClipX0
    guidev_staticdevices.o(i.GUI_MEMDEV__CreateStatic) refers to gui_alloc.o(i.GUI_ALLOC_LockH) for GUI_ALLOC_LockH
    guidev_staticdevices.o(i.GUI_MEMDEV__CreateStatic) refers to gui_alloc.o(i.GUI_ALLOC_UnlockH) for GUI_ALLOC_UnlockH
    guidev_staticdevices.o(i.GUI_MEMDEV__CreateStatic) refers to wm.o(i.WM__ClipAtParentBorders) for WM__ClipAtParentBorders
    guidev_staticdevices.o(i.GUI_MEMDEV__CreateStatic) refers to wm.o(i.WM_SetDefault) for WM_SetDefault
    guidev_staticdevices.o(i.GUI_MEMDEV__CreateStatic) refers to wm.o(i.WM_SelectWindow) for WM_SelectWindow
    guidev_staticdevices.o(i.GUI_MEMDEV__CreateStatic) refers to gui_common.o(i.GUI_GotoXY) for GUI_GotoXY
    guidev_staticdevices.o(i.GUI_MEMDEV__CreateStatic) refers to guidev_staticdevices.o(i._CreateStaticDevice) for _CreateStaticDevice
    guidev_staticdevices.o(i.GUI_MEMDEV__CreateStatic) refers to guidev_staticdevices.o(i._CreateStatic) for _CreateStatic
    guidev_staticdevices.o(i.GUI_MEMDEV__CreateStatic) refers to guidev_staticdevices.o(.data) for .data
    guidev_staticdevices.o(i._CreateStatic) refers to gui_alloc.o(i.GUI_ALLOC_LockH) for GUI_ALLOC_LockH
    guidev_staticdevices.o(i._CreateStatic) refers to gui_alloc.o(i.GUI_ALLOC_UnlockH) for GUI_ALLOC_UnlockH
    guidev_staticdevices.o(i._CreateStatic) refers to wm.o(i.WM__ClipAtParentBorders) for WM__ClipAtParentBorders
    guidev_staticdevices.o(i._CreateStatic) refers to wm.o(i.WM_SetDefault) for WM_SetDefault
    guidev_staticdevices.o(i._CreateStatic) refers to wm.o(i.WM_SelectWindow) for WM_SelectWindow
    guidev_staticdevices.o(i._CreateStatic) refers to gui_common.o(i.GUI_GotoXY) for GUI_GotoXY
    guidev_staticdevices.o(i._CreateStatic) refers to guidev_staticdevices.o(i._CreateStaticDevice) for _CreateStaticDevice
    guidev_staticdevices.o(i._CreateStatic) refers to guidev_staticdevices.o(.data) for .data
    guidev_staticdevices.o(i._CreateStaticDevice) refers to gui_alloc.o(i.GUI_ALLOC_LockH) for GUI_ALLOC_LockH
    guidev_staticdevices.o(i._CreateStaticDevice) refers to gui_alloc.o(i.GUI_ALLOC_UnlockH) for GUI_ALLOC_UnlockH
    guidev_staticdevices.o(i._CreateStaticDevice) refers to guidev_setorg.o(i.GUI_MEMDEV_SetOrg) for GUI_MEMDEV_SetOrg
    guidev_staticdevices.o(i._CreateStaticDevice) refers to wm_lib.o(i.WM_GetDesktopWindow) for WM_GetDesktopWindow
    guidev_staticdevices.o(i._CreateStaticDevice) refers to lcd_getex.o(i.LCD_GetXSize) for LCD_GetXSize
    guidev_staticdevices.o(i._CreateStaticDevice) refers to lcd_getex.o(i.LCD_GetYSize) for LCD_GetYSize
    guidev_staticdevices.o(i._CreateStaticDevice) refers to wm_lib.o(i.WM_SetSize) for WM_SetSize
    guidev_staticdevices.o(i._CreateStaticDevice) refers to guidev.o(i.GUI_MEMDEV__CreateFixed) for GUI_MEMDEV__CreateFixed
    guidev_staticdevices.o(i._CreateStaticDevice) refers to guidev.o(i.GUI_MEMDEV_Select) for GUI_MEMDEV_Select
    guidev_staticdevices.o(i._CreateStaticDevice) refers to gui_setalpha.o(i.GUI__AlphaPreserveTrans) for GUI__AlphaPreserveTrans
    guidev_staticdevices.o(i._CreateStaticDevice) refers to guidev_getdataptr.o(i.GUI_MEMDEV_GetDataPtr) for GUI_MEMDEV_GetDataPtr
    guidev_staticdevices.o(i._CreateStaticDevice) refers to wm_lib.o(i.WM_GetWindowOrgX) for WM_GetWindowOrgX
    guidev_staticdevices.o(i._CreateStaticDevice) refers to wm.o(i.WM__Paint1) for WM__Paint1
    guidev_staticdevices.o(i._CreateStaticDevice) refers to gui_alloc.o(i.GUI_ALLOC_h2p) for GUI_ALLOC_h2p
